ARM GAS  C:\Users\86183\AppData\Local\Temp\ccK92PKq.s 			page 1


   1              		.cpu cortex-m3
   2              		.eabi_attribute 20, 1
   3              		.eabi_attribute 21, 1
   4              		.eabi_attribute 23, 3
   5              		.eabi_attribute 24, 1
   6              		.eabi_attribute 25, 1
   7              		.eabi_attribute 26, 1
   8              		.eabi_attribute 30, 1
   9              		.eabi_attribute 34, 1
  10              		.eabi_attribute 18, 4
  11              		.file	"delay.c"
  12              		.text
  13              	.Ltext0:
  14              		.cfi_sections	.debug_frame
  15              		.section	.text.delay_init,"ax",%progbits
  16              		.align	1
  17              		.global	delay_init
  18              		.arch armv7-m
  19              		.syntax unified
  20              		.thumb
  21              		.thumb_func
  22              		.fpu softvfp
  24              	delay_init:
  25              	.LFB65:
  26              		.file 1 "Core/Src/delay.c"
   1:Core/Src/delay.c **** #include "main.h"
   2:Core/Src/delay.c **** 
   3:Core/Src/delay.c **** #define USE_HAL_LEGACY
   4:Core/Src/delay.c **** #include "stm32_hal_legacy.h"
   5:Core/Src/delay.c **** 
   6:Core/Src/delay.c **** #define Timebase_Source_is_SysTick 1  //ÂΩìTimebase Source‰∏∫SysTickÊó∂Êîπ‰∏∫1
   7:Core/Src/delay.c **** // #define Timebase_Source_is_SysTick 0  //ÂΩì‰ΩøÁî®FreeRTOSÔºåTimebase Source‰∏∫ÂÖ∂‰ªñÂÆöÊó∂Âô®Êó∂
   8:Core/Src/delay.c **** 
   9:Core/Src/delay.c **** #if (!Timebase_Source_is_SysTick)
  10:Core/Src/delay.c **** extern TIM_HandleTypeDef htim13;  //ÂΩì‰ΩøÁî®FreeRTOSÔºåTimebase Source‰∏∫ÂÖ∂‰ªñÂÆöÊó∂Âô®Êó∂Ôºå‰øÆÊ
  11:Core/Src/delay.c **** #define Timebase_htim htim13
  12:Core/Src/delay.c **** 
  13:Core/Src/delay.c **** #define Delay_GetCounter() __HAL_TIM_GetCounter(&Timebase_htim)
  14:Core/Src/delay.c **** #define Delay_GetAutoreload() __HAL_TIM_GetAutoreload(&Timebase_htim)
  15:Core/Src/delay.c **** #else
  16:Core/Src/delay.c **** #define Delay_GetCounter() (SysTick->VAL)
  17:Core/Src/delay.c **** #define Delay_GetAutoreload() (SysTick->LOAD)
  18:Core/Src/delay.c **** #endif
  19:Core/Src/delay.c **** 
  20:Core/Src/delay.c **** static uint16_t fac_us = 0;
  21:Core/Src/delay.c **** static uint32_t fac_ms = 0;
  22:Core/Src/delay.c **** 
  23:Core/Src/delay.c **** /*ÂàùÂßãÂåñ*/
  24:Core/Src/delay.c **** void delay_init(void) {
  27              		.loc 1 24 23 view -0
  28              		.cfi_startproc
  29              		@ args = 0, pretend = 0, frame = 0
  30              		@ frame_needed = 0, uses_anonymous_args = 0
  31              		@ link register save eliminated.
  25:Core/Src/delay.c **** #if (!Timebase_Source_is_SysTick)
  26:Core/Src/delay.c ****     fac_ms = 100000;  //‰Ωú‰∏∫Êó∂Âü∫ÁöÑËÆ°Êï∞Âô®Êó∂ÈíüÈ¢ëÁéáÂú®HAL_InitTick()‰∏≠Ë¢´ËÆæ‰∏∫‰∫Ü1MHz
  27:Core/Src/delay.c ****     fac_us = fac_ms / 1000;
ARM GAS  C:\Users\86183\AppData\Local\Temp\ccK92PKq.s 			page 2


  28:Core/Src/delay.c **** #else
  29:Core/Src/delay.c ****     fac_ms = SystemCoreClock / 1000;
  32              		.loc 1 29 5 view .LVU1
  33              		.loc 1 29 30 is_stmt 0 view .LVU2
  34 0000 064B     		ldr	r3, .L2
  35 0002 1B68     		ldr	r3, [r3]
  36 0004 064A     		ldr	r2, .L2+4
  37 0006 A2FB0313 		umull	r1, r3, r2, r3
  38 000a 9B09     		lsrs	r3, r3, #6
  39              		.loc 1 29 12 view .LVU3
  40 000c 0549     		ldr	r1, .L2+8
  41 000e 0B60     		str	r3, [r1]
  30:Core/Src/delay.c ****     fac_us = fac_ms / 1000;
  42              		.loc 1 30 5 is_stmt 1 view .LVU4
  43              		.loc 1 30 21 is_stmt 0 view .LVU5
  44 0010 A2FB0323 		umull	r2, r3, r2, r3
  45 0014 9B09     		lsrs	r3, r3, #6
  46              		.loc 1 30 12 view .LVU6
  47 0016 044A     		ldr	r2, .L2+12
  48 0018 1380     		strh	r3, [r2]	@ movhi
  31:Core/Src/delay.c **** #endif
  32:Core/Src/delay.c **** }
  49              		.loc 1 32 1 view .LVU7
  50 001a 7047     		bx	lr
  51              	.L3:
  52              		.align	2
  53              	.L2:
  54 001c 00000000 		.word	SystemCoreClock
  55 0020 D34D6210 		.word	274877907
  56 0024 00000000 		.word	.LANCHOR0
  57 0028 00000000 		.word	.LANCHOR1
  58              		.cfi_endproc
  59              	.LFE65:
  61              		.section	.text.delay_us,"ax",%progbits
  62              		.align	1
  63              		.global	delay_us
  64              		.syntax unified
  65              		.thumb
  66              		.thumb_func
  67              		.fpu softvfp
  69              	delay_us:
  70              	.LVL0:
  71              	.LFB66:
  33:Core/Src/delay.c **** 
  34:Core/Src/delay.c **** /*ÂæÆÁßíÁ∫ßÂª∂Êó∂*/
  35:Core/Src/delay.c **** void delay_us(uint32_t nus) {
  72              		.loc 1 35 29 is_stmt 1 view -0
  73              		.cfi_startproc
  74              		@ args = 0, pretend = 0, frame = 0
  75              		@ frame_needed = 0, uses_anonymous_args = 0
  76              		@ link register save eliminated.
  77              		.loc 1 35 29 is_stmt 0 view .LVU9
  78 0000 10B4     		push	{r4}
  79              	.LCFI0:
  80              		.cfi_def_cfa_offset 4
  81              		.cfi_offset 4, -4
  36:Core/Src/delay.c ****     uint32_t ticks = 0;
ARM GAS  C:\Users\86183\AppData\Local\Temp\ccK92PKq.s 			page 3


  82              		.loc 1 36 5 is_stmt 1 view .LVU10
  83              	.LVL1:
  37:Core/Src/delay.c ****     uint32_t told = 0;
  84              		.loc 1 37 5 view .LVU11
  38:Core/Src/delay.c ****     uint32_t tnow = 0;
  85              		.loc 1 38 5 view .LVU12
  39:Core/Src/delay.c ****     uint32_t tcnt = 0;
  86              		.loc 1 39 5 view .LVU13
  40:Core/Src/delay.c ****     uint32_t reload = 0;
  87              		.loc 1 40 5 view .LVU14
  41:Core/Src/delay.c **** 
  42:Core/Src/delay.c ****     reload = Delay_GetAutoreload();
  88              		.loc 1 42 5 view .LVU15
  89              		.loc 1 42 12 is_stmt 0 view .LVU16
  90 0002 4FF0E023 		mov	r3, #-536813568
  91 0006 5C69     		ldr	r4, [r3, #20]
  92              	.LVL2:
  43:Core/Src/delay.c **** 
  44:Core/Src/delay.c ****     ticks = nus * fac_us;
  93              		.loc 1 44 5 is_stmt 1 view .LVU17
  94              		.loc 1 44 17 is_stmt 0 view .LVU18
  95 0008 0C4A     		ldr	r2, .L11
  96 000a B2F800C0 		ldrh	ip, [r2]
  97              		.loc 1 44 11 view .LVU19
  98 000e 00FB0CFC 		mul	ip, r0, ip
  99              	.LVL3:
  45:Core/Src/delay.c **** 
  46:Core/Src/delay.c ****     told = Delay_GetCounter();
 100              		.loc 1 46 5 is_stmt 1 view .LVU20
 101              		.loc 1 46 10 is_stmt 0 view .LVU21
 102 0012 9B69     		ldr	r3, [r3, #24]
 103              	.LVL4:
  39:Core/Src/delay.c ****     uint32_t reload = 0;
 104              		.loc 1 39 14 view .LVU22
 105 0014 0021     		movs	r1, #0
 106 0016 04E0     		b	.L8
 107              	.LVL5:
 108              	.L6:
  47:Core/Src/delay.c **** 
  48:Core/Src/delay.c ****     while (1) {
  49:Core/Src/delay.c ****         tnow = Delay_GetCounter();
  50:Core/Src/delay.c **** 
  51:Core/Src/delay.c ****         if (tnow != told) {
  52:Core/Src/delay.c ****             if (tnow < told) {
  53:Core/Src/delay.c ****                 tcnt += told - tnow;
  54:Core/Src/delay.c ****             } else {
  55:Core/Src/delay.c ****                 tcnt += reload - tnow + told;
 109              		.loc 1 55 17 is_stmt 1 view .LVU23
 110              		.loc 1 55 32 is_stmt 0 view .LVU24
 111 0018 E01A     		subs	r0, r4, r3
 112              		.loc 1 55 39 view .LVU25
 113 001a 0244     		add	r2, r2, r0
 114              	.LVL6:
 115              		.loc 1 55 22 view .LVU26
 116 001c 1144     		add	r1, r1, r2
 117              	.LVL7:
 118              	.L7:
ARM GAS  C:\Users\86183\AppData\Local\Temp\ccK92PKq.s 			page 4


  56:Core/Src/delay.c ****             }
  57:Core/Src/delay.c ****             told = tnow;
 119              		.loc 1 57 13 is_stmt 1 view .LVU27
  58:Core/Src/delay.c ****             if (tcnt >= ticks) {
 120              		.loc 1 58 13 view .LVU28
 121              		.loc 1 58 16 is_stmt 0 view .LVU29
 122 001e 6145     		cmp	r1, ip
 123 0020 09D2     		bcs	.L10
 124              	.LVL8:
 125              	.L8:
  39:Core/Src/delay.c ****     uint32_t reload = 0;
 126              		.loc 1 39 14 view .LVU30
 127 0022 1A46     		mov	r2, r3
 128              	.LVL9:
 129              	.L5:
  48:Core/Src/delay.c ****         tnow = Delay_GetCounter();
 130              		.loc 1 48 5 is_stmt 1 view .LVU31
  49:Core/Src/delay.c **** 
 131              		.loc 1 49 9 view .LVU32
  49:Core/Src/delay.c **** 
 132              		.loc 1 49 14 is_stmt 0 view .LVU33
 133 0024 4FF0E023 		mov	r3, #-536813568
 134 0028 9B69     		ldr	r3, [r3, #24]
 135              	.LVL10:
  51:Core/Src/delay.c ****             if (tnow < told) {
 136              		.loc 1 51 9 is_stmt 1 view .LVU34
  51:Core/Src/delay.c ****             if (tnow < told) {
 137              		.loc 1 51 12 is_stmt 0 view .LVU35
 138 002a 9A42     		cmp	r2, r3
 139 002c FAD0     		beq	.L5
  52:Core/Src/delay.c ****                 tcnt += told - tnow;
 140              		.loc 1 52 13 is_stmt 1 view .LVU36
  52:Core/Src/delay.c ****                 tcnt += told - tnow;
 141              		.loc 1 52 16 is_stmt 0 view .LVU37
 142 002e F3D9     		bls	.L6
  53:Core/Src/delay.c ****             } else {
 143              		.loc 1 53 17 is_stmt 1 view .LVU38
  53:Core/Src/delay.c ****             } else {
 144              		.loc 1 53 30 is_stmt 0 view .LVU39
 145 0030 D21A     		subs	r2, r2, r3
 146              	.LVL11:
  53:Core/Src/delay.c ****             } else {
 147              		.loc 1 53 22 view .LVU40
 148 0032 1144     		add	r1, r1, r2
 149              	.LVL12:
  53:Core/Src/delay.c ****             } else {
 150              		.loc 1 53 22 view .LVU41
 151 0034 F3E7     		b	.L7
 152              	.LVL13:
 153              	.L10:
  59:Core/Src/delay.c ****                 break;
  60:Core/Src/delay.c ****             }
  61:Core/Src/delay.c ****         }
  62:Core/Src/delay.c ****     }
  63:Core/Src/delay.c **** }
 154              		.loc 1 63 1 view .LVU42
 155 0036 10BC     		pop	{r4}
ARM GAS  C:\Users\86183\AppData\Local\Temp\ccK92PKq.s 			page 5


 156              	.LCFI1:
 157              		.cfi_restore 4
 158              		.cfi_def_cfa_offset 0
 159              	.LVL14:
 160              		.loc 1 63 1 view .LVU43
 161 0038 7047     		bx	lr
 162              	.L12:
 163 003a 00BF     		.align	2
 164              	.L11:
 165 003c 00000000 		.word	.LANCHOR1
 166              		.cfi_endproc
 167              	.LFE66:
 169              		.section	.text.delay_ms,"ax",%progbits
 170              		.align	1
 171              		.global	delay_ms
 172              		.syntax unified
 173              		.thumb
 174              		.thumb_func
 175              		.fpu softvfp
 177              	delay_ms:
 178              	.LVL15:
 179              	.LFB67:
  64:Core/Src/delay.c **** 
  65:Core/Src/delay.c **** /*ÊØ´ÁßíÁ∫ßÂª∂Êó∂*/
  66:Core/Src/delay.c **** void delay_ms(uint32_t nms) {
 180              		.loc 1 66 29 is_stmt 1 view -0
 181              		.cfi_startproc
 182              		@ args = 0, pretend = 0, frame = 0
 183              		@ frame_needed = 0, uses_anonymous_args = 0
 184              		@ link register save eliminated.
 185              		.loc 1 66 29 is_stmt 0 view .LVU45
 186 0000 10B4     		push	{r4}
 187              	.LCFI2:
 188              		.cfi_def_cfa_offset 4
 189              		.cfi_offset 4, -4
  67:Core/Src/delay.c ****     uint32_t ticks = 0;
 190              		.loc 1 67 5 is_stmt 1 view .LVU46
 191              	.LVL16:
  68:Core/Src/delay.c ****     uint32_t told = 0;
 192              		.loc 1 68 5 view .LVU47
  69:Core/Src/delay.c ****     uint32_t tnow = 0;
 193              		.loc 1 69 5 view .LVU48
  70:Core/Src/delay.c ****     uint32_t tcnt = 0;
 194              		.loc 1 70 5 view .LVU49
  71:Core/Src/delay.c ****     uint32_t reload = 0;
 195              		.loc 1 71 5 view .LVU50
  72:Core/Src/delay.c **** 
  73:Core/Src/delay.c ****     reload = Delay_GetAutoreload();
 196              		.loc 1 73 5 view .LVU51
 197              		.loc 1 73 12 is_stmt 0 view .LVU52
 198 0002 4FF0E022 		mov	r2, #-536813568
 199 0006 5469     		ldr	r4, [r2, #20]
 200              	.LVL17:
  74:Core/Src/delay.c **** 
  75:Core/Src/delay.c ****     ticks = nms * fac_ms;
 201              		.loc 1 75 5 is_stmt 1 view .LVU53
 202              		.loc 1 75 17 is_stmt 0 view .LVU54
ARM GAS  C:\Users\86183\AppData\Local\Temp\ccK92PKq.s 			page 6


 203 0008 0B4B     		ldr	r3, .L20
 204 000a 1B68     		ldr	r3, [r3]
 205              		.loc 1 75 11 view .LVU55
 206 000c 00FB03FC 		mul	ip, r0, r3
 207              	.LVL18:
  76:Core/Src/delay.c **** 
  77:Core/Src/delay.c ****     told = Delay_GetCounter();
 208              		.loc 1 77 5 is_stmt 1 view .LVU56
 209              		.loc 1 77 10 is_stmt 0 view .LVU57
 210 0010 9369     		ldr	r3, [r2, #24]
 211              	.LVL19:
  70:Core/Src/delay.c ****     uint32_t reload = 0;
 212              		.loc 1 70 14 view .LVU58
 213 0012 0021     		movs	r1, #0
 214 0014 04E0     		b	.L17
 215              	.LVL20:
 216              	.L15:
  78:Core/Src/delay.c **** 
  79:Core/Src/delay.c ****     while (1) {
  80:Core/Src/delay.c ****         tnow = Delay_GetCounter();
  81:Core/Src/delay.c **** 
  82:Core/Src/delay.c ****         if (tnow != told) {
  83:Core/Src/delay.c ****             if (tnow < told) {
  84:Core/Src/delay.c ****                 tcnt += told - tnow;
  85:Core/Src/delay.c ****             } else {
  86:Core/Src/delay.c ****                 tcnt += reload - tnow + told;
 217              		.loc 1 86 17 is_stmt 1 view .LVU59
 218              		.loc 1 86 32 is_stmt 0 view .LVU60
 219 0016 E01A     		subs	r0, r4, r3
 220              		.loc 1 86 39 view .LVU61
 221 0018 0244     		add	r2, r2, r0
 222              	.LVL21:
 223              		.loc 1 86 22 view .LVU62
 224 001a 1144     		add	r1, r1, r2
 225              	.LVL22:
 226              	.L16:
  87:Core/Src/delay.c ****             }
  88:Core/Src/delay.c ****             told = tnow;
 227              		.loc 1 88 13 is_stmt 1 view .LVU63
  89:Core/Src/delay.c ****             if (tcnt >= ticks) {
 228              		.loc 1 89 13 view .LVU64
 229              		.loc 1 89 16 is_stmt 0 view .LVU65
 230 001c 6145     		cmp	r1, ip
 231 001e 09D2     		bcs	.L19
 232              	.LVL23:
 233              	.L17:
  70:Core/Src/delay.c ****     uint32_t reload = 0;
 234              		.loc 1 70 14 view .LVU66
 235 0020 1A46     		mov	r2, r3
 236              	.LVL24:
 237              	.L14:
  79:Core/Src/delay.c ****         tnow = Delay_GetCounter();
 238              		.loc 1 79 5 is_stmt 1 view .LVU67
  80:Core/Src/delay.c **** 
 239              		.loc 1 80 9 view .LVU68
  80:Core/Src/delay.c **** 
 240              		.loc 1 80 14 is_stmt 0 view .LVU69
ARM GAS  C:\Users\86183\AppData\Local\Temp\ccK92PKq.s 			page 7


 241 0022 4FF0E023 		mov	r3, #-536813568
 242 0026 9B69     		ldr	r3, [r3, #24]
 243              	.LVL25:
  82:Core/Src/delay.c ****             if (tnow < told) {
 244              		.loc 1 82 9 is_stmt 1 view .LVU70
  82:Core/Src/delay.c ****             if (tnow < told) {
 245              		.loc 1 82 12 is_stmt 0 view .LVU71
 246 0028 9A42     		cmp	r2, r3
 247 002a FAD0     		beq	.L14
  83:Core/Src/delay.c ****                 tcnt += told - tnow;
 248              		.loc 1 83 13 is_stmt 1 view .LVU72
  83:Core/Src/delay.c ****                 tcnt += told - tnow;
 249              		.loc 1 83 16 is_stmt 0 view .LVU73
 250 002c F3D9     		bls	.L15
  84:Core/Src/delay.c ****             } else {
 251              		.loc 1 84 17 is_stmt 1 view .LVU74
  84:Core/Src/delay.c ****             } else {
 252              		.loc 1 84 30 is_stmt 0 view .LVU75
 253 002e D21A     		subs	r2, r2, r3
 254              	.LVL26:
  84:Core/Src/delay.c ****             } else {
 255              		.loc 1 84 22 view .LVU76
 256 0030 1144     		add	r1, r1, r2
 257              	.LVL27:
  84:Core/Src/delay.c ****             } else {
 258              		.loc 1 84 22 view .LVU77
 259 0032 F3E7     		b	.L16
 260              	.LVL28:
 261              	.L19:
  90:Core/Src/delay.c ****                 break;
  91:Core/Src/delay.c ****             }
  92:Core/Src/delay.c ****         }
  93:Core/Src/delay.c ****     }
  94:Core/Src/delay.c **** }
 262              		.loc 1 94 1 view .LVU78
 263 0034 10BC     		pop	{r4}
 264              	.LCFI3:
 265              		.cfi_restore 4
 266              		.cfi_def_cfa_offset 0
 267              	.LVL29:
 268              		.loc 1 94 1 view .LVU79
 269 0036 7047     		bx	lr
 270              	.L21:
 271              		.align	2
 272              	.L20:
 273 0038 00000000 		.word	.LANCHOR0
 274              		.cfi_endproc
 275              	.LFE67:
 277              		.section	.text.HAL_Delay,"ax",%progbits
 278              		.align	1
 279              		.global	HAL_Delay
 280              		.syntax unified
 281              		.thumb
 282              		.thumb_func
 283              		.fpu softvfp
 285              	HAL_Delay:
 286              	.LVL30:
ARM GAS  C:\Users\86183\AppData\Local\Temp\ccK92PKq.s 			page 8


 287              	.LFB68:
  95:Core/Src/delay.c **** 
  96:Core/Src/delay.c **** /*ÈáçÂÜôHAL_Delay*/
  97:Core/Src/delay.c **** void HAL_Delay(uint32_t Delay) {
 288              		.loc 1 97 32 is_stmt 1 view -0
 289              		.cfi_startproc
 290              		@ args = 0, pretend = 0, frame = 0
 291              		@ frame_needed = 0, uses_anonymous_args = 0
 292              		.loc 1 97 32 is_stmt 0 view .LVU81
 293 0000 38B5     		push	{r3, r4, r5, lr}
 294              	.LCFI4:
 295              		.cfi_def_cfa_offset 16
 296              		.cfi_offset 3, -16
 297              		.cfi_offset 4, -12
 298              		.cfi_offset 5, -8
 299              		.cfi_offset 14, -4
 300 0002 0546     		mov	r5, r0
  98:Core/Src/delay.c ****     uint32_t tickstart = HAL_GetTick();
 301              		.loc 1 98 5 is_stmt 1 view .LVU82
 302              		.loc 1 98 26 is_stmt 0 view .LVU83
 303 0004 FFF7FEFF 		bl	HAL_GetTick
 304              	.LVL31:
 305              		.loc 1 98 26 view .LVU84
 306 0008 0446     		mov	r4, r0
 307              	.LVL32:
  99:Core/Src/delay.c ****     uint32_t wait = Delay;
 308              		.loc 1 99 5 is_stmt 1 view .LVU85
 100:Core/Src/delay.c **** 
 101:Core/Src/delay.c ****     /*‰∏çÂ§™ÊòéÁôΩÂÆòÊñπÊ∫êÁ†Å‰∏∫Âï•Ëøô‰πàÂÜôÔºå‰ºöÂ§öÂª∂Êó∂1msÔºåÊ≥®ÈáäÊéâÂêéÊõ¥ÂáÜ*/
 102:Core/Src/delay.c ****     //  /* Add a freq to guarantee minimum wait */
 103:Core/Src/delay.c ****     //  if (wait < HAL_MAX_DELAY)
 104:Core/Src/delay.c ****     //  {
 105:Core/Src/delay.c ****     //    wait += (uint32_t)(uwTickFreq);
 106:Core/Src/delay.c ****     //  }
 107:Core/Src/delay.c **** 
 108:Core/Src/delay.c ****     while ((HAL_GetTick() - tickstart) < wait) {
 309              		.loc 1 108 5 view .LVU86
 310              	.L23:
 109:Core/Src/delay.c ****     }
 311              		.loc 1 109 5 discriminator 1 view .LVU87
 108:Core/Src/delay.c ****     }
 312              		.loc 1 108 11 discriminator 1 view .LVU88
 108:Core/Src/delay.c ****     }
 313              		.loc 1 108 13 is_stmt 0 discriminator 1 view .LVU89
 314 000a FFF7FEFF 		bl	HAL_GetTick
 315              	.LVL33:
 108:Core/Src/delay.c ****     }
 316              		.loc 1 108 27 discriminator 1 view .LVU90
 317 000e 001B     		subs	r0, r0, r4
 108:Core/Src/delay.c ****     }
 318              		.loc 1 108 11 discriminator 1 view .LVU91
 319 0010 A842     		cmp	r0, r5
 320 0012 FAD3     		bcc	.L23
 110:Core/Src/delay.c **** }...
 321              		.loc 1 110 1 view .LVU92
 322 0014 38BD     		pop	{r3, r4, r5, pc}
 323              		.loc 1 110 1 view .LVU93
ARM GAS  C:\Users\86183\AppData\Local\Temp\ccK92PKq.s 			page 9


 324              		.cfi_endproc
 325              	.LFE68:
 327              		.section	.bss.fac_ms,"aw",%nobits
 328              		.align	2
 329              		.set	.LANCHOR0,. + 0
 332              	fac_ms:
 333 0000 00000000 		.space	4
 334              		.section	.bss.fac_us,"aw",%nobits
 335              		.align	1
 336              		.set	.LANCHOR1,. + 0
 339              	fac_us:
 340 0000 0000     		.space	2
 341              		.text
 342              	.Letext0:
 343              		.file 2 "d:\\gnu arm embedded toolchain10\\10 2021.07\\arm-none-eabi\\include\\machine\\_default_t
 344              		.file 3 "d:\\gnu arm embedded toolchain10\\10 2021.07\\arm-none-eabi\\include\\sys\\_stdint.h"
 345              		.file 4 "Drivers/CMSIS/Include/core_cm3.h"
 346              		.file 5 "Drivers/CMSIS/Device/ST/STM32F1xx/Include/system_stm32f1xx.h"
 347              		.file 6 "Drivers/STM32F1xx_HAL_Driver/Inc/stm32f1xx_hal.h"
ARM GAS  C:\Users\86183\AppData\Local\Temp\ccK92PKq.s 			page 10

