ARM GAS  C:\Users\86183\AppData\Local\Temp\ccAkzFZ3.s 			page 1


   1              		.cpu cortex-m3
   2              		.eabi_attribute 20, 1
   3              		.eabi_attribute 21, 1
   4              		.eabi_attribute 23, 3
   5              		.eabi_attribute 24, 1
   6              		.eabi_attribute 25, 1
   7              		.eabi_attribute 26, 1
   8              		.eabi_attribute 30, 1
   9              		.eabi_attribute 34, 1
  10              		.eabi_attribute 18, 4
  11              		.file	"main.c"
  12              		.text
  13              	.Ltext0:
  14              		.cfi_sections	.debug_frame
  15              		.section	.text.clearDistance,"ax",%progbits
  16              		.align	1
  17              		.global	clearDistance
  18              		.arch armv7-m
  19              		.syntax unified
  20              		.thumb
  21              		.thumb_func
  22              		.fpu softvfp
  24              	clearDistance:
  25              	.LFB65:
  26              		.file 1 "Core/Src/main.c"
   1:Core/Src/main.c **** /* USER CODE BEGIN Header */
   2:Core/Src/main.c **** /**
   3:Core/Src/main.c ****   ******************************************************************************
   4:Core/Src/main.c ****   * @file           : main.c
   5:Core/Src/main.c ****   * @brief          : Main program body
   6:Core/Src/main.c ****   ******************************************************************************
   7:Core/Src/main.c ****   * @attention
   8:Core/Src/main.c ****   *
   9:Core/Src/main.c ****   * <h2><center>&copy; Copyright (c) 2021 STMicroelectronics.
  10:Core/Src/main.c ****   * All rights reserved.</center></h2>
  11:Core/Src/main.c ****   *
  12:Core/Src/main.c ****   * This software component is licensed by ST under BSD 3-Clause license,
  13:Core/Src/main.c ****   * the "License"; You may not use this file except in compliance with the
  14:Core/Src/main.c ****   * License. You may obtain a copy of the License at:
  15:Core/Src/main.c ****   *                        opensource.org/licenses/BSD-3-Clause
  16:Core/Src/main.c ****   *
  17:Core/Src/main.c ****   ******************************************************************************
  18:Core/Src/main.c ****   */
  19:Core/Src/main.c **** /* USER CODE END Header */
  20:Core/Src/main.c **** /* Includes ------------------------------------------------------------------*/
  21:Core/Src/main.c **** #include "main.h"
  22:Core/Src/main.c **** #include "dma.h"
  23:Core/Src/main.c **** #include "tim.h"
  24:Core/Src/main.c **** #include "usart.h"
  25:Core/Src/main.c **** #include "gpio.h"
  26:Core/Src/main.c **** 
  27:Core/Src/main.c **** /* Private includes ----------------------------------------------------------*/
  28:Core/Src/main.c **** /* USER CODE BEGIN Includes */
  29:Core/Src/main.c **** #include <math.h>
  30:Core/Src/main.c **** #include "jy62.h"
  31:Core/Src/main.c **** #include "zigbee.h"
  32:Core/Src/main.c **** /* USER CODE END Includes */
ARM GAS  C:\Users\86183\AppData\Local\Temp\ccAkzFZ3.s 			page 2


  33:Core/Src/main.c **** 
  34:Core/Src/main.c **** /* Private typedef -----------------------------------------------------------*/
  35:Core/Src/main.c **** /* USER CODE BEGIN PTD */
  36:Core/Src/main.c **** /* USER CODE END PTD */
  37:Core/Src/main.c **** 
  38:Core/Src/main.c **** /* Private define ------------------------------------------------------------*/
  39:Core/Src/main.c **** /* USER CODE BEGIN PD */
  40:Core/Src/main.c **** /* USER CODE END PD */
  41:Core/Src/main.c **** 
  42:Core/Src/main.c **** /* Private macro -------------------------------------------------------------*/
  43:Core/Src/main.c **** /* USER CODE BEGIN PM */
  44:Core/Src/main.c **** 
  45:Core/Src/main.c **** /* USER CODE END PM */
  46:Core/Src/main.c **** 
  47:Core/Src/main.c **** /* Private variables ---------------------------------------------------------*/
  48:Core/Src/main.c **** 
  49:Core/Src/main.c **** /* USER CODE BEGIN PV */
  50:Core/Src/main.c **** /* USER CODE END PV */
  51:Core/Src/main.c **** 
  52:Core/Src/main.c **** /* Private function prototypes -----------------------------------------------*/
  53:Core/Src/main.c **** void SystemClock_Config(void);
  54:Core/Src/main.c **** /* USER CODE BEGIN PFP */
  55:Core/Src/main.c **** 
  56:Core/Src/main.c **** /* USER CODE END PFP */
  57:Core/Src/main.c **** 
  58:Core/Src/main.c **** /* Private user code ---------------------------------------------------------*/
  59:Core/Src/main.c **** /* USER CODE BEGIN 0 */
  60:Core/Src/main.c **** #define Turn_Angle_Bias 10
  61:Core/Src/main.c **** #define PID_MAX 900
  62:Core/Src/main.c **** #define PID_MIN 0
  63:Core/Src/main.c **** #define GET_PACKAGE 0
  64:Core/Src/main.c **** #define PUT_PACKAGE 1
  65:Core/Src/main.c **** #define SET_BEACON 2
  66:Core/Src/main.c **** #define EMPTY_STATE 3
  67:Core/Src/main.c **** #define TIME_UP 4
  68:Core/Src/main.c **** #define sq(x) ((x) * (x))
  69:Core/Src/main.c **** 
  70:Core/Src/main.c **** float packageX[2], packageY[2];
  71:Core/Src/main.c **** /*PID参数----------------------------------------------------------------------*/
  72:Core/Src/main.c **** float INTEGRAL[4] = {0, 0, 0, 0}, pre_err[4] = {0, 0, 0, 0};
  73:Core/Src/main.c **** const float Kp[4] = {40, 40, 40, 40}, Ki[4] = {0.2, 0.2, 0.2, 0.2}, Kd[4] = {100, 100, 100, 100};
  74:Core/Src/main.c **** float pid[4] = {0, 0, 0, 0};
  75:Core/Src/main.c **** float target[4] = {20, 20, 20, 20};
  76:Core/Src/main.c **** 
  77:Core/Src/main.c **** float distance;
  78:Core/Src/main.c **** 
  79:Core/Src/main.c **** float BeaconDir[3][2] = {{64, 64}, {192, 64}, {128, 200}}; // 信标坐标
  80:Core/Src/main.c **** uint8_t STATE;
  81:Core/Src/main.c **** uint8_t isInitialMinePark = 0;
  82:Core/Src/main.c **** float angle0;
  83:Core/Src/main.c **** float absoluteAngle;
  84:Core/Src/main.c **** 
  85:Core/Src/main.c **** struct PARK
  86:Core/Src/main.c **** {
  87:Core/Src/main.c ****   float x, y;
  88:Core/Src/main.c ****   uint16_t mineType;
  89:Core/Src/main.c **** };
ARM GAS  C:\Users\86183\AppData\Local\Temp\ccAkzFZ3.s 			page 3


  90:Core/Src/main.c **** 
  91:Core/Src/main.c **** struct PARK Park[11] = {{15, 15, 0}, {127, 15, 0}, {239, 15, 0}, {239, 127, 0}, {239, 239, 0}, {127
  92:Core/Src/main.c **** 
  93:Core/Src/main.c **** void clearDistance()
  94:Core/Src/main.c **** {
  27              		.loc 1 94 1 view -0
  28              		.cfi_startproc
  29              		@ args = 0, pretend = 0, frame = 0
  30              		@ frame_needed = 0, uses_anonymous_args = 0
  31              		@ link register save eliminated.
  95:Core/Src/main.c ****   distance = 0;
  32              		.loc 1 95 3 view .LVU1
  33              		.loc 1 95 12 is_stmt 0 view .LVU2
  34 0000 014B     		ldr	r3, .L2
  35 0002 0022     		movs	r2, #0
  36 0004 1A60     		str	r2, [r3]	@ float
  96:Core/Src/main.c **** }
  37              		.loc 1 96 1 view .LVU3
  38 0006 7047     		bx	lr
  39              	.L3:
  40              		.align	2
  41              	.L2:
  42 0008 00000000 		.word	.LANCHOR0
  43              		.cfi_endproc
  44              	.LFE65:
  46              		.section	.text.getDistance,"ax",%progbits
  47              		.align	1
  48              		.global	getDistance
  49              		.syntax unified
  50              		.thumb
  51              		.thumb_func
  52              		.fpu softvfp
  54              	getDistance:
  55              	.LFB66:
  97:Core/Src/main.c **** 
  98:Core/Src/main.c **** float getDistance()
  99:Core/Src/main.c **** {
  56              		.loc 1 99 1 is_stmt 1 view -0
  57              		.cfi_startproc
  58              		@ args = 0, pretend = 0, frame = 0
  59              		@ frame_needed = 0, uses_anonymous_args = 0
  60              		@ link register save eliminated.
 100:Core/Src/main.c ****   return distance;
  61              		.loc 1 100 3 view .LVU5
 101:Core/Src/main.c **** }
  62              		.loc 1 101 1 is_stmt 0 view .LVU6
  63 0000 014B     		ldr	r3, .L5
  64 0002 1868     		ldr	r0, [r3]	@ float
  65 0004 7047     		bx	lr
  66              	.L6:
  67 0006 00BF     		.align	2
  68              	.L5:
  69 0008 00000000 		.word	.LANCHOR0
  70              		.cfi_endproc
  71              	.LFE66:
  73              		.global	__aeabi_fsub
  74              		.global	__aeabi_fmul
ARM GAS  C:\Users\86183\AppData\Local\Temp\ccAkzFZ3.s 			page 4


  75              		.global	__aeabi_fadd
  76              		.global	__aeabi_fcmpgt
  77              		.global	__aeabi_fdiv
  78              		.global	__aeabi_fcmplt
  79              		.section	.text.PID,"ax",%progbits
  80              		.align	1
  81              		.global	PID
  82              		.syntax unified
  83              		.thumb
  84              		.thumb_func
  85              		.fpu softvfp
  87              	PID:
  88              	.LVL0:
  89              	.LFB67:
 102:Core/Src/main.c **** 
 103:Core/Src/main.c **** float PID(float in, float target, int i)
 104:Core/Src/main.c **** {
  90              		.loc 1 104 1 is_stmt 1 view -0
  91              		.cfi_startproc
  92              		@ args = 0, pretend = 0, frame = 0
  93              		@ frame_needed = 0, uses_anonymous_args = 0
  94              		.loc 1 104 1 is_stmt 0 view .LVU8
  95 0000 F8B5     		push	{r3, r4, r5, r6, r7, lr}
  96              	.LCFI0:
  97              		.cfi_def_cfa_offset 24
  98              		.cfi_offset 3, -24
  99              		.cfi_offset 4, -20
 100              		.cfi_offset 5, -16
 101              		.cfi_offset 6, -12
 102              		.cfi_offset 7, -8
 103              		.cfi_offset 14, -4
 104 0002 0B46     		mov	r3, r1
 105 0004 1446     		mov	r4, r2
 105:Core/Src/main.c ****   float err = target - in;
 106              		.loc 1 105 3 is_stmt 1 view .LVU9
 107              		.loc 1 105 9 is_stmt 0 view .LVU10
 108 0006 0146     		mov	r1, r0
 109              	.LVL1:
 110              		.loc 1 105 9 view .LVU11
 111 0008 1846     		mov	r0, r3
 112              	.LVL2:
 113              		.loc 1 105 9 view .LVU12
 114 000a FFF7FEFF 		bl	__aeabi_fsub
 115              	.LVL3:
 116              		.loc 1 105 9 view .LVU13
 117 000e 0546     		mov	r5, r0
 118              	.LVL4:
 106:Core/Src/main.c ****   INTEGRAL[i] += err * 20;
 119              		.loc 1 106 3 is_stmt 1 view .LVU14
 120              		.loc 1 106 22 is_stmt 0 view .LVU15
 121 0010 2649     		ldr	r1, .L16
 122 0012 FFF7FEFF 		bl	__aeabi_fmul
 123              	.LVL5:
 124              		.loc 1 106 15 view .LVU16
 125 0016 264E     		ldr	r6, .L16+4
 126 0018 56F82410 		ldr	r1, [r6, r4, lsl #2]	@ float
 127 001c FFF7FEFF 		bl	__aeabi_fadd
ARM GAS  C:\Users\86183\AppData\Local\Temp\ccAkzFZ3.s 			page 5


 128              	.LVL6:
 129 0020 46F82400 		str	r0, [r6, r4, lsl #2]	@ float
 107:Core/Src/main.c ****   if (INTEGRAL[i] > 8000)
 130              		.loc 1 107 3 is_stmt 1 view .LVU17
 131              		.loc 1 107 6 is_stmt 0 view .LVU18
 132 0024 2349     		ldr	r1, .L16+8
 133 0026 FFF7FEFF 		bl	__aeabi_fcmpgt
 134              	.LVL7:
 135 002a 10B1     		cbz	r0, .L8
 108:Core/Src/main.c ****     INTEGRAL[i] = 8000;
 136              		.loc 1 108 5 is_stmt 1 view .LVU19
 137              		.loc 1 108 17 is_stmt 0 view .LVU20
 138 002c 214A     		ldr	r2, .L16+8
 139 002e 46F82420 		str	r2, [r6, r4, lsl #2]	@ float
 140              	.L8:
 109:Core/Src/main.c ****   float derr = (err - pre_err[i]) / 20;
 141              		.loc 1 109 3 is_stmt 1 view .LVU21
 142              		.loc 1 109 30 is_stmt 0 view .LVU22
 143 0032 214F     		ldr	r7, .L16+12
 144              		.loc 1 109 21 view .LVU23
 145 0034 57F82410 		ldr	r1, [r7, r4, lsl #2]	@ float
 146 0038 2846     		mov	r0, r5
 147 003a FFF7FEFF 		bl	__aeabi_fsub
 148              	.LVL8:
 149              		.loc 1 109 9 view .LVU24
 150 003e 1B49     		ldr	r1, .L16
 151 0040 FFF7FEFF 		bl	__aeabi_fdiv
 152              	.LVL9:
 153 0044 0646     		mov	r6, r0
 154              	.LVL10:
 110:Core/Src/main.c ****   pre_err[i] = err;
 155              		.loc 1 110 3 is_stmt 1 view .LVU25
 156              		.loc 1 110 14 is_stmt 0 view .LVU26
 157 0046 47F82450 		str	r5, [r7, r4, lsl #2]	@ float
 111:Core/Src/main.c ****   pid[i] = (Kp[i] * err) + (Ki[i] * INTEGRAL[i]) + (Kd[i] * derr);
 158              		.loc 1 111 3 is_stmt 1 view .LVU27
 159              		.loc 1 111 19 is_stmt 0 view .LVU28
 160 004a 2946     		mov	r1, r5
 161 004c 1B4B     		ldr	r3, .L16+16
 162 004e 53F82400 		ldr	r0, [r3, r4, lsl #2]	@ float
 163              	.LVL11:
 164              		.loc 1 111 19 view .LVU29
 165 0052 FFF7FEFF 		bl	__aeabi_fmul
 166              	.LVL12:
 167 0056 0546     		mov	r5, r0
 168              	.LVL13:
 169              		.loc 1 111 35 view .LVU30
 170 0058 154B     		ldr	r3, .L16+4
 171 005a 53F82410 		ldr	r1, [r3, r4, lsl #2]	@ float
 172 005e 184B     		ldr	r3, .L16+20
 173 0060 53F82400 		ldr	r0, [r3, r4, lsl #2]	@ float
 174 0064 FFF7FEFF 		bl	__aeabi_fmul
 175              	.LVL14:
 176 0068 0146     		mov	r1, r0
 177              		.loc 1 111 26 view .LVU31
 178 006a 2846     		mov	r0, r5
 179 006c FFF7FEFF 		bl	__aeabi_fadd
ARM GAS  C:\Users\86183\AppData\Local\Temp\ccAkzFZ3.s 			page 6


 180              	.LVL15:
 181 0070 0546     		mov	r5, r0
 182              		.loc 1 111 59 view .LVU32
 183 0072 3146     		mov	r1, r6
 184 0074 134B     		ldr	r3, .L16+24
 185 0076 53F82400 		ldr	r0, [r3, r4, lsl #2]	@ float
 186 007a FFF7FEFF 		bl	__aeabi_fmul
 187              	.LVL16:
 188 007e 0146     		mov	r1, r0
 189              		.loc 1 111 50 view .LVU33
 190 0080 2846     		mov	r0, r5
 191 0082 FFF7FEFF 		bl	__aeabi_fadd
 192              	.LVL17:
 193 0086 0546     		mov	r5, r0
 194              		.loc 1 111 10 view .LVU34
 195 0088 0F4B     		ldr	r3, .L16+28
 196 008a 43F82400 		str	r0, [r3, r4, lsl #2]	@ float
 112:Core/Src/main.c ****   float output;
 197              		.loc 1 112 3 is_stmt 1 view .LVU35
 113:Core/Src/main.c ****   if (pid[i] < PID_MIN)
 198              		.loc 1 113 3 view .LVU36
 199              		.loc 1 113 6 is_stmt 0 view .LVU37
 200 008e 0021     		movs	r1, #0
 201 0090 FFF7FEFF 		bl	__aeabi_fcmplt
 202              	.LVL18:
 203 0094 30B9     		cbnz	r0, .L12
 114:Core/Src/main.c ****     output = PID_MIN;
 115:Core/Src/main.c ****   else if (pid[i] > PID_MAX)
 204              		.loc 1 115 8 is_stmt 1 view .LVU38
 205              		.loc 1 115 11 is_stmt 0 view .LVU39
 206 0096 0D49     		ldr	r1, .L16+32
 207 0098 2846     		mov	r0, r5
 208 009a FFF7FEFF 		bl	__aeabi_fcmpgt
 209              	.LVL19:
 210 009e 10B1     		cbz	r0, .L7
 116:Core/Src/main.c ****     output = PID_MAX;
 211              		.loc 1 116 12 view .LVU40
 212 00a0 0A4D     		ldr	r5, .L16+32
 213 00a2 00E0     		b	.L7
 214              	.L12:
 114:Core/Src/main.c ****     output = PID_MIN;
 215              		.loc 1 114 12 view .LVU41
 216 00a4 0025     		movs	r5, #0
 217              	.LVL20:
 117:Core/Src/main.c ****   else
 118:Core/Src/main.c ****     output = pid[i];
 119:Core/Src/main.c ****   return output;
 218              		.loc 1 119 3 is_stmt 1 view .LVU42
 219              	.L7:
 120:Core/Src/main.c **** }
 220              		.loc 1 120 1 is_stmt 0 view .LVU43
 221 00a6 2846     		mov	r0, r5
 222 00a8 F8BD     		pop	{r3, r4, r5, r6, r7, pc}
 223              	.LVL21:
 224              	.L17:
 225              		.loc 1 120 1 view .LVU44
 226 00aa 00BF     		.align	2
ARM GAS  C:\Users\86183\AppData\Local\Temp\ccAkzFZ3.s 			page 7


 227              	.L16:
 228 00ac 0000A041 		.word	1101004800
 229 00b0 00000000 		.word	.LANCHOR1
 230 00b4 0000FA45 		.word	1174011904
 231 00b8 00000000 		.word	.LANCHOR2
 232 00bc 00000000 		.word	.LANCHOR3
 233 00c0 00000000 		.word	.LANCHOR4
 234 00c4 00000000 		.word	.LANCHOR5
 235 00c8 00000000 		.word	.LANCHOR6
 236 00cc 00006144 		.word	1147207680
 237              		.cfi_endproc
 238              	.LFE67:
 240              		.section	.text.Calibrate_Angle,"ax",%progbits
 241              		.align	1
 242              		.global	Calibrate_Angle
 243              		.syntax unified
 244              		.thumb
 245              		.thumb_func
 246              		.fpu softvfp
 248              	Calibrate_Angle:
 249              	.LFB68:
 121:Core/Src/main.c **** 
 122:Core/Src/main.c **** void Calibrate_Angle()
 123:Core/Src/main.c **** {
 250              		.loc 1 123 1 is_stmt 1 view -0
 251              		.cfi_startproc
 252              		@ args = 0, pretend = 0, frame = 0
 253              		@ frame_needed = 0, uses_anonymous_args = 0
 254 0000 38B5     		push	{r3, r4, r5, lr}
 255              	.LCFI1:
 256              		.cfi_def_cfa_offset 16
 257              		.cfi_offset 3, -16
 258              		.cfi_offset 4, -12
 259              		.cfi_offset 5, -8
 260              		.cfi_offset 14, -4
 124:Core/Src/main.c ****   float temp = GetYaw();
 261              		.loc 1 124 3 view .LVU46
 262              		.loc 1 124 16 is_stmt 0 view .LVU47
 263 0002 FFF7FEFF 		bl	GetYaw
 264              	.LVL22:
 265 0006 0446     		mov	r4, r0
 266              	.LVL23:
 125:Core/Src/main.c ****   angle0 = temp / 20;
 267              		.loc 1 125 3 is_stmt 1 view .LVU48
 268              		.loc 1 125 17 is_stmt 0 view .LVU49
 269 0008 2F49     		ldr	r1, .L37
 270 000a FFF7FEFF 		bl	__aeabi_fdiv
 271              	.LVL24:
 272              		.loc 1 125 10 view .LVU50
 273 000e 2F4B     		ldr	r3, .L37+4
 274 0010 1860     		str	r0, [r3]	@ float
 126:Core/Src/main.c ****   if (temp < 60)
 275              		.loc 1 126 3 is_stmt 1 view .LVU51
 276              		.loc 1 126 6 is_stmt 0 view .LVU52
 277 0012 2F49     		ldr	r1, .L37+8
 278 0014 2046     		mov	r0, r4
 279 0016 FFF7FEFF 		bl	__aeabi_fcmplt
ARM GAS  C:\Users\86183\AppData\Local\Temp\ccAkzFZ3.s 			page 8


 280              	.LVL25:
 281 001a 0028     		cmp	r0, #0
 282 001c 30D1     		bne	.L31
 127:Core/Src/main.c ****     for (int i = 1; i < 20; i++)
 128:Core/Src/main.c ****     {
 129:Core/Src/main.c ****       if ((temp = GetYaw()) > 300)
 130:Core/Src/main.c ****         temp -= 360;
 131:Core/Src/main.c ****       angle0 += temp / 20;
 132:Core/Src/main.c ****     }
 133:Core/Src/main.c ****   else if (temp > 300)
 283              		.loc 1 133 8 is_stmt 1 view .LVU53
 284              		.loc 1 133 11 is_stmt 0 view .LVU54
 285 001e 2D49     		ldr	r1, .L37+12
 286 0020 2046     		mov	r0, r4
 287 0022 FFF7FEFF 		bl	__aeabi_fcmpgt
 288              	.LVL26:
 289 0026 0028     		cmp	r0, #0
 290 0028 47D1     		bne	.L32
 291              	.LBB4:
 134:Core/Src/main.c ****     for (int i = 1; i < 20; i++)
 135:Core/Src/main.c ****     {
 136:Core/Src/main.c ****       if ((temp = GetYaw()) < 60)
 137:Core/Src/main.c ****         temp += 360;
 138:Core/Src/main.c ****       angle0 += temp / 20;
 139:Core/Src/main.c ****     }
 140:Core/Src/main.c ****   else
 141:Core/Src/main.c ****     for (int i = 1; i < 20; i++)
 292              		.loc 1 141 14 view .LVU55
 293 002a 0124     		movs	r4, #1
 294              	.LVL27:
 295              	.L26:
 296              		.loc 1 141 21 is_stmt 1 discriminator 1 view .LVU56
 297              		.loc 1 141 5 is_stmt 0 discriminator 1 view .LVU57
 298 002c 132C     		cmp	r4, #19
 299 002e 46DC     		bgt	.L24
 142:Core/Src/main.c ****       angle0 += GetYaw() / 20;
 300              		.loc 1 142 7 is_stmt 1 discriminator 3 view .LVU58
 301              		.loc 1 142 17 is_stmt 0 discriminator 3 view .LVU59
 302 0030 FFF7FEFF 		bl	GetYaw
 303              	.LVL28:
 304              		.loc 1 142 26 discriminator 3 view .LVU60
 305 0034 2449     		ldr	r1, .L37
 306 0036 FFF7FEFF 		bl	__aeabi_fdiv
 307              	.LVL29:
 308 003a 0146     		mov	r1, r0
 309              		.loc 1 142 14 discriminator 3 view .LVU61
 310 003c 234D     		ldr	r5, .L37+4
 311 003e 2868     		ldr	r0, [r5]	@ float
 312 0040 FFF7FEFF 		bl	__aeabi_fadd
 313              	.LVL30:
 314 0044 2860     		str	r0, [r5]	@ float
 141:Core/Src/main.c ****       angle0 += GetYaw() / 20;
 315              		.loc 1 141 29 is_stmt 1 discriminator 3 view .LVU62
 141:Core/Src/main.c ****       angle0 += GetYaw() / 20;
 316              		.loc 1 141 30 is_stmt 0 discriminator 3 view .LVU63
 317 0046 0134     		adds	r4, r4, #1
 318              	.LVL31:
ARM GAS  C:\Users\86183\AppData\Local\Temp\ccAkzFZ3.s 			page 9


 141:Core/Src/main.c ****       angle0 += GetYaw() / 20;
 319              		.loc 1 141 30 discriminator 3 view .LVU64
 320 0048 F0E7     		b	.L26
 321              	.LVL32:
 322              	.L21:
 141:Core/Src/main.c ****       angle0 += GetYaw() / 20;
 323              		.loc 1 141 30 discriminator 3 view .LVU65
 324              	.LBE4:
 325              	.LBB5:
 131:Core/Src/main.c ****     }
 326              		.loc 1 131 7 is_stmt 1 discriminator 2 view .LVU66
 131:Core/Src/main.c ****     }
 327              		.loc 1 131 22 is_stmt 0 discriminator 2 view .LVU67
 328 004a 1F49     		ldr	r1, .L37
 329 004c 2046     		mov	r0, r4
 330 004e FFF7FEFF 		bl	__aeabi_fdiv
 331              	.LVL33:
 332 0052 0146     		mov	r1, r0
 131:Core/Src/main.c ****     }
 333              		.loc 1 131 14 discriminator 2 view .LVU68
 334 0054 1D4C     		ldr	r4, .L37+4
 335              	.LVL34:
 131:Core/Src/main.c ****     }
 336              		.loc 1 131 14 discriminator 2 view .LVU69
 337 0056 2068     		ldr	r0, [r4]	@ float
 338 0058 FFF7FEFF 		bl	__aeabi_fadd
 339              	.LVL35:
 340 005c 2060     		str	r0, [r4]	@ float
 127:Core/Src/main.c ****     {
 341              		.loc 1 127 29 is_stmt 1 discriminator 2 view .LVU70
 127:Core/Src/main.c ****     {
 342              		.loc 1 127 30 is_stmt 0 discriminator 2 view .LVU71
 343 005e 0135     		adds	r5, r5, #1
 344              	.LVL36:
 345              	.L19:
 127:Core/Src/main.c ****     {
 346              		.loc 1 127 21 is_stmt 1 discriminator 1 view .LVU72
 127:Core/Src/main.c ****     {
 347              		.loc 1 127 5 is_stmt 0 discriminator 1 view .LVU73
 348 0060 132D     		cmp	r5, #19
 349 0062 2CDC     		bgt	.L24
 129:Core/Src/main.c ****         temp -= 360;
 350              		.loc 1 129 7 is_stmt 1 view .LVU74
 129:Core/Src/main.c ****         temp -= 360;
 351              		.loc 1 129 19 is_stmt 0 view .LVU75
 352 0064 FFF7FEFF 		bl	GetYaw
 353              	.LVL37:
 354 0068 0446     		mov	r4, r0
 355              	.LVL38:
 129:Core/Src/main.c ****         temp -= 360;
 356              		.loc 1 129 10 view .LVU76
 357 006a 1A49     		ldr	r1, .L37+12
 358 006c FFF7FEFF 		bl	__aeabi_fcmpgt
 359              	.LVL39:
 129:Core/Src/main.c ****         temp -= 360;
 360              		.loc 1 129 10 view .LVU77
 361 0070 0028     		cmp	r0, #0
ARM GAS  C:\Users\86183\AppData\Local\Temp\ccAkzFZ3.s 			page 10


 362 0072 EAD0     		beq	.L21
 130:Core/Src/main.c ****       angle0 += temp / 20;
 363              		.loc 1 130 9 is_stmt 1 view .LVU78
 130:Core/Src/main.c ****       angle0 += temp / 20;
 364              		.loc 1 130 14 is_stmt 0 view .LVU79
 365 0074 1849     		ldr	r1, .L37+16
 366 0076 2046     		mov	r0, r4
 367 0078 FFF7FEFF 		bl	__aeabi_fsub
 368              	.LVL40:
 369 007c 0446     		mov	r4, r0
 370              	.LVL41:
 130:Core/Src/main.c ****       angle0 += temp / 20;
 371              		.loc 1 130 14 view .LVU80
 372 007e E4E7     		b	.L21
 373              	.LVL42:
 374              	.L31:
 127:Core/Src/main.c ****     {
 375              		.loc 1 127 14 view .LVU81
 376 0080 0125     		movs	r5, #1
 377 0082 EDE7     		b	.L19
 378              	.LVL43:
 379              	.L27:
 127:Core/Src/main.c ****     {
 380              		.loc 1 127 14 view .LVU82
 381              	.LBE5:
 382              	.LBB6:
 138:Core/Src/main.c ****     }
 383              		.loc 1 138 7 is_stmt 1 discriminator 2 view .LVU83
 138:Core/Src/main.c ****     }
 384              		.loc 1 138 22 is_stmt 0 discriminator 2 view .LVU84
 385 0084 1049     		ldr	r1, .L37
 386 0086 2046     		mov	r0, r4
 387 0088 FFF7FEFF 		bl	__aeabi_fdiv
 388              	.LVL44:
 389 008c 0146     		mov	r1, r0
 138:Core/Src/main.c ****     }
 390              		.loc 1 138 14 discriminator 2 view .LVU85
 391 008e 0F4C     		ldr	r4, .L37+4
 392              	.LVL45:
 138:Core/Src/main.c ****     }
 393              		.loc 1 138 14 discriminator 2 view .LVU86
 394 0090 2068     		ldr	r0, [r4]	@ float
 395 0092 FFF7FEFF 		bl	__aeabi_fadd
 396              	.LVL46:
 397 0096 2060     		str	r0, [r4]	@ float
 134:Core/Src/main.c ****     {
 398              		.loc 1 134 29 is_stmt 1 discriminator 2 view .LVU87
 134:Core/Src/main.c ****     {
 399              		.loc 1 134 30 is_stmt 0 discriminator 2 view .LVU88
 400 0098 0135     		adds	r5, r5, #1
 401              	.LVL47:
 402              	.L25:
 134:Core/Src/main.c ****     {
 403              		.loc 1 134 21 is_stmt 1 discriminator 1 view .LVU89
 134:Core/Src/main.c ****     {
 404              		.loc 1 134 5 is_stmt 0 discriminator 1 view .LVU90
 405 009a 132D     		cmp	r5, #19
ARM GAS  C:\Users\86183\AppData\Local\Temp\ccAkzFZ3.s 			page 11


 406 009c 0FDC     		bgt	.L24
 136:Core/Src/main.c ****         temp += 360;
 407              		.loc 1 136 7 is_stmt 1 view .LVU91
 136:Core/Src/main.c ****         temp += 360;
 408              		.loc 1 136 19 is_stmt 0 view .LVU92
 409 009e FFF7FEFF 		bl	GetYaw
 410              	.LVL48:
 411 00a2 0446     		mov	r4, r0
 412              	.LVL49:
 136:Core/Src/main.c ****         temp += 360;
 413              		.loc 1 136 10 view .LVU93
 414 00a4 0A49     		ldr	r1, .L37+8
 415 00a6 FFF7FEFF 		bl	__aeabi_fcmplt
 416              	.LVL50:
 136:Core/Src/main.c ****         temp += 360;
 417              		.loc 1 136 10 view .LVU94
 418 00aa 0028     		cmp	r0, #0
 419 00ac EAD0     		beq	.L27
 137:Core/Src/main.c ****       angle0 += temp / 20;
 420              		.loc 1 137 9 is_stmt 1 view .LVU95
 137:Core/Src/main.c ****       angle0 += temp / 20;
 421              		.loc 1 137 14 is_stmt 0 view .LVU96
 422 00ae 0A49     		ldr	r1, .L37+16
 423 00b0 2046     		mov	r0, r4
 424 00b2 FFF7FEFF 		bl	__aeabi_fadd
 425              	.LVL51:
 426 00b6 0446     		mov	r4, r0
 427              	.LVL52:
 137:Core/Src/main.c ****       angle0 += temp / 20;
 428              		.loc 1 137 14 view .LVU97
 429 00b8 E4E7     		b	.L27
 430              	.LVL53:
 431              	.L32:
 134:Core/Src/main.c ****     {
 432              		.loc 1 134 14 view .LVU98
 433 00ba 0125     		movs	r5, #1
 434 00bc EDE7     		b	.L25
 435              	.LVL54:
 436              	.L24:
 134:Core/Src/main.c ****     {
 437              		.loc 1 134 14 view .LVU99
 438              	.LBE6:
 143:Core/Src/main.c ****   absoluteAngle = angle0;
 439              		.loc 1 143 3 is_stmt 1 view .LVU100
 440              		.loc 1 143 17 is_stmt 0 view .LVU101
 441 00be 034B     		ldr	r3, .L37+4
 442 00c0 1A68     		ldr	r2, [r3]	@ float
 443 00c2 064B     		ldr	r3, .L37+20
 444 00c4 1A60     		str	r2, [r3]	@ float
 144:Core/Src/main.c **** }
 445              		.loc 1 144 1 view .LVU102
 446 00c6 38BD     		pop	{r3, r4, r5, pc}
 447              	.L38:
 448              		.align	2
 449              	.L37:
 450 00c8 0000A041 		.word	1101004800
 451 00cc 00000000 		.word	.LANCHOR7
ARM GAS  C:\Users\86183\AppData\Local\Temp\ccAkzFZ3.s 			page 12


 452 00d0 00007042 		.word	1114636288
 453 00d4 00009643 		.word	1133903872
 454 00d8 0000B443 		.word	1135869952
 455 00dc 00000000 		.word	.LANCHOR8
 456              		.cfi_endproc
 457              	.LFE68:
 459              		.section	.text.getAngle,"ax",%progbits
 460              		.align	1
 461              		.global	getAngle
 462              		.syntax unified
 463              		.thumb
 464              		.thumb_func
 465              		.fpu softvfp
 467              	getAngle:
 468              	.LFB69:
 145:Core/Src/main.c **** 
 146:Core/Src/main.c **** float getAngle()
 147:Core/Src/main.c **** {
 469              		.loc 1 147 1 is_stmt 1 view -0
 470              		.cfi_startproc
 471              		@ args = 0, pretend = 0, frame = 0
 472              		@ frame_needed = 0, uses_anonymous_args = 0
 473 0000 10B5     		push	{r4, lr}
 474              	.LCFI2:
 475              		.cfi_def_cfa_offset 8
 476              		.cfi_offset 4, -8
 477              		.cfi_offset 14, -4
 148:Core/Src/main.c ****   float temp = GetYaw() - angle0;
 478              		.loc 1 148 3 view .LVU104
 479              		.loc 1 148 16 is_stmt 0 view .LVU105
 480 0002 FFF7FEFF 		bl	GetYaw
 481              	.LVL55:
 482              		.loc 1 148 9 view .LVU106
 483 0006 0E4B     		ldr	r3, .L48
 484 0008 1968     		ldr	r1, [r3]	@ float
 485 000a FFF7FEFF 		bl	__aeabi_fsub
 486              	.LVL56:
 487 000e 0446     		mov	r4, r0
 488              	.LVL57:
 149:Core/Src/main.c ****   return temp > 180 ? temp - 360 : temp < -180 ? temp + 360
 489              		.loc 1 149 3 is_stmt 1 view .LVU107
 490              		.loc 1 149 34 is_stmt 0 view .LVU108
 491 0010 0C49     		ldr	r1, .L48+4
 492 0012 FFF7FEFF 		bl	__aeabi_fcmpgt
 493              	.LVL58:
 494              		.loc 1 149 34 view .LVU109
 495 0016 30B1     		cbz	r0, .L46
 496              		.loc 1 149 34 discriminator 1 view .LVU110
 497 0018 0B49     		ldr	r1, .L48+8
 498 001a 2046     		mov	r0, r4
 499 001c FFF7FEFF 		bl	__aeabi_fsub
 500              	.LVL59:
 501 0020 0446     		mov	r4, r0
 502              	.LVL60:
 503              	.L39:
 150:Core/Src/main.c ****                                                : temp;
 151:Core/Src/main.c **** }
ARM GAS  C:\Users\86183\AppData\Local\Temp\ccAkzFZ3.s 			page 13


 504              		.loc 1 151 1 view .LVU111
 505 0022 2046     		mov	r0, r4
 506 0024 10BD     		pop	{r4, pc}
 507              	.LVL61:
 508              	.L46:
 150:Core/Src/main.c ****                                                : temp;
 509              		.loc 1 150 48 view .LVU112
 510 0026 0949     		ldr	r1, .L48+12
 511 0028 2046     		mov	r0, r4
 512 002a FFF7FEFF 		bl	__aeabi_fcmplt
 513              	.LVL62:
 514 002e 0028     		cmp	r0, #0
 515 0030 F7D0     		beq	.L39
 150:Core/Src/main.c ****                                                : temp;
 516              		.loc 1 150 48 discriminator 1 view .LVU113
 517 0032 0549     		ldr	r1, .L48+8
 518 0034 2046     		mov	r0, r4
 519 0036 FFF7FEFF 		bl	__aeabi_fadd
 520              	.LVL63:
 521 003a 0446     		mov	r4, r0
 522              	.LVL64:
 149:Core/Src/main.c ****   return temp > 180 ? temp - 360 : temp < -180 ? temp + 360
 523              		.loc 1 149 34 discriminator 1 view .LVU114
 524 003c F1E7     		b	.L39
 525              	.L49:
 526 003e 00BF     		.align	2
 527              	.L48:
 528 0040 00000000 		.word	.LANCHOR7
 529 0044 00003443 		.word	1127481344
 530 0048 0000B443 		.word	1135869952
 531 004c 000034C3 		.word	-1020002304
 532              		.cfi_endproc
 533              	.LFE69:
 535              		.section	.text.Set_Left_Direction,"ax",%progbits
 536              		.align	1
 537              		.global	Set_Left_Direction
 538              		.syntax unified
 539              		.thumb
 540              		.thumb_func
 541              		.fpu softvfp
 543              	Set_Left_Direction:
 544              	.LVL65:
 545              	.LFB70:
 152:Core/Src/main.c **** 
 153:Core/Src/main.c **** void Set_Left_Direction(int direction)
 154:Core/Src/main.c **** {
 546              		.loc 1 154 1 is_stmt 1 view -0
 547              		.cfi_startproc
 548              		@ args = 0, pretend = 0, frame = 0
 549              		@ frame_needed = 0, uses_anonymous_args = 0
 550              		.loc 1 154 1 is_stmt 0 view .LVU116
 551 0000 38B5     		push	{r3, r4, r5, lr}
 552              	.LCFI3:
 553              		.cfi_def_cfa_offset 16
 554              		.cfi_offset 3, -16
 555              		.cfi_offset 4, -12
 556              		.cfi_offset 5, -8
ARM GAS  C:\Users\86183\AppData\Local\Temp\ccAkzFZ3.s 			page 14


 557              		.cfi_offset 14, -4
 558 0002 0446     		mov	r4, r0
 155:Core/Src/main.c ****   HAL_GPIO_WritePin(IN1A_GPIO_Port, IN1A_Pin, RESET);
 559              		.loc 1 155 3 is_stmt 1 view .LVU117
 560 0004 274D     		ldr	r5, .L57
 561 0006 0022     		movs	r2, #0
 562 0008 4FF48051 		mov	r1, #4096
 563 000c 2846     		mov	r0, r5
 564              	.LVL66:
 565              		.loc 1 155 3 is_stmt 0 view .LVU118
 566 000e FFF7FEFF 		bl	HAL_GPIO_WritePin
 567              	.LVL67:
 156:Core/Src/main.c ****   HAL_GPIO_WritePin(IN1B_GPIO_Port, IN1B_Pin, RESET);
 568              		.loc 1 156 3 is_stmt 1 view .LVU119
 569 0012 0022     		movs	r2, #0
 570 0014 4FF40061 		mov	r1, #2048
 571 0018 2846     		mov	r0, r5
 572 001a FFF7FEFF 		bl	HAL_GPIO_WritePin
 573              	.LVL68:
 157:Core/Src/main.c ****   HAL_GPIO_WritePin(IN2A_GPIO_Port, IN2A_Pin, RESET);
 574              		.loc 1 157 3 view .LVU120
 575 001e A5F58065 		sub	r5, r5, #1024
 576 0022 0022     		movs	r2, #0
 577 0024 0121     		movs	r1, #1
 578 0026 2846     		mov	r0, r5
 579 0028 FFF7FEFF 		bl	HAL_GPIO_WritePin
 580              	.LVL69:
 158:Core/Src/main.c ****   HAL_GPIO_WritePin(IN2B_GPIO_Port, IN2B_Pin, RESET);
 581              		.loc 1 158 3 view .LVU121
 582 002c 0022     		movs	r2, #0
 583 002e 0221     		movs	r1, #2
 584 0030 2846     		mov	r0, r5
 585 0032 FFF7FEFF 		bl	HAL_GPIO_WritePin
 586              	.LVL70:
 159:Core/Src/main.c ****   if (direction == 1)
 587              		.loc 1 159 3 view .LVU122
 588              		.loc 1 159 6 is_stmt 0 view .LVU123
 589 0036 012C     		cmp	r4, #1
 590 0038 1CD0     		beq	.L55
 160:Core/Src/main.c ****   {
 161:Core/Src/main.c ****     HAL_GPIO_WritePin(IN1A_GPIO_Port, IN1A_Pin, SET);
 162:Core/Src/main.c ****     HAL_GPIO_WritePin(IN2B_GPIO_Port, IN2B_Pin, SET);
 163:Core/Src/main.c ****   }
 164:Core/Src/main.c ****   else if (direction == -1)
 591              		.loc 1 164 8 is_stmt 1 view .LVU124
 592              		.loc 1 164 11 is_stmt 0 view .LVU125
 593 003a B4F1FF3F 		cmp	r4, #-1
 594 003e 25D0     		beq	.L56
 165:Core/Src/main.c ****   {
 166:Core/Src/main.c ****     HAL_GPIO_WritePin(IN1B_GPIO_Port, IN1B_Pin, SET);
 167:Core/Src/main.c ****     HAL_GPIO_WritePin(IN2A_GPIO_Port, IN2A_Pin, SET);
 168:Core/Src/main.c ****   }
 169:Core/Src/main.c ****   else
 170:Core/Src/main.c ****   {
 171:Core/Src/main.c ****     HAL_GPIO_WritePin(IN1A_GPIO_Port, IN1A_Pin, SET);
 595              		.loc 1 171 5 is_stmt 1 view .LVU126
 596 0040 184C     		ldr	r4, .L57
ARM GAS  C:\Users\86183\AppData\Local\Temp\ccAkzFZ3.s 			page 15


 597              	.LVL71:
 598              		.loc 1 171 5 is_stmt 0 view .LVU127
 599 0042 0122     		movs	r2, #1
 600 0044 4FF48051 		mov	r1, #4096
 601 0048 2046     		mov	r0, r4
 602 004a FFF7FEFF 		bl	HAL_GPIO_WritePin
 603              	.LVL72:
 172:Core/Src/main.c ****     HAL_GPIO_WritePin(IN1B_GPIO_Port, IN1B_Pin, SET);
 604              		.loc 1 172 5 is_stmt 1 view .LVU128
 605 004e 0122     		movs	r2, #1
 606 0050 4FF40061 		mov	r1, #2048
 607 0054 2046     		mov	r0, r4
 608 0056 FFF7FEFF 		bl	HAL_GPIO_WritePin
 609              	.LVL73:
 173:Core/Src/main.c ****     HAL_GPIO_WritePin(IN2A_GPIO_Port, IN2A_Pin, SET);
 610              		.loc 1 173 5 view .LVU129
 611 005a A4F58064 		sub	r4, r4, #1024
 612 005e 0122     		movs	r2, #1
 613 0060 1146     		mov	r1, r2
 614 0062 2046     		mov	r0, r4
 615 0064 FFF7FEFF 		bl	HAL_GPIO_WritePin
 616              	.LVL74:
 174:Core/Src/main.c ****     HAL_GPIO_WritePin(IN2B_GPIO_Port, IN2B_Pin, SET);
 617              		.loc 1 174 5 view .LVU130
 618 0068 0122     		movs	r2, #1
 619 006a 0221     		movs	r1, #2
 620 006c 2046     		mov	r0, r4
 621 006e FFF7FEFF 		bl	HAL_GPIO_WritePin
 622              	.LVL75:
 623              	.L50:
 175:Core/Src/main.c ****   }
 176:Core/Src/main.c **** }
 624              		.loc 1 176 1 is_stmt 0 view .LVU131
 625 0072 38BD     		pop	{r3, r4, r5, pc}
 626              	.LVL76:
 627              	.L55:
 161:Core/Src/main.c ****     HAL_GPIO_WritePin(IN2B_GPIO_Port, IN2B_Pin, SET);
 628              		.loc 1 161 5 is_stmt 1 view .LVU132
 629 0074 0122     		movs	r2, #1
 630 0076 4FF48051 		mov	r1, #4096
 631 007a 0A48     		ldr	r0, .L57
 632 007c FFF7FEFF 		bl	HAL_GPIO_WritePin
 633              	.LVL77:
 162:Core/Src/main.c ****   }
 634              		.loc 1 162 5 view .LVU133
 635 0080 0122     		movs	r2, #1
 636 0082 0221     		movs	r1, #2
 637 0084 2846     		mov	r0, r5
 638 0086 FFF7FEFF 		bl	HAL_GPIO_WritePin
 639              	.LVL78:
 640 008a F2E7     		b	.L50
 641              	.L56:
 166:Core/Src/main.c ****     HAL_GPIO_WritePin(IN2A_GPIO_Port, IN2A_Pin, SET);
 642              		.loc 1 166 5 view .LVU134
 643 008c 0122     		movs	r2, #1
 644 008e 4FF40061 		mov	r1, #2048
 645 0092 0448     		ldr	r0, .L57
ARM GAS  C:\Users\86183\AppData\Local\Temp\ccAkzFZ3.s 			page 16


 646 0094 FFF7FEFF 		bl	HAL_GPIO_WritePin
 647              	.LVL79:
 167:Core/Src/main.c ****   }
 648              		.loc 1 167 5 view .LVU135
 649 0098 0122     		movs	r2, #1
 650 009a 1146     		mov	r1, r2
 651 009c 0248     		ldr	r0, .L57+4
 652 009e FFF7FEFF 		bl	HAL_GPIO_WritePin
 653              	.LVL80:
 654 00a2 E6E7     		b	.L50
 655              	.L58:
 656              		.align	2
 657              	.L57:
 658 00a4 00100140 		.word	1073811456
 659 00a8 000C0140 		.word	1073810432
 660              		.cfi_endproc
 661              	.LFE70:
 663              		.section	.text.Set_Right_Direction,"ax",%progbits
 664              		.align	1
 665              		.global	Set_Right_Direction
 666              		.syntax unified
 667              		.thumb
 668              		.thumb_func
 669              		.fpu softvfp
 671              	Set_Right_Direction:
 672              	.LVL81:
 673              	.LFB71:
 177:Core/Src/main.c **** 
 178:Core/Src/main.c **** void Set_Right_Direction(int direction)
 179:Core/Src/main.c **** {
 674              		.loc 1 179 1 view -0
 675              		.cfi_startproc
 676              		@ args = 0, pretend = 0, frame = 0
 677              		@ frame_needed = 0, uses_anonymous_args = 0
 678              		.loc 1 179 1 is_stmt 0 view .LVU137
 679 0000 38B5     		push	{r3, r4, r5, lr}
 680              	.LCFI4:
 681              		.cfi_def_cfa_offset 16
 682              		.cfi_offset 3, -16
 683              		.cfi_offset 4, -12
 684              		.cfi_offset 5, -8
 685              		.cfi_offset 14, -4
 686 0002 0446     		mov	r4, r0
 180:Core/Src/main.c ****   HAL_GPIO_WritePin(IN3A_GPIO_Port, IN3A_Pin, RESET);
 687              		.loc 1 180 3 is_stmt 1 view .LVU138
 688 0004 294D     		ldr	r5, .L66
 689 0006 0022     		movs	r2, #0
 690 0008 4FF40051 		mov	r1, #8192
 691 000c 2846     		mov	r0, r5
 692              	.LVL82:
 693              		.loc 1 180 3 is_stmt 0 view .LVU139
 694 000e FFF7FEFF 		bl	HAL_GPIO_WritePin
 695              	.LVL83:
 181:Core/Src/main.c ****   HAL_GPIO_WritePin(IN3B_GPIO_Port, IN3B_Pin, RESET);
 696              		.loc 1 181 3 is_stmt 1 view .LVU140
 697 0012 0022     		movs	r2, #0
 698 0014 4FF48041 		mov	r1, #16384
ARM GAS  C:\Users\86183\AppData\Local\Temp\ccAkzFZ3.s 			page 17


 699 0018 2846     		mov	r0, r5
 700 001a FFF7FEFF 		bl	HAL_GPIO_WritePin
 701              	.LVL84:
 182:Core/Src/main.c ****   HAL_GPIO_WritePin(IN4A_GPIO_Port, IN4A_Pin, RESET);
 702              		.loc 1 182 3 view .LVU141
 703 001e 0022     		movs	r2, #0
 704 0020 4FF48061 		mov	r1, #1024
 705 0024 2248     		ldr	r0, .L66+4
 706 0026 FFF7FEFF 		bl	HAL_GPIO_WritePin
 707              	.LVL85:
 183:Core/Src/main.c ****   HAL_GPIO_WritePin(IN4B_GPIO_Port, IN4B_Pin, RESET);
 708              		.loc 1 183 3 view .LVU142
 709 002a 0022     		movs	r2, #0
 710 002c 4FF40041 		mov	r1, #32768
 711 0030 2048     		ldr	r0, .L66+8
 712 0032 FFF7FEFF 		bl	HAL_GPIO_WritePin
 713              	.LVL86:
 184:Core/Src/main.c ****   if (direction == 1)
 714              		.loc 1 184 3 view .LVU143
 715              		.loc 1 184 6 is_stmt 0 view .LVU144
 716 0036 012C     		cmp	r4, #1
 717 0038 1ED0     		beq	.L64
 185:Core/Src/main.c ****   {
 186:Core/Src/main.c ****     HAL_GPIO_WritePin(IN3A_GPIO_Port, IN3A_Pin, SET);
 187:Core/Src/main.c ****     HAL_GPIO_WritePin(IN4B_GPIO_Port, IN4B_Pin, SET);
 188:Core/Src/main.c ****   }
 189:Core/Src/main.c ****   else if (direction == -1)
 718              		.loc 1 189 8 is_stmt 1 view .LVU145
 719              		.loc 1 189 11 is_stmt 0 view .LVU146
 720 003a B4F1FF3F 		cmp	r4, #-1
 721 003e 28D0     		beq	.L65
 190:Core/Src/main.c ****   {
 191:Core/Src/main.c ****     HAL_GPIO_WritePin(IN3B_GPIO_Port, IN3B_Pin, SET);
 192:Core/Src/main.c ****     HAL_GPIO_WritePin(IN4A_GPIO_Port, IN4A_Pin, SET);
 193:Core/Src/main.c ****   }
 194:Core/Src/main.c ****   else
 195:Core/Src/main.c ****   {
 196:Core/Src/main.c ****     HAL_GPIO_WritePin(IN1A_GPIO_Port, IN3A_Pin, SET);
 722              		.loc 1 196 5 is_stmt 1 view .LVU147
 723 0040 1B4C     		ldr	r4, .L66+4
 724              	.LVL87:
 725              		.loc 1 196 5 is_stmt 0 view .LVU148
 726 0042 0122     		movs	r2, #1
 727 0044 4FF40051 		mov	r1, #8192
 728 0048 2046     		mov	r0, r4
 729 004a FFF7FEFF 		bl	HAL_GPIO_WritePin
 730              	.LVL88:
 197:Core/Src/main.c ****     HAL_GPIO_WritePin(IN1B_GPIO_Port, IN3B_Pin, SET);
 731              		.loc 1 197 5 is_stmt 1 view .LVU149
 732 004e 0122     		movs	r2, #1
 733 0050 4FF48041 		mov	r1, #16384
 734 0054 2046     		mov	r0, r4
 735 0056 FFF7FEFF 		bl	HAL_GPIO_WritePin
 736              	.LVL89:
 198:Core/Src/main.c ****     HAL_GPIO_WritePin(IN2A_GPIO_Port, IN4A_Pin, SET);
 737              		.loc 1 198 5 view .LVU150
 738 005a A4F58064 		sub	r4, r4, #1024
ARM GAS  C:\Users\86183\AppData\Local\Temp\ccAkzFZ3.s 			page 18


 739 005e 0122     		movs	r2, #1
 740 0060 4FF48061 		mov	r1, #1024
 741 0064 2046     		mov	r0, r4
 742 0066 FFF7FEFF 		bl	HAL_GPIO_WritePin
 743              	.LVL90:
 199:Core/Src/main.c ****     HAL_GPIO_WritePin(IN2B_GPIO_Port, IN4B_Pin, SET);
 744              		.loc 1 199 5 view .LVU151
 745 006a 0122     		movs	r2, #1
 746 006c 4FF40041 		mov	r1, #32768
 747 0070 2046     		mov	r0, r4
 748 0072 FFF7FEFF 		bl	HAL_GPIO_WritePin
 749              	.LVL91:
 750              	.L59:
 200:Core/Src/main.c ****   }
 201:Core/Src/main.c **** }
 751              		.loc 1 201 1 is_stmt 0 view .LVU152
 752 0076 38BD     		pop	{r3, r4, r5, pc}
 753              	.LVL92:
 754              	.L64:
 186:Core/Src/main.c ****     HAL_GPIO_WritePin(IN4B_GPIO_Port, IN4B_Pin, SET);
 755              		.loc 1 186 5 is_stmt 1 view .LVU153
 756 0078 0122     		movs	r2, #1
 757 007a 4FF40051 		mov	r1, #8192
 758 007e 2846     		mov	r0, r5
 759 0080 FFF7FEFF 		bl	HAL_GPIO_WritePin
 760              	.LVL93:
 187:Core/Src/main.c ****   }
 761              		.loc 1 187 5 view .LVU154
 762 0084 0122     		movs	r2, #1
 763 0086 4FF40041 		mov	r1, #32768
 764 008a 0A48     		ldr	r0, .L66+8
 765 008c FFF7FEFF 		bl	HAL_GPIO_WritePin
 766              	.LVL94:
 767 0090 F1E7     		b	.L59
 768              	.L65:
 191:Core/Src/main.c ****     HAL_GPIO_WritePin(IN4A_GPIO_Port, IN4A_Pin, SET);
 769              		.loc 1 191 5 view .LVU155
 770 0092 0122     		movs	r2, #1
 771 0094 4FF48041 		mov	r1, #16384
 772 0098 0448     		ldr	r0, .L66
 773 009a FFF7FEFF 		bl	HAL_GPIO_WritePin
 774              	.LVL95:
 192:Core/Src/main.c ****   }
 775              		.loc 1 192 5 view .LVU156
 776 009e 0122     		movs	r2, #1
 777 00a0 4FF48061 		mov	r1, #1024
 778 00a4 0248     		ldr	r0, .L66+4
 779 00a6 FFF7FEFF 		bl	HAL_GPIO_WritePin
 780              	.LVL96:
 781 00aa E4E7     		b	.L59
 782              	.L67:
 783              		.align	2
 784              	.L66:
 785 00ac 000C0140 		.word	1073810432
 786 00b0 00100140 		.word	1073811456
 787 00b4 00080140 		.word	1073809408
 788              		.cfi_endproc
ARM GAS  C:\Users\86183\AppData\Local\Temp\ccAkzFZ3.s 			page 19


 789              	.LFE71:
 791              		.section	.text.Set_Speed,"ax",%progbits
 792              		.align	1
 793              		.global	Set_Speed
 794              		.syntax unified
 795              		.thumb
 796              		.thumb_func
 797              		.fpu softvfp
 799              	Set_Speed:
 800              	.LVL97:
 801              	.LFB72:
 202:Core/Src/main.c **** 
 203:Core/Src/main.c **** void Set_Speed(float speed, int i) { target[i] = speed > 0 ? speed : 0; }
 802              		.loc 1 203 36 view -0
 803              		.cfi_startproc
 804              		@ args = 0, pretend = 0, frame = 0
 805              		@ frame_needed = 0, uses_anonymous_args = 0
 806              		.loc 1 203 36 is_stmt 0 view .LVU158
 807 0000 38B5     		push	{r3, r4, r5, lr}
 808              	.LCFI5:
 809              		.cfi_def_cfa_offset 16
 810              		.cfi_offset 3, -16
 811              		.cfi_offset 4, -12
 812              		.cfi_offset 5, -8
 813              		.cfi_offset 14, -4
 814 0002 0446     		mov	r4, r0
 815 0004 0D46     		mov	r5, r1
 816              		.loc 1 203 38 is_stmt 1 view .LVU159
 817              		.loc 1 203 68 is_stmt 0 view .LVU160
 818 0006 0021     		movs	r1, #0
 819              	.LVL98:
 820              		.loc 1 203 68 view .LVU161
 821 0008 FFF7FEFF 		bl	__aeabi_fcmpgt
 822              	.LVL99:
 823              		.loc 1 203 68 view .LVU162
 824 000c 18B1     		cbz	r0, .L73
 825              	.LVL100:
 826              	.L69:
 827              		.loc 1 203 48 discriminator 4 view .LVU163
 828 000e 034B     		ldr	r3, .L74
 829 0010 43F82540 		str	r4, [r3, r5, lsl #2]	@ float
 830              		.loc 1 203 73 discriminator 4 view .LVU164
 831 0014 38BD     		pop	{r3, r4, r5, pc}
 832              	.LVL101:
 833              	.L73:
 834              		.loc 1 203 68 view .LVU165
 835 0016 0024     		movs	r4, #0
 836              	.LVL102:
 837              		.loc 1 203 68 view .LVU166
 838 0018 F9E7     		b	.L69
 839              	.L75:
 840 001a 00BF     		.align	2
 841              	.L74:
 842 001c 00000000 		.word	.LANCHOR9
 843              		.cfi_endproc
 844              	.LFE72:
 846              		.section	.text.Add_Angle,"ax",%progbits
ARM GAS  C:\Users\86183\AppData\Local\Temp\ccAkzFZ3.s 			page 20


 847              		.align	1
 848              		.global	Add_Angle
 849              		.syntax unified
 850              		.thumb
 851              		.thumb_func
 852              		.fpu softvfp
 854              	Add_Angle:
 855              	.LVL103:
 856              	.LFB73:
 204:Core/Src/main.c **** 
 205:Core/Src/main.c **** float Add_Angle(float angleA, float angleB)
 206:Core/Src/main.c **** {
 857              		.loc 1 206 1 is_stmt 1 view -0
 858              		.cfi_startproc
 859              		@ args = 0, pretend = 0, frame = 0
 860              		@ frame_needed = 0, uses_anonymous_args = 0
 861              		.loc 1 206 1 is_stmt 0 view .LVU168
 862 0000 10B5     		push	{r4, lr}
 863              	.LCFI6:
 864              		.cfi_def_cfa_offset 8
 865              		.cfi_offset 4, -8
 866              		.cfi_offset 14, -4
 207:Core/Src/main.c ****   float result = angleA + angleB;
 867              		.loc 1 207 3 is_stmt 1 view .LVU169
 868              		.loc 1 207 9 is_stmt 0 view .LVU170
 869 0002 FFF7FEFF 		bl	__aeabi_fadd
 870              	.LVL104:
 871              		.loc 1 207 9 view .LVU171
 872 0006 0446     		mov	r4, r0
 873              	.LVL105:
 208:Core/Src/main.c ****   return result < -180 ? result + 360 : result > 180 ? result - 360
 874              		.loc 1 208 3 is_stmt 1 view .LVU172
 875              		.loc 1 208 39 is_stmt 0 view .LVU173
 876 0008 0B49     		ldr	r1, .L85
 877 000a FFF7FEFF 		bl	__aeabi_fcmplt
 878              	.LVL106:
 879              		.loc 1 208 39 view .LVU174
 880 000e 30B1     		cbz	r0, .L83
 881              		.loc 1 208 39 discriminator 1 view .LVU175
 882 0010 0A49     		ldr	r1, .L85+4
 883 0012 2046     		mov	r0, r4
 884 0014 FFF7FEFF 		bl	__aeabi_fadd
 885              	.LVL107:
 886 0018 0446     		mov	r4, r0
 887              	.LVL108:
 888              	.L76:
 209:Core/Src/main.c ****                                                      : result;
 210:Core/Src/main.c **** }
 889              		.loc 1 210 1 view .LVU176
 890 001a 2046     		mov	r0, r4
 891 001c 10BD     		pop	{r4, pc}
 892              	.LVL109:
 893              	.L83:
 209:Core/Src/main.c ****                                                      : result;
 894              		.loc 1 209 54 view .LVU177
 895 001e 0849     		ldr	r1, .L85+8
 896 0020 2046     		mov	r0, r4
ARM GAS  C:\Users\86183\AppData\Local\Temp\ccAkzFZ3.s 			page 21


 897 0022 FFF7FEFF 		bl	__aeabi_fcmpgt
 898              	.LVL110:
 899 0026 0028     		cmp	r0, #0
 900 0028 F7D0     		beq	.L76
 209:Core/Src/main.c ****                                                      : result;
 901              		.loc 1 209 54 discriminator 1 view .LVU178
 902 002a 0449     		ldr	r1, .L85+4
 903 002c 2046     		mov	r0, r4
 904 002e FFF7FEFF 		bl	__aeabi_fsub
 905              	.LVL111:
 906 0032 0446     		mov	r4, r0
 907              	.LVL112:
 208:Core/Src/main.c ****   return result < -180 ? result + 360 : result > 180 ? result - 360
 908              		.loc 1 208 39 discriminator 1 view .LVU179
 909 0034 F1E7     		b	.L76
 910              	.L86:
 911 0036 00BF     		.align	2
 912              	.L85:
 913 0038 000034C3 		.word	-1020002304
 914 003c 0000B443 		.word	1135869952
 915 0040 00003443 		.word	1127481344
 916              		.cfi_endproc
 917              	.LFE73:
 919              		.section	.text.Turn,"ax",%progbits
 920              		.align	1
 921              		.global	Turn
 922              		.syntax unified
 923              		.thumb
 924              		.thumb_func
 925              		.fpu softvfp
 927              	Turn:
 928              	.LVL113:
 929              	.LFB74:
 211:Core/Src/main.c **** 
 212:Core/Src/main.c **** // void Turn(float angle)
 213:Core/Src/main.c **** // {
 214:Core/Src/main.c **** //   Set_Right_Direction(0);
 215:Core/Src/main.c **** //   Set_Left_Direction(0);
 216:Core/Src/main.c **** //   float v;
 217:Core/Src/main.c **** //   angle0 = GetYaw();
 218:Core/Src/main.c **** //   angle0 = Add_Angle(angle0, angle);
 219:Core/Src/main.c **** //   if (getAngle() < 0)
 220:Core/Src/main.c **** //   {
 221:Core/Src/main.c **** //     Set_Left_Direction(-1);
 222:Core/Src/main.c **** //     Set_Right_Direction(1);
 223:Core/Src/main.c **** //     for (int i = 0; i < 4; i++)
 224:Core/Src/main.c **** //       Set_Speed(6, i);
 225:Core/Src/main.c **** //     while (getAngle() < -50)
 226:Core/Src/main.c **** //       ;
 227:Core/Src/main.c **** //     while (getAngle() < -5)
 228:Core/Src/main.c **** //     {
 229:Core/Src/main.c **** //       v = 3;
 230:Core/Src/main.c **** //       for (int i = 0; i < 4; i++)
 231:Core/Src/main.c **** //         Set_Speed(v, i);
 232:Core/Src/main.c **** //     }
 233:Core/Src/main.c **** //   }
 234:Core/Src/main.c **** //   else
ARM GAS  C:\Users\86183\AppData\Local\Temp\ccAkzFZ3.s 			page 22


 235:Core/Src/main.c **** //   {
 236:Core/Src/main.c **** //     Set_Left_Direction(1);
 237:Core/Src/main.c **** //     Set_Right_Direction(-1);
 238:Core/Src/main.c **** //     for (int i = 0; i < 4; i++)
 239:Core/Src/main.c **** //       Set_Speed(6, i);
 240:Core/Src/main.c **** //     while (getAngle() > 50)
 241:Core/Src/main.c **** //       ;
 242:Core/Src/main.c **** //     while (getAngle() > 5)
 243:Core/Src/main.c **** //     {
 244:Core/Src/main.c **** //       v = 3;
 245:Core/Src/main.c **** //       for (int i = 0; i < 4; i++)
 246:Core/Src/main.c **** //         Set_Speed(v, i);
 247:Core/Src/main.c **** //     }
 248:Core/Src/main.c **** //   }
 249:Core/Src/main.c **** //   Set_Left_Direction(0);
 250:Core/Src/main.c **** //   Set_Right_Direction(0);
 251:Core/Src/main.c **** // }
 252:Core/Src/main.c **** 
 253:Core/Src/main.c **** void Turn(float angle)
 254:Core/Src/main.c **** {
 930              		.loc 1 254 1 is_stmt 1 view -0
 931              		.cfi_startproc
 932              		@ args = 0, pretend = 0, frame = 0
 933              		@ frame_needed = 0, uses_anonymous_args = 0
 934              		.loc 1 254 1 is_stmt 0 view .LVU181
 935 0000 38B5     		push	{r3, r4, r5, lr}
 936              	.LCFI7:
 937              		.cfi_def_cfa_offset 16
 938              		.cfi_offset 3, -16
 939              		.cfi_offset 4, -12
 940              		.cfi_offset 5, -8
 941              		.cfi_offset 14, -4
 942 0002 0446     		mov	r4, r0
 255:Core/Src/main.c ****   Set_Right_Direction(0);
 943              		.loc 1 255 3 is_stmt 1 view .LVU182
 944 0004 0020     		movs	r0, #0
 945              	.LVL114:
 946              		.loc 1 255 3 is_stmt 0 view .LVU183
 947 0006 FFF7FEFF 		bl	Set_Right_Direction
 948              	.LVL115:
 256:Core/Src/main.c ****   Set_Left_Direction(0);
 949              		.loc 1 256 3 is_stmt 1 view .LVU184
 950 000a 0020     		movs	r0, #0
 951 000c FFF7FEFF 		bl	Set_Left_Direction
 952              	.LVL116:
 257:Core/Src/main.c ****   float v;
 953              		.loc 1 257 3 view .LVU185
 258:Core/Src/main.c ****   angle0 = GetYaw();
 954              		.loc 1 258 3 view .LVU186
 955              		.loc 1 258 12 is_stmt 0 view .LVU187
 956 0010 FFF7FEFF 		bl	GetYaw
 957              	.LVL117:
 958              		.loc 1 258 10 view .LVU188
 959 0014 4D4D     		ldr	r5, .L121
 960 0016 2860     		str	r0, [r5]	@ float
 259:Core/Src/main.c ****   angle0 = Add_Angle(angle0, angle);
 961              		.loc 1 259 3 is_stmt 1 view .LVU189
ARM GAS  C:\Users\86183\AppData\Local\Temp\ccAkzFZ3.s 			page 23


 962              		.loc 1 259 12 is_stmt 0 view .LVU190
 963 0018 2146     		mov	r1, r4
 964 001a FFF7FEFF 		bl	Add_Angle
 965              	.LVL118:
 966              		.loc 1 259 10 view .LVU191
 967 001e 2860     		str	r0, [r5]	@ float
 260:Core/Src/main.c ****   if (getAngle() < 0)
 968              		.loc 1 260 3 is_stmt 1 view .LVU192
 969              		.loc 1 260 7 is_stmt 0 view .LVU193
 970 0020 FFF7FEFF 		bl	getAngle
 971              	.LVL119:
 972              		.loc 1 260 6 view .LVU194
 973 0024 0021     		movs	r1, #0
 974 0026 FFF7FEFF 		bl	__aeabi_fcmplt
 975              	.LVL120:
 976 002a 40B9     		cbnz	r0, .L119
 261:Core/Src/main.c ****   {
 262:Core/Src/main.c ****     Set_Left_Direction(-1);
 263:Core/Src/main.c ****     Set_Right_Direction(1);
 264:Core/Src/main.c ****     for (int i = 0; i < 4; i++)
 265:Core/Src/main.c ****       Set_Speed(8, i);
 266:Core/Src/main.c ****     while (getAngle() < -50)
 267:Core/Src/main.c ****       ;
 268:Core/Src/main.c ****     while (getAngle() < -5)
 269:Core/Src/main.c ****     {
 270:Core/Src/main.c ****       v = 3;
 271:Core/Src/main.c ****       for (int i = 0; i < 4; i++)
 272:Core/Src/main.c ****         Set_Speed(v, i);
 273:Core/Src/main.c ****     }
 274:Core/Src/main.c ****   }
 275:Core/Src/main.c ****   else
 276:Core/Src/main.c ****   {
 277:Core/Src/main.c ****     Set_Left_Direction(1);
 977              		.loc 1 277 5 is_stmt 1 view .LVU195
 978 002c 0120     		movs	r0, #1
 979 002e FFF7FEFF 		bl	Set_Left_Direction
 980              	.LVL121:
 278:Core/Src/main.c ****     Set_Right_Direction(-1);
 981              		.loc 1 278 5 view .LVU196
 982 0032 4FF0FF30 		mov	r0, #-1
 983 0036 FFF7FEFF 		bl	Set_Right_Direction
 984              	.LVL122:
 279:Core/Src/main.c ****     for (int i = 0; i < 4; i++)
 985              		.loc 1 279 5 view .LVU197
 986              	.LBB7:
 987              		.loc 1 279 10 view .LVU198
 988              		.loc 1 279 14 is_stmt 0 view .LVU199
 989 003a 0024     		movs	r4, #0
 990              	.LVL123:
 991              		.loc 1 279 5 view .LVU200
 992 003c 2DE0     		b	.L97
 993              	.LVL124:
 994              	.L119:
 995              		.loc 1 279 5 view .LVU201
 996              	.LBE7:
 262:Core/Src/main.c ****     Set_Right_Direction(1);
 997              		.loc 1 262 5 is_stmt 1 view .LVU202
ARM GAS  C:\Users\86183\AppData\Local\Temp\ccAkzFZ3.s 			page 24


 998 003e 4FF0FF30 		mov	r0, #-1
 999 0042 FFF7FEFF 		bl	Set_Left_Direction
 1000              	.LVL125:
 263:Core/Src/main.c ****     for (int i = 0; i < 4; i++)
 1001              		.loc 1 263 5 view .LVU203
 1002 0046 0120     		movs	r0, #1
 1003 0048 FFF7FEFF 		bl	Set_Right_Direction
 1004              	.LVL126:
 264:Core/Src/main.c ****       Set_Speed(8, i);
 1005              		.loc 1 264 5 view .LVU204
 1006              	.LBB8:
 264:Core/Src/main.c ****       Set_Speed(8, i);
 1007              		.loc 1 264 10 view .LVU205
 264:Core/Src/main.c ****       Set_Speed(8, i);
 1008              		.loc 1 264 14 is_stmt 0 view .LVU206
 1009 004c 0024     		movs	r4, #0
 1010              	.LVL127:
 264:Core/Src/main.c ****       Set_Speed(8, i);
 1011              		.loc 1 264 5 view .LVU207
 1012 004e 05E0     		b	.L90
 1013              	.LVL128:
 1014              	.L91:
 265:Core/Src/main.c ****     while (getAngle() < -50)
 1015              		.loc 1 265 7 is_stmt 1 discriminator 3 view .LVU208
 1016 0050 2146     		mov	r1, r4
 1017 0052 4FF08240 		mov	r0, #1090519040
 1018 0056 FFF7FEFF 		bl	Set_Speed
 1019              	.LVL129:
 264:Core/Src/main.c ****       Set_Speed(8, i);
 1020              		.loc 1 264 28 discriminator 3 view .LVU209
 264:Core/Src/main.c ****       Set_Speed(8, i);
 1021              		.loc 1 264 29 is_stmt 0 discriminator 3 view .LVU210
 1022 005a 0134     		adds	r4, r4, #1
 1023              	.LVL130:
 1024              	.L90:
 264:Core/Src/main.c ****       Set_Speed(8, i);
 1025              		.loc 1 264 21 is_stmt 1 discriminator 1 view .LVU211
 264:Core/Src/main.c ****       Set_Speed(8, i);
 1026              		.loc 1 264 5 is_stmt 0 discriminator 1 view .LVU212
 1027 005c 032C     		cmp	r4, #3
 1028 005e F7DD     		ble	.L91
 1029              	.L92:
 1030              	.LBE8:
 267:Core/Src/main.c ****     while (getAngle() < -5)
 1031              		.loc 1 267 7 is_stmt 1 discriminator 1 view .LVU213
 266:Core/Src/main.c ****       ;
 1032              		.loc 1 266 11 discriminator 1 view .LVU214
 266:Core/Src/main.c ****       ;
 1033              		.loc 1 266 12 is_stmt 0 discriminator 1 view .LVU215
 1034 0060 FFF7FEFF 		bl	getAngle
 1035              	.LVL131:
 266:Core/Src/main.c ****       ;
 1036              		.loc 1 266 11 discriminator 1 view .LVU216
 1037 0064 3A49     		ldr	r1, .L121+4
 1038 0066 FFF7FEFF 		bl	__aeabi_fcmplt
 1039              	.LVL132:
 1040 006a 0028     		cmp	r0, #0
ARM GAS  C:\Users\86183\AppData\Local\Temp\ccAkzFZ3.s 			page 25


 1041 006c F8D1     		bne	.L92
 1042 006e 06E0     		b	.L93
 1043              	.LVL133:
 1044              	.L94:
 1045              	.LBB9:
 272:Core/Src/main.c ****     }
 1046              		.loc 1 272 9 is_stmt 1 discriminator 3 view .LVU217
 1047 0070 2146     		mov	r1, r4
 1048 0072 3848     		ldr	r0, .L121+8
 1049 0074 FFF7FEFF 		bl	Set_Speed
 1050              	.LVL134:
 271:Core/Src/main.c ****         Set_Speed(v, i);
 1051              		.loc 1 271 30 discriminator 3 view .LVU218
 271:Core/Src/main.c ****         Set_Speed(v, i);
 1052              		.loc 1 271 31 is_stmt 0 discriminator 3 view .LVU219
 1053 0078 0134     		adds	r4, r4, #1
 1054              	.LVL135:
 1055              	.L95:
 271:Core/Src/main.c ****         Set_Speed(v, i);
 1056              		.loc 1 271 23 is_stmt 1 discriminator 1 view .LVU220
 271:Core/Src/main.c ****         Set_Speed(v, i);
 1057              		.loc 1 271 7 is_stmt 0 discriminator 1 view .LVU221
 1058 007a 032C     		cmp	r4, #3
 1059 007c F8DD     		ble	.L94
 1060              	.LVL136:
 1061              	.L93:
 271:Core/Src/main.c ****         Set_Speed(v, i);
 1062              		.loc 1 271 7 discriminator 1 view .LVU222
 1063              	.LBE9:
 268:Core/Src/main.c ****     {
 1064              		.loc 1 268 11 is_stmt 1 view .LVU223
 268:Core/Src/main.c ****     {
 1065              		.loc 1 268 12 is_stmt 0 view .LVU224
 1066 007e FFF7FEFF 		bl	getAngle
 1067              	.LVL137:
 268:Core/Src/main.c ****     {
 1068              		.loc 1 268 11 view .LVU225
 1069 0082 3549     		ldr	r1, .L121+12
 1070 0084 FFF7FEFF 		bl	__aeabi_fcmplt
 1071              	.LVL138:
 1072 0088 00B3     		cbz	r0, .L96
 1073              	.LBB10:
 271:Core/Src/main.c ****         Set_Speed(v, i);
 1074              		.loc 1 271 16 view .LVU226
 1075 008a 0024     		movs	r4, #0
 1076 008c F5E7     		b	.L95
 1077              	.LVL139:
 1078              	.L98:
 271:Core/Src/main.c ****         Set_Speed(v, i);
 1079              		.loc 1 271 16 view .LVU227
 1080              	.LBE10:
 1081              	.LBB11:
 280:Core/Src/main.c ****       Set_Speed(8, i);
 1082              		.loc 1 280 7 is_stmt 1 discriminator 3 view .LVU228
 1083 008e 2146     		mov	r1, r4
 1084 0090 4FF08240 		mov	r0, #1090519040
 1085 0094 FFF7FEFF 		bl	Set_Speed
ARM GAS  C:\Users\86183\AppData\Local\Temp\ccAkzFZ3.s 			page 26


 1086              	.LVL140:
 279:Core/Src/main.c ****       Set_Speed(8, i);
 1087              		.loc 1 279 28 discriminator 3 view .LVU229
 279:Core/Src/main.c ****       Set_Speed(8, i);
 1088              		.loc 1 279 29 is_stmt 0 discriminator 3 view .LVU230
 1089 0098 0134     		adds	r4, r4, #1
 1090              	.LVL141:
 1091              	.L97:
 279:Core/Src/main.c ****       Set_Speed(8, i);
 1092              		.loc 1 279 21 is_stmt 1 discriminator 1 view .LVU231
 279:Core/Src/main.c ****       Set_Speed(8, i);
 1093              		.loc 1 279 5 is_stmt 0 discriminator 1 view .LVU232
 1094 009a 032C     		cmp	r4, #3
 1095 009c F7DD     		ble	.L98
 1096              	.L99:
 1097              	.LBE11:
 281:Core/Src/main.c ****     while (getAngle() > 50)
 282:Core/Src/main.c ****       ;
 1098              		.loc 1 282 7 is_stmt 1 discriminator 1 view .LVU233
 281:Core/Src/main.c ****     while (getAngle() > 50)
 1099              		.loc 1 281 11 discriminator 1 view .LVU234
 281:Core/Src/main.c ****     while (getAngle() > 50)
 1100              		.loc 1 281 12 is_stmt 0 discriminator 1 view .LVU235
 1101 009e FFF7FEFF 		bl	getAngle
 1102              	.LVL142:
 281:Core/Src/main.c ****     while (getAngle() > 50)
 1103              		.loc 1 281 11 discriminator 1 view .LVU236
 1104 00a2 2E49     		ldr	r1, .L121+16
 1105 00a4 FFF7FEFF 		bl	__aeabi_fcmpgt
 1106              	.LVL143:
 1107 00a8 0028     		cmp	r0, #0
 1108 00aa F8D1     		bne	.L99
 1109 00ac 06E0     		b	.L100
 1110              	.LVL144:
 1111              	.L101:
 1112              	.LBB12:
 283:Core/Src/main.c ****     while (getAngle() > 5)
 284:Core/Src/main.c ****     {
 285:Core/Src/main.c ****       v = 3;
 286:Core/Src/main.c ****       for (int i = 0; i < 4; i++)
 287:Core/Src/main.c ****         Set_Speed(v, i);
 1113              		.loc 1 287 9 is_stmt 1 discriminator 3 view .LVU237
 1114 00ae 2146     		mov	r1, r4
 1115 00b0 2848     		ldr	r0, .L121+8
 1116 00b2 FFF7FEFF 		bl	Set_Speed
 1117              	.LVL145:
 286:Core/Src/main.c ****         Set_Speed(v, i);
 1118              		.loc 1 286 30 discriminator 3 view .LVU238
 286:Core/Src/main.c ****         Set_Speed(v, i);
 1119              		.loc 1 286 31 is_stmt 0 discriminator 3 view .LVU239
 1120 00b6 0134     		adds	r4, r4, #1
 1121              	.LVL146:
 1122              	.L102:
 286:Core/Src/main.c ****         Set_Speed(v, i);
 1123              		.loc 1 286 23 is_stmt 1 discriminator 1 view .LVU240
 286:Core/Src/main.c ****         Set_Speed(v, i);
 1124              		.loc 1 286 7 is_stmt 0 discriminator 1 view .LVU241
ARM GAS  C:\Users\86183\AppData\Local\Temp\ccAkzFZ3.s 			page 27


 1125 00b8 032C     		cmp	r4, #3
 1126 00ba F8DD     		ble	.L101
 1127              	.LVL147:
 1128              	.L100:
 286:Core/Src/main.c ****         Set_Speed(v, i);
 1129              		.loc 1 286 7 discriminator 1 view .LVU242
 1130              	.LBE12:
 283:Core/Src/main.c ****     while (getAngle() > 5)
 1131              		.loc 1 283 11 is_stmt 1 view .LVU243
 283:Core/Src/main.c ****     while (getAngle() > 5)
 1132              		.loc 1 283 12 is_stmt 0 view .LVU244
 1133 00bc FFF7FEFF 		bl	getAngle
 1134              	.LVL148:
 283:Core/Src/main.c ****     while (getAngle() > 5)
 1135              		.loc 1 283 11 view .LVU245
 1136 00c0 2749     		ldr	r1, .L121+20
 1137 00c2 FFF7FEFF 		bl	__aeabi_fcmpgt
 1138              	.LVL149:
 1139 00c6 08B1     		cbz	r0, .L96
 1140              	.LBB13:
 286:Core/Src/main.c ****         Set_Speed(v, i);
 1141              		.loc 1 286 16 view .LVU246
 1142 00c8 0024     		movs	r4, #0
 1143 00ca F5E7     		b	.L102
 1144              	.L96:
 286:Core/Src/main.c ****         Set_Speed(v, i);
 1145              		.loc 1 286 16 view .LVU247
 1146              	.LBE13:
 288:Core/Src/main.c ****     }
 289:Core/Src/main.c ****   }
 290:Core/Src/main.c ****   if (getAngle() < 0)
 1147              		.loc 1 290 3 is_stmt 1 view .LVU248
 1148              		.loc 1 290 7 is_stmt 0 view .LVU249
 1149 00cc FFF7FEFF 		bl	getAngle
 1150              	.LVL150:
 1151              		.loc 1 290 6 view .LVU250
 1152 00d0 0021     		movs	r1, #0
 1153 00d2 FFF7FEFF 		bl	__aeabi_fcmplt
 1154              	.LVL151:
 1155 00d6 40B9     		cbnz	r0, .L120
 291:Core/Src/main.c ****   {
 292:Core/Src/main.c ****     Set_Left_Direction(-1);
 293:Core/Src/main.c ****     Set_Right_Direction(1);
 294:Core/Src/main.c ****     for (int i = 0; i < 4; i++)
 295:Core/Src/main.c ****       Set_Speed(2, i);
 296:Core/Src/main.c ****     while (getAngle() < -1)
 297:Core/Src/main.c ****       ;
 298:Core/Src/main.c ****   }
 299:Core/Src/main.c ****   else
 300:Core/Src/main.c ****   {
 301:Core/Src/main.c ****     Set_Left_Direction(1);
 1156              		.loc 1 301 5 is_stmt 1 view .LVU251
 1157 00d8 0120     		movs	r0, #1
 1158 00da FFF7FEFF 		bl	Set_Left_Direction
 1159              	.LVL152:
 302:Core/Src/main.c ****     Set_Right_Direction(-1);
 1160              		.loc 1 302 5 view .LVU252
ARM GAS  C:\Users\86183\AppData\Local\Temp\ccAkzFZ3.s 			page 28


 1161 00de 4FF0FF30 		mov	r0, #-1
 1162 00e2 FFF7FEFF 		bl	Set_Right_Direction
 1163              	.LVL153:
 303:Core/Src/main.c ****     for (int i = 0; i < 4; i++)
 1164              		.loc 1 303 5 view .LVU253
 1165              	.LBB14:
 1166              		.loc 1 303 10 view .LVU254
 1167              		.loc 1 303 14 is_stmt 0 view .LVU255
 1168 00e6 0024     		movs	r4, #0
 1169              		.loc 1 303 5 view .LVU256
 1170 00e8 1EE0     		b	.L109
 1171              	.LVL154:
 1172              	.L120:
 1173              		.loc 1 303 5 view .LVU257
 1174              	.LBE14:
 292:Core/Src/main.c ****     Set_Right_Direction(1);
 1175              		.loc 1 292 5 is_stmt 1 view .LVU258
 1176 00ea 4FF0FF30 		mov	r0, #-1
 1177 00ee FFF7FEFF 		bl	Set_Left_Direction
 1178              	.LVL155:
 293:Core/Src/main.c ****     for (int i = 0; i < 4; i++)
 1179              		.loc 1 293 5 view .LVU259
 1180 00f2 0120     		movs	r0, #1
 1181 00f4 FFF7FEFF 		bl	Set_Right_Direction
 1182              	.LVL156:
 294:Core/Src/main.c ****       Set_Speed(2, i);
 1183              		.loc 1 294 5 view .LVU260
 1184              	.LBB15:
 294:Core/Src/main.c ****       Set_Speed(2, i);
 1185              		.loc 1 294 10 view .LVU261
 294:Core/Src/main.c ****       Set_Speed(2, i);
 1186              		.loc 1 294 14 is_stmt 0 view .LVU262
 1187 00f8 0024     		movs	r4, #0
 294:Core/Src/main.c ****       Set_Speed(2, i);
 1188              		.loc 1 294 5 view .LVU263
 1189 00fa 05E0     		b	.L105
 1190              	.LVL157:
 1191              	.L106:
 295:Core/Src/main.c ****     while (getAngle() < -1)
 1192              		.loc 1 295 7 is_stmt 1 discriminator 3 view .LVU264
 1193 00fc 2146     		mov	r1, r4
 1194 00fe 4FF08040 		mov	r0, #1073741824
 1195 0102 FFF7FEFF 		bl	Set_Speed
 1196              	.LVL158:
 294:Core/Src/main.c ****       Set_Speed(2, i);
 1197              		.loc 1 294 28 discriminator 3 view .LVU265
 294:Core/Src/main.c ****       Set_Speed(2, i);
 1198              		.loc 1 294 29 is_stmt 0 discriminator 3 view .LVU266
 1199 0106 0134     		adds	r4, r4, #1
 1200              	.LVL159:
 1201              	.L105:
 294:Core/Src/main.c ****       Set_Speed(2, i);
 1202              		.loc 1 294 21 is_stmt 1 discriminator 1 view .LVU267
 294:Core/Src/main.c ****       Set_Speed(2, i);
 1203              		.loc 1 294 5 is_stmt 0 discriminator 1 view .LVU268
 1204 0108 032C     		cmp	r4, #3
 1205 010a F7DD     		ble	.L106
ARM GAS  C:\Users\86183\AppData\Local\Temp\ccAkzFZ3.s 			page 29


 1206              	.L107:
 1207              	.LBE15:
 297:Core/Src/main.c ****   }
 1208              		.loc 1 297 7 is_stmt 1 discriminator 1 view .LVU269
 296:Core/Src/main.c ****       ;
 1209              		.loc 1 296 11 discriminator 1 view .LVU270
 296:Core/Src/main.c ****       ;
 1210              		.loc 1 296 12 is_stmt 0 discriminator 1 view .LVU271
 1211 010c FFF7FEFF 		bl	getAngle
 1212              	.LVL160:
 296:Core/Src/main.c ****       ;
 1213              		.loc 1 296 11 discriminator 1 view .LVU272
 1214 0110 1449     		ldr	r1, .L121+24
 1215 0112 FFF7FEFF 		bl	__aeabi_fcmplt
 1216              	.LVL161:
 1217 0116 0028     		cmp	r0, #0
 1218 0118 F8D1     		bne	.L107
 1219 011a 0FE0     		b	.L108
 1220              	.LVL162:
 1221              	.L110:
 1222              	.LBB16:
 304:Core/Src/main.c ****       Set_Speed(2, i);
 1223              		.loc 1 304 7 is_stmt 1 discriminator 3 view .LVU273
 1224 011c 2146     		mov	r1, r4
 1225 011e 4FF08040 		mov	r0, #1073741824
 1226 0122 FFF7FEFF 		bl	Set_Speed
 1227              	.LVL163:
 303:Core/Src/main.c ****       Set_Speed(2, i);
 1228              		.loc 1 303 28 discriminator 3 view .LVU274
 303:Core/Src/main.c ****       Set_Speed(2, i);
 1229              		.loc 1 303 29 is_stmt 0 discriminator 3 view .LVU275
 1230 0126 0134     		adds	r4, r4, #1
 1231              	.LVL164:
 1232              	.L109:
 303:Core/Src/main.c ****       Set_Speed(2, i);
 1233              		.loc 1 303 21 is_stmt 1 discriminator 1 view .LVU276
 303:Core/Src/main.c ****       Set_Speed(2, i);
 1234              		.loc 1 303 5 is_stmt 0 discriminator 1 view .LVU277
 1235 0128 032C     		cmp	r4, #3
 1236 012a F7DD     		ble	.L110
 1237              	.L111:
 1238              	.LBE16:
 305:Core/Src/main.c ****     while (getAngle() > 1)
 306:Core/Src/main.c ****       ;
 1239              		.loc 1 306 7 is_stmt 1 discriminator 1 view .LVU278
 305:Core/Src/main.c ****     while (getAngle() > 1)
 1240              		.loc 1 305 11 discriminator 1 view .LVU279
 305:Core/Src/main.c ****     while (getAngle() > 1)
 1241              		.loc 1 305 12 is_stmt 0 discriminator 1 view .LVU280
 1242 012c FFF7FEFF 		bl	getAngle
 1243              	.LVL165:
 305:Core/Src/main.c ****     while (getAngle() > 1)
 1244              		.loc 1 305 11 discriminator 1 view .LVU281
 1245 0130 4FF07E51 		mov	r1, #1065353216
 1246 0134 FFF7FEFF 		bl	__aeabi_fcmpgt
 1247              	.LVL166:
 1248 0138 0028     		cmp	r0, #0
ARM GAS  C:\Users\86183\AppData\Local\Temp\ccAkzFZ3.s 			page 30


 1249 013a F7D1     		bne	.L111
 1250              	.LVL167:
 1251              	.L108:
 307:Core/Src/main.c ****   }
 308:Core/Src/main.c ****   Set_Left_Direction(0);
 1252              		.loc 1 308 3 is_stmt 1 view .LVU282
 1253 013c 0020     		movs	r0, #0
 1254 013e FFF7FEFF 		bl	Set_Left_Direction
 1255              	.LVL168:
 309:Core/Src/main.c ****   Set_Right_Direction(0);
 1256              		.loc 1 309 3 view .LVU283
 1257 0142 0020     		movs	r0, #0
 1258 0144 FFF7FEFF 		bl	Set_Right_Direction
 1259              	.LVL169:
 310:Core/Src/main.c **** }
 1260              		.loc 1 310 1 is_stmt 0 view .LVU284
 1261 0148 38BD     		pop	{r3, r4, r5, pc}
 1262              	.L122:
 1263 014a 00BF     		.align	2
 1264              	.L121:
 1265 014c 00000000 		.word	.LANCHOR7
 1266 0150 000048C2 		.word	-1035468800
 1267 0154 00004040 		.word	1077936128
 1268 0158 0000A0C0 		.word	-1063256064
 1269 015c 00004842 		.word	1112014848
 1270 0160 0000A040 		.word	1084227584
 1271 0164 000080BF 		.word	-1082130432
 1272              		.cfi_endproc
 1273              	.LFE74:
 1275              		.global	__aeabi_ui2f
 1276              		.global	__aeabi_f2d
 1277              		.global	__aeabi_dmul
 1278              		.global	__aeabi_d2f
 1279              		.global	__aeabi_dadd
 1280              		.global	__aeabi_f2iz
 1281              		.section	.text.HAL_TIM_PeriodElapsedCallback,"ax",%progbits
 1282              		.align	1
 1283              		.global	HAL_TIM_PeriodElapsedCallback
 1284              		.syntax unified
 1285              		.thumb
 1286              		.thumb_func
 1287              		.fpu softvfp
 1289              	HAL_TIM_PeriodElapsedCallback:
 1290              	.LVL170:
 1291              	.LFB75:
 311:Core/Src/main.c **** 
 312:Core/Src/main.c **** void HAL_TIM_PeriodElapsedCallback(TIM_HandleTypeDef *htim)
 313:Core/Src/main.c **** {
 1292              		.loc 1 313 1 is_stmt 1 view -0
 1293              		.cfi_startproc
 1294              		@ args = 0, pretend = 0, frame = 0
 1295              		@ frame_needed = 0, uses_anonymous_args = 0
 1296              		.loc 1 313 1 is_stmt 0 view .LVU286
 1297 0000 2DE9F84F 		push	{r3, r4, r5, r6, r7, r8, r9, r10, fp, lr}
 1298              	.LCFI8:
 1299              		.cfi_def_cfa_offset 40
 1300              		.cfi_offset 3, -40
ARM GAS  C:\Users\86183\AppData\Local\Temp\ccAkzFZ3.s 			page 31


 1301              		.cfi_offset 4, -36
 1302              		.cfi_offset 5, -32
 1303              		.cfi_offset 6, -28
 1304              		.cfi_offset 7, -24
 1305              		.cfi_offset 8, -20
 1306              		.cfi_offset 9, -16
 1307              		.cfi_offset 10, -12
 1308              		.cfi_offset 11, -8
 1309              		.cfi_offset 14, -4
 314:Core/Src/main.c ****   if (htim->Instance == TIM2)
 1310              		.loc 1 314 3 is_stmt 1 view .LVU287
 1311              		.loc 1 314 11 is_stmt 0 view .LVU288
 1312 0004 0368     		ldr	r3, [r0]
 1313              		.loc 1 314 6 view .LVU289
 1314 0006 B3F1804F 		cmp	r3, #1073741824
 1315 000a 01D0     		beq	.L130
 1316              	.LVL171:
 1317              	.L123:
 315:Core/Src/main.c ****   {
 316:Core/Src/main.c ****     unsigned int cnt0 = __HAL_TIM_GetCounter(&htim3);
 317:Core/Src/main.c ****     unsigned int cnt1 = __HAL_TIM_GetCounter(&htim4);
 318:Core/Src/main.c ****     unsigned int cnt2 = __HAL_TIM_GetCounter(&htim5);
 319:Core/Src/main.c ****     unsigned int cnt3 = __HAL_TIM_GetCounter(&htim8);
 320:Core/Src/main.c **** 
 321:Core/Src/main.c ****     if (cnt0 > 32676)
 322:Core/Src/main.c ****       cnt0 = 65535 - cnt0;
 323:Core/Src/main.c ****     if (cnt1 > 32676)
 324:Core/Src/main.c ****       cnt1 = 65535 - cnt1;
 325:Core/Src/main.c ****     if (cnt2 > 32676)
 326:Core/Src/main.c ****       cnt2 = 65535 - cnt2;
 327:Core/Src/main.c ****     if (cnt3 > 32676)
 328:Core/Src/main.c ****       cnt3 = 65535 - cnt3;
 329:Core/Src/main.c **** 
 330:Core/Src/main.c ****     __HAL_TIM_SetCounter(&htim3, 0);
 331:Core/Src/main.c ****     __HAL_TIM_SetCounter(&htim4, 0);
 332:Core/Src/main.c ****     __HAL_TIM_SetCounter(&htim5, 0);
 333:Core/Src/main.c ****     __HAL_TIM_SetCounter(&htim8, 0);
 334:Core/Src/main.c **** 
 335:Core/Src/main.c ****     float speed0 = (float)cnt0 * 20 / 532 * 20.4;
 336:Core/Src/main.c ****     float speed1 = (float)cnt1 * 20 / 531 * 20.4;
 337:Core/Src/main.c ****     float speed2 = (float)cnt2 * 20 / 531 * 20.4;
 338:Core/Src/main.c ****     float speed3 = (float)cnt3 * 20 / 530 * 20.4;
 339:Core/Src/main.c **** 
 340:Core/Src/main.c ****     distance += (speed0 + speed1 + speed2 + speed3) * 0.0125;
 341:Core/Src/main.c **** 
 342:Core/Src/main.c ****     int pwm0 = (int)PID(speed0, target[0], 0);
 343:Core/Src/main.c ****     int pwm1 = (int)PID(speed1, target[1], 1);
 344:Core/Src/main.c ****     int pwm2 = (int)PID(speed2, target[2], 2);
 345:Core/Src/main.c ****     int pwm3 = (int)PID(speed3, target[3], 3);
 346:Core/Src/main.c **** 
 347:Core/Src/main.c ****     __HAL_TIM_SetCompare(&htim1, TIM_CHANNEL_1, pwm0);
 348:Core/Src/main.c ****     __HAL_TIM_SetCompare(&htim1, TIM_CHANNEL_2, pwm1);
 349:Core/Src/main.c ****     __HAL_TIM_SetCompare(&htim1, TIM_CHANNEL_3, pwm2);
 350:Core/Src/main.c ****     __HAL_TIM_SetCompare(&htim1, TIM_CHANNEL_4, pwm3);
 351:Core/Src/main.c ****   }
 352:Core/Src/main.c **** }
 1318              		.loc 1 352 1 view .LVU290
ARM GAS  C:\Users\86183\AppData\Local\Temp\ccAkzFZ3.s 			page 32


 1319 000c BDE8F88F 		pop	{r3, r4, r5, r6, r7, r8, r9, r10, fp, pc}
 1320              	.LVL172:
 1321              	.L130:
 1322              	.LBB17:
 316:Core/Src/main.c ****     unsigned int cnt1 = __HAL_TIM_GetCounter(&htim4);
 1323              		.loc 1 316 5 is_stmt 1 view .LVU291
 316:Core/Src/main.c ****     unsigned int cnt1 = __HAL_TIM_GetCounter(&htim4);
 1324              		.loc 1 316 25 is_stmt 0 view .LVU292
 1325 0010 654B     		ldr	r3, .L131+16
 1326 0012 D3F800C0 		ldr	ip, [r3]
 316:Core/Src/main.c ****     unsigned int cnt1 = __HAL_TIM_GetCounter(&htim4);
 1327              		.loc 1 316 18 view .LVU293
 1328 0016 DCF82400 		ldr	r0, [ip, #36]
 1329              	.LVL173:
 317:Core/Src/main.c ****     unsigned int cnt2 = __HAL_TIM_GetCounter(&htim5);
 1330              		.loc 1 317 5 is_stmt 1 view .LVU294
 317:Core/Src/main.c ****     unsigned int cnt2 = __HAL_TIM_GetCounter(&htim5);
 1331              		.loc 1 317 25 is_stmt 0 view .LVU295
 1332 001a 644B     		ldr	r3, .L131+20
 1333 001c 1968     		ldr	r1, [r3]
 317:Core/Src/main.c ****     unsigned int cnt2 = __HAL_TIM_GetCounter(&htim5);
 1334              		.loc 1 317 18 view .LVU296
 1335 001e 4F6A     		ldr	r7, [r1, #36]
 1336              	.LVL174:
 318:Core/Src/main.c ****     unsigned int cnt3 = __HAL_TIM_GetCounter(&htim8);
 1337              		.loc 1 318 5 is_stmt 1 view .LVU297
 318:Core/Src/main.c ****     unsigned int cnt3 = __HAL_TIM_GetCounter(&htim8);
 1338              		.loc 1 318 25 is_stmt 0 view .LVU298
 1339 0020 634B     		ldr	r3, .L131+24
 1340 0022 1A68     		ldr	r2, [r3]
 318:Core/Src/main.c ****     unsigned int cnt3 = __HAL_TIM_GetCounter(&htim8);
 1341              		.loc 1 318 18 view .LVU299
 1342 0024 566A     		ldr	r6, [r2, #36]
 1343              	.LVL175:
 319:Core/Src/main.c **** 
 1344              		.loc 1 319 5 is_stmt 1 view .LVU300
 319:Core/Src/main.c **** 
 1345              		.loc 1 319 25 is_stmt 0 view .LVU301
 1346 0026 634B     		ldr	r3, .L131+28
 1347 0028 1B68     		ldr	r3, [r3]
 319:Core/Src/main.c **** 
 1348              		.loc 1 319 18 view .LVU302
 1349 002a 5D6A     		ldr	r5, [r3, #36]
 1350              	.LVL176:
 321:Core/Src/main.c ****       cnt0 = 65535 - cnt0;
 1351              		.loc 1 321 5 is_stmt 1 view .LVU303
 321:Core/Src/main.c ****       cnt0 = 65535 - cnt0;
 1352              		.loc 1 321 8 is_stmt 0 view .LVU304
 1353 002c 47F6A474 		movw	r4, #32676
 1354 0030 A042     		cmp	r0, r4
 1355 0032 02D9     		bls	.L125
 322:Core/Src/main.c ****     if (cnt1 > 32676)
 1356              		.loc 1 322 7 is_stmt 1 view .LVU305
 322:Core/Src/main.c ****     if (cnt1 > 32676)
 1357              		.loc 1 322 12 is_stmt 0 view .LVU306
 1358 0034 C0F57F40 		rsb	r0, r0, #65280
 1359              	.LVL177:
ARM GAS  C:\Users\86183\AppData\Local\Temp\ccAkzFZ3.s 			page 33


 322:Core/Src/main.c ****     if (cnt1 > 32676)
 1360              		.loc 1 322 12 view .LVU307
 1361 0038 FF30     		adds	r0, r0, #255
 1362              	.LVL178:
 1363              	.L125:
 323:Core/Src/main.c ****       cnt1 = 65535 - cnt1;
 1364              		.loc 1 323 5 is_stmt 1 view .LVU308
 323:Core/Src/main.c ****       cnt1 = 65535 - cnt1;
 1365              		.loc 1 323 8 is_stmt 0 view .LVU309
 1366 003a 47F6A474 		movw	r4, #32676
 1367 003e A742     		cmp	r7, r4
 1368 0040 02D9     		bls	.L126
 324:Core/Src/main.c ****     if (cnt2 > 32676)
 1369              		.loc 1 324 7 is_stmt 1 view .LVU310
 324:Core/Src/main.c ****     if (cnt2 > 32676)
 1370              		.loc 1 324 12 is_stmt 0 view .LVU311
 1371 0042 C7F57F47 		rsb	r7, r7, #65280
 1372              	.LVL179:
 324:Core/Src/main.c ****     if (cnt2 > 32676)
 1373              		.loc 1 324 12 view .LVU312
 1374 0046 FF37     		adds	r7, r7, #255
 1375              	.LVL180:
 1376              	.L126:
 325:Core/Src/main.c ****       cnt2 = 65535 - cnt2;
 1377              		.loc 1 325 5 is_stmt 1 view .LVU313
 325:Core/Src/main.c ****       cnt2 = 65535 - cnt2;
 1378              		.loc 1 325 8 is_stmt 0 view .LVU314
 1379 0048 47F6A474 		movw	r4, #32676
 1380 004c A642     		cmp	r6, r4
 1381 004e 02D9     		bls	.L127
 326:Core/Src/main.c ****     if (cnt3 > 32676)
 1382              		.loc 1 326 7 is_stmt 1 view .LVU315
 326:Core/Src/main.c ****     if (cnt3 > 32676)
 1383              		.loc 1 326 12 is_stmt 0 view .LVU316
 1384 0050 C6F57F46 		rsb	r6, r6, #65280
 1385              	.LVL181:
 326:Core/Src/main.c ****     if (cnt3 > 32676)
 1386              		.loc 1 326 12 view .LVU317
 1387 0054 FF36     		adds	r6, r6, #255
 1388              	.LVL182:
 1389              	.L127:
 327:Core/Src/main.c ****       cnt3 = 65535 - cnt3;
 1390              		.loc 1 327 5 is_stmt 1 view .LVU318
 327:Core/Src/main.c ****       cnt3 = 65535 - cnt3;
 1391              		.loc 1 327 8 is_stmt 0 view .LVU319
 1392 0056 47F6A474 		movw	r4, #32676
 1393 005a A542     		cmp	r5, r4
 1394 005c 02D9     		bls	.L128
 328:Core/Src/main.c **** 
 1395              		.loc 1 328 7 is_stmt 1 view .LVU320
 328:Core/Src/main.c **** 
 1396              		.loc 1 328 12 is_stmt 0 view .LVU321
 1397 005e C5F57F45 		rsb	r5, r5, #65280
 1398              	.LVL183:
 328:Core/Src/main.c **** 
 1399              		.loc 1 328 12 view .LVU322
 1400 0062 FF35     		adds	r5, r5, #255
ARM GAS  C:\Users\86183\AppData\Local\Temp\ccAkzFZ3.s 			page 34


 1401              	.LVL184:
 1402              	.L128:
 330:Core/Src/main.c ****     __HAL_TIM_SetCounter(&htim4, 0);
 1403              		.loc 1 330 5 is_stmt 1 view .LVU323
 1404 0064 0024     		movs	r4, #0
 1405 0066 CCF82440 		str	r4, [ip, #36]
 331:Core/Src/main.c ****     __HAL_TIM_SetCounter(&htim5, 0);
 1406              		.loc 1 331 5 view .LVU324
 1407 006a 4C62     		str	r4, [r1, #36]
 332:Core/Src/main.c ****     __HAL_TIM_SetCounter(&htim8, 0);
 1408              		.loc 1 332 5 view .LVU325
 1409 006c 5462     		str	r4, [r2, #36]
 333:Core/Src/main.c **** 
 1410              		.loc 1 333 5 view .LVU326
 1411 006e 5C62     		str	r4, [r3, #36]
 335:Core/Src/main.c ****     float speed1 = (float)cnt1 * 20 / 531 * 20.4;
 1412              		.loc 1 335 5 view .LVU327
 335:Core/Src/main.c ****     float speed1 = (float)cnt1 * 20 / 531 * 20.4;
 1413              		.loc 1 335 20 is_stmt 0 view .LVU328
 1414 0070 FFF7FEFF 		bl	__aeabi_ui2f
 1415              	.LVL185:
 335:Core/Src/main.c ****     float speed1 = (float)cnt1 * 20 / 531 * 20.4;
 1416              		.loc 1 335 32 view .LVU329
 1417 0074 5049     		ldr	r1, .L131+32
 1418 0076 FFF7FEFF 		bl	__aeabi_fmul
 1419              	.LVL186:
 335:Core/Src/main.c ****     float speed1 = (float)cnt1 * 20 / 531 * 20.4;
 1420              		.loc 1 335 37 view .LVU330
 1421 007a 5049     		ldr	r1, .L131+36
 1422 007c FFF7FEFF 		bl	__aeabi_fdiv
 1423              	.LVL187:
 1424 0080 FFF7FEFF 		bl	__aeabi_f2d
 1425              	.LVL188:
 335:Core/Src/main.c ****     float speed1 = (float)cnt1 * 20 / 531 * 20.4;
 1426              		.loc 1 335 43 view .LVU331
 1427 0084 44A3     		adr	r3, .L131
 1428 0086 D3E90023 		ldrd	r2, [r3]
 1429 008a FFF7FEFF 		bl	__aeabi_dmul
 1430              	.LVL189:
 335:Core/Src/main.c ****     float speed1 = (float)cnt1 * 20 / 531 * 20.4;
 1431              		.loc 1 335 11 view .LVU332
 1432 008e FFF7FEFF 		bl	__aeabi_d2f
 1433              	.LVL190:
 1434 0092 8346     		mov	fp, r0
 1435              	.LVL191:
 336:Core/Src/main.c ****     float speed2 = (float)cnt2 * 20 / 531 * 20.4;
 1436              		.loc 1 336 5 is_stmt 1 view .LVU333
 336:Core/Src/main.c ****     float speed2 = (float)cnt2 * 20 / 531 * 20.4;
 1437              		.loc 1 336 20 is_stmt 0 view .LVU334
 1438 0094 3846     		mov	r0, r7
 1439              	.LVL192:
 336:Core/Src/main.c ****     float speed2 = (float)cnt2 * 20 / 531 * 20.4;
 1440              		.loc 1 336 20 view .LVU335
 1441 0096 FFF7FEFF 		bl	__aeabi_ui2f
 1442              	.LVL193:
 336:Core/Src/main.c ****     float speed2 = (float)cnt2 * 20 / 531 * 20.4;
 1443              		.loc 1 336 32 view .LVU336
ARM GAS  C:\Users\86183\AppData\Local\Temp\ccAkzFZ3.s 			page 35


 1444 009a 4749     		ldr	r1, .L131+32
 1445 009c FFF7FEFF 		bl	__aeabi_fmul
 1446              	.LVL194:
 336:Core/Src/main.c ****     float speed2 = (float)cnt2 * 20 / 531 * 20.4;
 1447              		.loc 1 336 37 view .LVU337
 1448 00a0 4749     		ldr	r1, .L131+40
 1449 00a2 FFF7FEFF 		bl	__aeabi_fdiv
 1450              	.LVL195:
 1451 00a6 FFF7FEFF 		bl	__aeabi_f2d
 1452              	.LVL196:
 336:Core/Src/main.c ****     float speed2 = (float)cnt2 * 20 / 531 * 20.4;
 1453              		.loc 1 336 43 view .LVU338
 1454 00aa 3BA3     		adr	r3, .L131
 1455 00ac D3E90023 		ldrd	r2, [r3]
 1456 00b0 FFF7FEFF 		bl	__aeabi_dmul
 1457              	.LVL197:
 336:Core/Src/main.c ****     float speed2 = (float)cnt2 * 20 / 531 * 20.4;
 1458              		.loc 1 336 11 view .LVU339
 1459 00b4 FFF7FEFF 		bl	__aeabi_d2f
 1460              	.LVL198:
 1461 00b8 8246     		mov	r10, r0
 1462              	.LVL199:
 337:Core/Src/main.c ****     float speed3 = (float)cnt3 * 20 / 530 * 20.4;
 1463              		.loc 1 337 5 is_stmt 1 view .LVU340
 337:Core/Src/main.c ****     float speed3 = (float)cnt3 * 20 / 530 * 20.4;
 1464              		.loc 1 337 20 is_stmt 0 view .LVU341
 1465 00ba 3046     		mov	r0, r6
 1466              	.LVL200:
 337:Core/Src/main.c ****     float speed3 = (float)cnt3 * 20 / 530 * 20.4;
 1467              		.loc 1 337 20 view .LVU342
 1468 00bc FFF7FEFF 		bl	__aeabi_ui2f
 1469              	.LVL201:
 337:Core/Src/main.c ****     float speed3 = (float)cnt3 * 20 / 530 * 20.4;
 1470              		.loc 1 337 32 view .LVU343
 1471 00c0 3D49     		ldr	r1, .L131+32
 1472 00c2 FFF7FEFF 		bl	__aeabi_fmul
 1473              	.LVL202:
 337:Core/Src/main.c ****     float speed3 = (float)cnt3 * 20 / 530 * 20.4;
 1474              		.loc 1 337 37 view .LVU344
 1475 00c6 3E49     		ldr	r1, .L131+40
 1476 00c8 FFF7FEFF 		bl	__aeabi_fdiv
 1477              	.LVL203:
 1478 00cc FFF7FEFF 		bl	__aeabi_f2d
 1479              	.LVL204:
 337:Core/Src/main.c ****     float speed3 = (float)cnt3 * 20 / 530 * 20.4;
 1480              		.loc 1 337 43 view .LVU345
 1481 00d0 31A3     		adr	r3, .L131
 1482 00d2 D3E90023 		ldrd	r2, [r3]
 1483 00d6 FFF7FEFF 		bl	__aeabi_dmul
 1484              	.LVL205:
 337:Core/Src/main.c ****     float speed3 = (float)cnt3 * 20 / 530 * 20.4;
 1485              		.loc 1 337 11 view .LVU346
 1486 00da FFF7FEFF 		bl	__aeabi_d2f
 1487              	.LVL206:
 1488 00de 0746     		mov	r7, r0
 1489              	.LVL207:
 338:Core/Src/main.c **** 
ARM GAS  C:\Users\86183\AppData\Local\Temp\ccAkzFZ3.s 			page 36


 1490              		.loc 1 338 5 is_stmt 1 view .LVU347
 338:Core/Src/main.c **** 
 1491              		.loc 1 338 20 is_stmt 0 view .LVU348
 1492 00e0 2846     		mov	r0, r5
 1493              	.LVL208:
 338:Core/Src/main.c **** 
 1494              		.loc 1 338 20 view .LVU349
 1495 00e2 FFF7FEFF 		bl	__aeabi_ui2f
 1496              	.LVL209:
 338:Core/Src/main.c **** 
 1497              		.loc 1 338 32 view .LVU350
 1498 00e6 3449     		ldr	r1, .L131+32
 1499 00e8 FFF7FEFF 		bl	__aeabi_fmul
 1500              	.LVL210:
 338:Core/Src/main.c **** 
 1501              		.loc 1 338 37 view .LVU351
 1502 00ec 3549     		ldr	r1, .L131+44
 1503 00ee FFF7FEFF 		bl	__aeabi_fdiv
 1504              	.LVL211:
 1505 00f2 FFF7FEFF 		bl	__aeabi_f2d
 1506              	.LVL212:
 338:Core/Src/main.c **** 
 1507              		.loc 1 338 43 view .LVU352
 1508 00f6 28A3     		adr	r3, .L131
 1509 00f8 D3E90023 		ldrd	r2, [r3]
 1510 00fc FFF7FEFF 		bl	__aeabi_dmul
 1511              	.LVL213:
 338:Core/Src/main.c **** 
 1512              		.loc 1 338 11 view .LVU353
 1513 0100 FFF7FEFF 		bl	__aeabi_d2f
 1514              	.LVL214:
 1515 0104 0546     		mov	r5, r0
 1516              	.LVL215:
 340:Core/Src/main.c **** 
 1517              		.loc 1 340 5 is_stmt 1 view .LVU354
 340:Core/Src/main.c **** 
 1518              		.loc 1 340 25 is_stmt 0 view .LVU355
 1519 0106 5146     		mov	r1, r10
 1520 0108 5846     		mov	r0, fp
 1521              	.LVL216:
 340:Core/Src/main.c **** 
 1522              		.loc 1 340 25 view .LVU356
 1523 010a FFF7FEFF 		bl	__aeabi_fadd
 1524              	.LVL217:
 340:Core/Src/main.c **** 
 1525              		.loc 1 340 34 view .LVU357
 1526 010e 3946     		mov	r1, r7
 1527 0110 FFF7FEFF 		bl	__aeabi_fadd
 1528              	.LVL218:
 340:Core/Src/main.c **** 
 1529              		.loc 1 340 43 view .LVU358
 1530 0114 2946     		mov	r1, r5
 1531 0116 FFF7FEFF 		bl	__aeabi_fadd
 1532              	.LVL219:
 1533 011a FFF7FEFF 		bl	__aeabi_f2d
 1534              	.LVL220:
 340:Core/Src/main.c **** 
ARM GAS  C:\Users\86183\AppData\Local\Temp\ccAkzFZ3.s 			page 37


 1535              		.loc 1 340 53 view .LVU359
 1536 011e 20A3     		adr	r3, .L131+8
 1537 0120 D3E90023 		ldrd	r2, [r3]
 1538 0124 FFF7FEFF 		bl	__aeabi_dmul
 1539              	.LVL221:
 1540 0128 8046     		mov	r8, r0
 1541 012a 8946     		mov	r9, r1
 340:Core/Src/main.c **** 
 1542              		.loc 1 340 14 view .LVU360
 1543 012c 264E     		ldr	r6, .L131+48
 1544              	.LVL222:
 340:Core/Src/main.c **** 
 1545              		.loc 1 340 14 view .LVU361
 1546 012e 3068     		ldr	r0, [r6]	@ float
 1547 0130 FFF7FEFF 		bl	__aeabi_f2d
 1548              	.LVL223:
 1549 0134 4246     		mov	r2, r8
 1550 0136 4B46     		mov	r3, r9
 1551 0138 FFF7FEFF 		bl	__aeabi_dadd
 1552              	.LVL224:
 1553 013c FFF7FEFF 		bl	__aeabi_d2f
 1554              	.LVL225:
 1555 0140 3060     		str	r0, [r6]	@ float
 342:Core/Src/main.c ****     int pwm1 = (int)PID(speed1, target[1], 1);
 1556              		.loc 1 342 5 is_stmt 1 view .LVU362
 342:Core/Src/main.c ****     int pwm1 = (int)PID(speed1, target[1], 1);
 1557              		.loc 1 342 21 is_stmt 0 view .LVU363
 1558 0142 224E     		ldr	r6, .L131+52
 1559 0144 2246     		mov	r2, r4
 1560 0146 3168     		ldr	r1, [r6]	@ float
 1561 0148 5846     		mov	r0, fp
 1562 014a FFF7FEFF 		bl	PID
 1563              	.LVL226:
 342:Core/Src/main.c ****     int pwm1 = (int)PID(speed1, target[1], 1);
 1564              		.loc 1 342 9 view .LVU364
 1565 014e FFF7FEFF 		bl	__aeabi_f2iz
 1566              	.LVL227:
 1567 0152 0446     		mov	r4, r0
 1568              	.LVL228:
 343:Core/Src/main.c ****     int pwm2 = (int)PID(speed2, target[2], 2);
 1569              		.loc 1 343 5 is_stmt 1 view .LVU365
 343:Core/Src/main.c ****     int pwm2 = (int)PID(speed2, target[2], 2);
 1570              		.loc 1 343 21 is_stmt 0 view .LVU366
 1571 0154 0122     		movs	r2, #1
 1572 0156 7168     		ldr	r1, [r6, #4]	@ float
 1573 0158 5046     		mov	r0, r10
 1574              	.LVL229:
 343:Core/Src/main.c ****     int pwm2 = (int)PID(speed2, target[2], 2);
 1575              		.loc 1 343 21 view .LVU367
 1576 015a FFF7FEFF 		bl	PID
 1577              	.LVL230:
 343:Core/Src/main.c ****     int pwm2 = (int)PID(speed2, target[2], 2);
 1578              		.loc 1 343 9 view .LVU368
 1579 015e FFF7FEFF 		bl	__aeabi_f2iz
 1580              	.LVL231:
 1581 0162 8046     		mov	r8, r0
 1582              	.LVL232:
ARM GAS  C:\Users\86183\AppData\Local\Temp\ccAkzFZ3.s 			page 38


 344:Core/Src/main.c ****     int pwm3 = (int)PID(speed3, target[3], 3);
 1583              		.loc 1 344 5 is_stmt 1 view .LVU369
 344:Core/Src/main.c ****     int pwm3 = (int)PID(speed3, target[3], 3);
 1584              		.loc 1 344 21 is_stmt 0 view .LVU370
 1585 0164 0222     		movs	r2, #2
 1586 0166 B168     		ldr	r1, [r6, #8]	@ float
 1587 0168 3846     		mov	r0, r7
 1588              	.LVL233:
 344:Core/Src/main.c ****     int pwm3 = (int)PID(speed3, target[3], 3);
 1589              		.loc 1 344 21 view .LVU371
 1590 016a FFF7FEFF 		bl	PID
 1591              	.LVL234:
 344:Core/Src/main.c ****     int pwm3 = (int)PID(speed3, target[3], 3);
 1592              		.loc 1 344 9 view .LVU372
 1593 016e FFF7FEFF 		bl	__aeabi_f2iz
 1594              	.LVL235:
 1595 0172 0746     		mov	r7, r0
 1596              	.LVL236:
 345:Core/Src/main.c **** 
 1597              		.loc 1 345 5 is_stmt 1 view .LVU373
 345:Core/Src/main.c **** 
 1598              		.loc 1 345 21 is_stmt 0 view .LVU374
 1599 0174 0322     		movs	r2, #3
 1600 0176 F168     		ldr	r1, [r6, #12]	@ float
 1601 0178 2846     		mov	r0, r5
 1602              	.LVL237:
 345:Core/Src/main.c **** 
 1603              		.loc 1 345 21 view .LVU375
 1604 017a FFF7FEFF 		bl	PID
 1605              	.LVL238:
 345:Core/Src/main.c **** 
 1606              		.loc 1 345 9 view .LVU376
 1607 017e FFF7FEFF 		bl	__aeabi_f2iz
 1608              	.LVL239:
 347:Core/Src/main.c ****     __HAL_TIM_SetCompare(&htim1, TIM_CHANNEL_2, pwm1);
 1609              		.loc 1 347 5 is_stmt 1 view .LVU377
 1610 0182 134B     		ldr	r3, .L131+56
 1611 0184 1B68     		ldr	r3, [r3]
 1612 0186 5C63     		str	r4, [r3, #52]
 348:Core/Src/main.c ****     __HAL_TIM_SetCompare(&htim1, TIM_CHANNEL_3, pwm2);
 1613              		.loc 1 348 5 view .LVU378
 1614 0188 C3F83880 		str	r8, [r3, #56]
 349:Core/Src/main.c ****     __HAL_TIM_SetCompare(&htim1, TIM_CHANNEL_4, pwm3);
 1615              		.loc 1 349 5 view .LVU379
 1616 018c DF63     		str	r7, [r3, #60]
 350:Core/Src/main.c ****   }
 1617              		.loc 1 350 5 view .LVU380
 1618 018e 1864     		str	r0, [r3, #64]
 1619              	.LBE17:
 1620              		.loc 1 352 1 is_stmt 0 view .LVU381
 1621 0190 3CE7     		b	.L123
 1622              	.L132:
 1623 0192 00BFAFF3 		.align	3
 1623      0080
 1624              	.L131:
 1625 0198 66666666 		.word	1717986918
 1626 019c 66663440 		.word	1077175910
ARM GAS  C:\Users\86183\AppData\Local\Temp\ccAkzFZ3.s 			page 39


 1627 01a0 9A999999 		.word	-1717986918
 1628 01a4 9999893F 		.word	1065982361
 1629 01a8 00000000 		.word	htim3
 1630 01ac 00000000 		.word	htim4
 1631 01b0 00000000 		.word	htim5
 1632 01b4 00000000 		.word	htim8
 1633 01b8 0000A041 		.word	1101004800
 1634 01bc 00000544 		.word	1141178368
 1635 01c0 00C00444 		.word	1141161984
 1636 01c4 00800444 		.word	1141145600
 1637 01c8 00000000 		.word	.LANCHOR0
 1638 01cc 00000000 		.word	.LANCHOR9
 1639 01d0 00000000 		.word	htim1
 1640              		.cfi_endproc
 1641              	.LFE75:
 1643              		.global	__aeabi_i2f
 1644              		.global	__aeabi_i2d
 1645              		.global	__aeabi_d2iz
 1646              		.section	.text.getCarPosX2,"ax",%progbits
 1647              		.align	1
 1648              		.global	getCarPosX2
 1649              		.syntax unified
 1650              		.thumb
 1651              		.thumb_func
 1652              		.fpu softvfp
 1654              	getCarPosX2:
 1655              	.LFB76:
 353:Core/Src/main.c **** 
 354:Core/Src/main.c **** // float getCarPosX2()
 355:Core/Src/main.c **** // {
 356:Core/Src/main.c **** //   float now_X, BeaDis[3];
 357:Core/Src/main.c **** //   for (int i = 0; i < 3; i++)
 358:Core/Src/main.c **** //     BeaDis[i] = (float)getDistanceOfMyBeacon(i);
 359:Core/Src/main.c **** //   float k = 1.0 * (BeaDis[0] - BeaDis[1] + BeaconDir[1][1] * BeaconDir[1][1] - BeaconDir[0][1] *
 360:Core/Src/main.c **** //   float b = 1.0 * (BeaconDir[1][0] - BeaconDir[0][0]) / (BeaconDir[1][1] - BeaconDir[0][1]);
 361:Core/Src/main.c **** //   float delta = 1.0 * (2 * b * BeaconDir[0][1] - 2 * k * b - 2 * BeaconDir[0][0]) * (2 * b * Bea
 362:Core/Src/main.c **** //   now_X = 1.0 * (-(2 * b * BeaconDir[0][1] - 2 * k * b - 2 * BeaconDir[0][0]) + sqrt(delta)) / 2
 363:Core/Src/main.c **** //   return now_X;
 364:Core/Src/main.c **** // }
 365:Core/Src/main.c **** 
 366:Core/Src/main.c **** // float getCarPosY2()
 367:Core/Src/main.c **** // {
 368:Core/Src/main.c **** //   float now_X, BeaDis[3];
 369:Core/Src/main.c **** //   for (int i = 0; i < 3; i++)
 370:Core/Src/main.c **** //     BeaDis[i] = (float)getDistanceOfMyBeacon(i);
 371:Core/Src/main.c **** //   float k = 1.0 * (BeaDis[0] - BeaDis[1] + BeaconDir[1][1] * BeaconDir[1][1] - BeaconDir[0][1] *
 372:Core/Src/main.c **** //   float b = 1.0 * (BeaconDir[1][0] - BeaconDir[0][0]) / (BeaconDir[1][1] - BeaconDir[0][1]);
 373:Core/Src/main.c **** //   float delta = 1.0 * (2 * b * BeaconDir[0][1] - 2 * k * b - 2 * BeaconDir[0][0]) * (2 * b * Bea
 374:Core/Src/main.c **** //   now_X = 1.0 * (-(2 * b * BeaconDir[0][1] - 2 * k * b - 2 * BeaconDir[0][0]) + sqrt(delta)) / 2
 375:Core/Src/main.c **** //   return k - b * now_X;
 376:Core/Src/main.c **** // }
 377:Core/Src/main.c **** 
 378:Core/Src/main.c **** float getCarPosX2(void)
 379:Core/Src/main.c **** {
 1656              		.loc 1 379 1 is_stmt 1 view -0
 1657              		.cfi_startproc
 1658              		@ args = 0, pretend = 0, frame = 128
ARM GAS  C:\Users\86183\AppData\Local\Temp\ccAkzFZ3.s 			page 40


 1659              		@ frame_needed = 0, uses_anonymous_args = 0
 1660 0000 2DE9F04F 		push	{r4, r5, r6, r7, r8, r9, r10, fp, lr}
 1661              	.LCFI9:
 1662              		.cfi_def_cfa_offset 36
 1663              		.cfi_offset 4, -36
 1664              		.cfi_offset 5, -32
 1665              		.cfi_offset 6, -28
 1666              		.cfi_offset 7, -24
 1667              		.cfi_offset 8, -20
 1668              		.cfi_offset 9, -16
 1669              		.cfi_offset 10, -12
 1670              		.cfi_offset 11, -8
 1671              		.cfi_offset 14, -4
 1672 0004 A1B0     		sub	sp, sp, #132
 1673              	.LCFI10:
 1674              		.cfi_def_cfa_offset 168
 380:Core/Src/main.c ****   int x[3], y[3], beaconD[3], xBase, yBase, cnt = 0;
 1675              		.loc 1 380 3 view .LVU383
 1676              	.LVL240:
 381:Core/Src/main.c ****   float A[2], B[2], C[2], xTemp[2], yTemp[2], xRes = 0, yRes = 0;
 1677              		.loc 1 381 3 view .LVU384
 382:Core/Src/main.c ****   for (int i = 0; i < 3; i++)
 1678              		.loc 1 382 3 view .LVU385
 1679              	.LBB18:
 1680              		.loc 1 382 8 view .LVU386
 1681              		.loc 1 382 12 is_stmt 0 view .LVU387
 1682 0006 0024     		movs	r4, #0
 1683              	.LVL241:
 1684              	.L134:
 1685              		.loc 1 382 19 is_stmt 1 discriminator 1 view .LVU388
 1686              		.loc 1 382 3 is_stmt 0 discriminator 1 view .LVU389
 1687 0008 022C     		cmp	r4, #2
 1688 000a 13DC     		bgt	.L142
 383:Core/Src/main.c ****   {
 384:Core/Src/main.c ****     x[i] = getMyBeaconPosX(i);
 1689              		.loc 1 384 5 is_stmt 1 discriminator 3 view .LVU390
 1690              		.loc 1 384 12 is_stmt 0 discriminator 3 view .LVU391
 1691 000c 2046     		mov	r0, r4
 1692 000e FFF7FEFF 		bl	getMyBeaconPosX
 1693              	.LVL242:
 1694              		.loc 1 384 10 discriminator 3 view .LVU392
 1695 0012 20AB     		add	r3, sp, #128
 1696 0014 03EB8405 		add	r5, r3, r4, lsl #2
 1697 0018 45F80C0C 		str	r0, [r5, #-12]
 385:Core/Src/main.c ****     y[i] = getMyBeaconPosY(i);
 1698              		.loc 1 385 5 is_stmt 1 discriminator 3 view .LVU393
 1699              		.loc 1 385 12 is_stmt 0 discriminator 3 view .LVU394
 1700 001c 2046     		mov	r0, r4
 1701 001e FFF7FEFF 		bl	getMyBeaconPosY
 1702              	.LVL243:
 1703              		.loc 1 385 10 discriminator 3 view .LVU395
 1704 0022 45F8180C 		str	r0, [r5, #-24]
 386:Core/Src/main.c ****     beaconD[i] = getDistanceOfMyBeacon(i);
 1705              		.loc 1 386 5 is_stmt 1 discriminator 3 view .LVU396
 1706              		.loc 1 386 18 is_stmt 0 discriminator 3 view .LVU397
 1707 0026 2046     		mov	r0, r4
 1708 0028 FFF7FEFF 		bl	getDistanceOfMyBeacon
ARM GAS  C:\Users\86183\AppData\Local\Temp\ccAkzFZ3.s 			page 41


 1709              	.LVL244:
 1710              		.loc 1 386 16 discriminator 3 view .LVU398
 1711 002c 45F8240C 		str	r0, [r5, #-36]
 382:Core/Src/main.c ****   {
 1712              		.loc 1 382 26 is_stmt 1 discriminator 3 view .LVU399
 382:Core/Src/main.c ****   {
 1713              		.loc 1 382 27 is_stmt 0 discriminator 3 view .LVU400
 1714 0030 0134     		adds	r4, r4, #1
 1715              	.LVL245:
 382:Core/Src/main.c ****   {
 1716              		.loc 1 382 27 discriminator 3 view .LVU401
 1717 0032 E9E7     		b	.L134
 1718              	.L142:
 382:Core/Src/main.c ****   {
 1719              		.loc 1 382 27 discriminator 3 view .LVU402
 1720              	.LBE18:
 387:Core/Src/main.c ****   }
 388:Core/Src/main.c ****   A[0] = x[1] - x[0];
 1721              		.loc 1 388 3 is_stmt 1 view .LVU403
 1722              		.loc 1 388 11 is_stmt 0 view .LVU404
 1723 0034 1E9E     		ldr	r6, [sp, #120]
 1724 0036 0496     		str	r6, [sp, #16]
 1725              		.loc 1 388 18 view .LVU405
 1726 0038 1D9D     		ldr	r5, [sp, #116]
 1727              		.loc 1 388 8 view .LVU406
 1728 003a 701B     		subs	r0, r6, r5
 1729 003c FFF7FEFF 		bl	__aeabi_i2f
 1730              	.LVL246:
 1731 0040 8046     		mov	r8, r0
 1732 0042 1590     		str	r0, [sp, #84]	@ float
 389:Core/Src/main.c ****   B[0] = y[1] - y[0];
 1733              		.loc 1 389 3 is_stmt 1 view .LVU407
 1734              		.loc 1 389 11 is_stmt 0 view .LVU408
 1735 0044 1B9B     		ldr	r3, [sp, #108]
 1736              		.loc 1 389 18 view .LVU409
 1737 0046 1A9C     		ldr	r4, [sp, #104]
 1738              	.LVL247:
 1739              		.loc 1 389 8 view .LVU410
 1740 0048 0393     		str	r3, [sp, #12]
 1741 004a 181B     		subs	r0, r3, r4
 1742 004c FFF7FEFF 		bl	__aeabi_i2f
 1743              	.LVL248:
 1744 0050 0190     		str	r0, [sp, #4]	@ float
 1745 0052 1390     		str	r0, [sp, #76]	@ float
 390:Core/Src/main.c ****   A[1] = x[2] - x[0];
 1746              		.loc 1 390 3 is_stmt 1 view .LVU411
 1747              		.loc 1 390 11 is_stmt 0 view .LVU412
 1748 0054 1F99     		ldr	r1, [sp, #124]
 1749              		.loc 1 390 8 view .LVU413
 1750 0056 0691     		str	r1, [sp, #24]
 1751 0058 481B     		subs	r0, r1, r5
 1752 005a FFF7FEFF 		bl	__aeabi_i2f
 1753              	.LVL249:
 1754 005e 8346     		mov	fp, r0
 1755 0060 1690     		str	r0, [sp, #88]	@ float
 391:Core/Src/main.c ****   B[1] = y[2] - y[0];
 1756              		.loc 1 391 3 is_stmt 1 view .LVU414
ARM GAS  C:\Users\86183\AppData\Local\Temp\ccAkzFZ3.s 			page 42


 1757              		.loc 1 391 11 is_stmt 0 view .LVU415
 1758 0062 1C98     		ldr	r0, [sp, #112]
 1759              		.loc 1 391 8 view .LVU416
 1760 0064 0790     		str	r0, [sp, #28]
 1761 0066 001B     		subs	r0, r0, r4
 1762 0068 FFF7FEFF 		bl	__aeabi_i2f
 1763              	.LVL250:
 1764 006c 8246     		mov	r10, r0
 1765 006e 1490     		str	r0, [sp, #80]	@ float
 392:Core/Src/main.c ****   xTemp[0] = (x[0] + x[1]) / 2 - A[0] * (sq(beaconD[1]) - sq(beaconD[0])) / (sq(A[0]) + sq(B[0])) /
 1766              		.loc 1 392 3 is_stmt 1 view .LVU417
 1767              		.loc 1 392 20 is_stmt 0 view .LVU418
 1768 0070 7719     		adds	r7, r6, r5
 1769              		.loc 1 392 28 view .LVU419
 1770 0072 07EBD777 		add	r7, r7, r7, lsr #31
 1771 0076 7F10     		asrs	r7, r7, #1
 1772              		.loc 1 392 42 view .LVU420
 1773 0078 1898     		ldr	r0, [sp, #96]
 1774 007a 0590     		str	r0, [sp, #20]
 1775 007c 00FB00F0 		mul	r0, r0, r0
 1776              		.loc 1 392 59 view .LVU421
 1777 0080 179E     		ldr	r6, [sp, #92]
 1778 0082 06FB06F9 		mul	r9, r6, r6
 1779              		.loc 1 392 39 view .LVU422
 1780 0086 A0EB0900 		sub	r0, r0, r9
 1781 008a FFF7FEFF 		bl	__aeabi_i2f
 1782              	.LVL251:
 1783 008e 0890     		str	r0, [sp, #32]	@ float
 1784 0090 0146     		mov	r1, r0
 1785 0092 4046     		mov	r0, r8
 1786 0094 FFF7FEFF 		bl	__aeabi_fmul
 1787              	.LVL252:
 1788 0098 0990     		str	r0, [sp, #36]	@ float
 1789              		.loc 1 392 78 view .LVU423
 1790 009a 4146     		mov	r1, r8
 1791 009c CDF80880 		str	r8, [sp, #8]	@ float
 1792 00a0 4046     		mov	r0, r8
 1793 00a2 FFF7FEFF 		bl	__aeabi_fmul
 1794              	.LVL253:
 1795 00a6 8046     		mov	r8, r0
 1796              		.loc 1 392 89 view .LVU424
 1797 00a8 DDF804C0 		ldr	ip, [sp, #4]	@ float
 1798 00ac 6146     		mov	r1, ip
 1799 00ae 6046     		mov	r0, ip
 1800 00b0 FFF7FEFF 		bl	__aeabi_fmul
 1801              	.LVL254:
 1802 00b4 0146     		mov	r1, r0
 1803              		.loc 1 392 87 view .LVU425
 1804 00b6 4046     		mov	r0, r8
 1805 00b8 FFF7FEFF 		bl	__aeabi_fadd
 1806              	.LVL255:
 1807 00bc 8046     		mov	r8, r0
 1808              		.loc 1 392 75 view .LVU426
 1809 00be 0146     		mov	r1, r0
 1810 00c0 0998     		ldr	r0, [sp, #36]	@ float
 1811 00c2 FFF7FEFF 		bl	__aeabi_fdiv
 1812              	.LVL256:
ARM GAS  C:\Users\86183\AppData\Local\Temp\ccAkzFZ3.s 			page 43


 1813              		.loc 1 392 99 view .LVU427
 1814 00c6 4FF07C51 		mov	r1, #1056964608
 1815 00ca FFF7FEFF 		bl	__aeabi_fmul
 1816              	.LVL257:
 1817 00ce 0990     		str	r0, [sp, #36]	@ float
 1818              		.loc 1 392 32 view .LVU428
 1819 00d0 3846     		mov	r0, r7
 1820 00d2 FFF7FEFF 		bl	__aeabi_i2f
 1821              	.LVL258:
 1822 00d6 0999     		ldr	r1, [sp, #36]	@ float
 1823 00d8 FFF7FEFF 		bl	__aeabi_fsub
 1824              	.LVL259:
 1825              		.loc 1 392 12 view .LVU429
 1826 00dc 0990     		str	r0, [sp, #36]	@ float
 1827 00de 0F90     		str	r0, [sp, #60]	@ float
 393:Core/Src/main.c ****   yTemp[0] = (y[0] + y[1]) / 2 - B[0] * (sq(beaconD[1]) - sq(beaconD[0])) / (sq(A[0]) + sq(B[0])) /
 1828              		.loc 1 393 3 is_stmt 1 view .LVU430
 1829              		.loc 1 393 20 is_stmt 0 view .LVU431
 1830 00e0 039B     		ldr	r3, [sp, #12]
 1831 00e2 1F19     		adds	r7, r3, r4
 1832              		.loc 1 393 28 view .LVU432
 1833 00e4 07EBD777 		add	r7, r7, r7, lsr #31
 1834 00e8 7F10     		asrs	r7, r7, #1
 1835              		.loc 1 393 39 view .LVU433
 1836 00ea 0899     		ldr	r1, [sp, #32]	@ float
 1837 00ec 0198     		ldr	r0, [sp, #4]	@ float
 1838 00ee FFF7FEFF 		bl	__aeabi_fmul
 1839              	.LVL260:
 1840              		.loc 1 393 75 view .LVU434
 1841 00f2 4146     		mov	r1, r8
 1842 00f4 FFF7FEFF 		bl	__aeabi_fdiv
 1843              	.LVL261:
 1844              		.loc 1 393 99 view .LVU435
 1845 00f8 4FF07C51 		mov	r1, #1056964608
 1846 00fc FFF7FEFF 		bl	__aeabi_fmul
 1847              	.LVL262:
 1848 0100 8046     		mov	r8, r0
 1849              		.loc 1 393 32 view .LVU436
 1850 0102 3846     		mov	r0, r7
 1851 0104 FFF7FEFF 		bl	__aeabi_i2f
 1852              	.LVL263:
 1853 0108 4146     		mov	r1, r8
 1854 010a FFF7FEFF 		bl	__aeabi_fsub
 1855              	.LVL264:
 1856              		.loc 1 393 12 view .LVU437
 1857 010e 0A90     		str	r0, [sp, #40]	@ float
 1858 0110 0D90     		str	r0, [sp, #52]	@ float
 394:Core/Src/main.c ****   xTemp[1] = (x[0] + x[2]) / 2 - A[1] * (sq(beaconD[2]) - sq(beaconD[0])) / (sq(A[1]) + sq(B[1])) /
 1859              		.loc 1 394 3 is_stmt 1 view .LVU438
 1860              		.loc 1 394 20 is_stmt 0 view .LVU439
 1861 0112 069A     		ldr	r2, [sp, #24]
 1862 0114 AF18     		adds	r7, r5, r2
 1863              		.loc 1 394 28 view .LVU440
 1864 0116 07EBD777 		add	r7, r7, r7, lsr #31
 1865 011a 7F10     		asrs	r7, r7, #1
 1866              		.loc 1 394 42 view .LVU441
 1867 011c 199A     		ldr	r2, [sp, #100]
ARM GAS  C:\Users\86183\AppData\Local\Temp\ccAkzFZ3.s 			page 44


 1868 011e 0B92     		str	r2, [sp, #44]
 1869 0120 02FB02F0 		mul	r0, r2, r2
 1870              		.loc 1 394 39 view .LVU442
 1871 0124 A0EB0900 		sub	r0, r0, r9
 1872 0128 FFF7FEFF 		bl	__aeabi_i2f
 1873              	.LVL265:
 1874 012c 0890     		str	r0, [sp, #32]	@ float
 1875 012e 0146     		mov	r1, r0
 1876 0130 5846     		mov	r0, fp
 1877 0132 FFF7FEFF 		bl	__aeabi_fmul
 1878              	.LVL266:
 1879 0136 8146     		mov	r9, r0
 1880              		.loc 1 394 78 view .LVU443
 1881 0138 5946     		mov	r1, fp
 1882 013a 5846     		mov	r0, fp
 1883 013c FFF7FEFF 		bl	__aeabi_fmul
 1884              	.LVL267:
 1885 0140 8046     		mov	r8, r0
 1886              		.loc 1 394 89 view .LVU444
 1887 0142 5146     		mov	r1, r10
 1888 0144 5046     		mov	r0, r10
 1889 0146 FFF7FEFF 		bl	__aeabi_fmul
 1890              	.LVL268:
 1891 014a 0146     		mov	r1, r0
 1892              		.loc 1 394 87 view .LVU445
 1893 014c 4046     		mov	r0, r8
 1894 014e FFF7FEFF 		bl	__aeabi_fadd
 1895              	.LVL269:
 1896 0152 8046     		mov	r8, r0
 1897              		.loc 1 394 75 view .LVU446
 1898 0154 0146     		mov	r1, r0
 1899 0156 4846     		mov	r0, r9
 1900 0158 FFF7FEFF 		bl	__aeabi_fdiv
 1901              	.LVL270:
 1902              		.loc 1 394 99 view .LVU447
 1903 015c 4FF07C51 		mov	r1, #1056964608
 1904 0160 FFF7FEFF 		bl	__aeabi_fmul
 1905              	.LVL271:
 1906 0164 8146     		mov	r9, r0
 1907              		.loc 1 394 32 view .LVU448
 1908 0166 3846     		mov	r0, r7
 1909 0168 FFF7FEFF 		bl	__aeabi_i2f
 1910              	.LVL272:
 1911 016c 4946     		mov	r1, r9
 1912 016e FFF7FEFF 		bl	__aeabi_fsub
 1913              	.LVL273:
 1914 0172 8146     		mov	r9, r0
 1915              		.loc 1 394 12 view .LVU449
 1916 0174 1090     		str	r0, [sp, #64]	@ float
 395:Core/Src/main.c ****   yTemp[1] = (y[0] + y[2]) / 2 - B[1] * (sq(beaconD[2]) - sq(beaconD[0])) / (sq(A[1]) + sq(B[1])) /
 1917              		.loc 1 395 3 is_stmt 1 view .LVU450
 1918              		.loc 1 395 20 is_stmt 0 view .LVU451
 1919 0176 079B     		ldr	r3, [sp, #28]
 1920 0178 E718     		adds	r7, r4, r3
 1921              		.loc 1 395 28 view .LVU452
 1922 017a 07EBD777 		add	r7, r7, r7, lsr #31
 1923 017e 7F10     		asrs	r7, r7, #1
ARM GAS  C:\Users\86183\AppData\Local\Temp\ccAkzFZ3.s 			page 45


 1924              		.loc 1 395 39 view .LVU453
 1925 0180 0899     		ldr	r1, [sp, #32]	@ float
 1926 0182 5046     		mov	r0, r10
 1927 0184 FFF7FEFF 		bl	__aeabi_fmul
 1928              	.LVL274:
 1929              		.loc 1 395 75 view .LVU454
 1930 0188 4146     		mov	r1, r8
 1931 018a FFF7FEFF 		bl	__aeabi_fdiv
 1932              	.LVL275:
 1933              		.loc 1 395 99 view .LVU455
 1934 018e 4FF07C51 		mov	r1, #1056964608
 1935 0192 FFF7FEFF 		bl	__aeabi_fmul
 1936              	.LVL276:
 1937 0196 8046     		mov	r8, r0
 1938              		.loc 1 395 32 view .LVU456
 1939 0198 3846     		mov	r0, r7
 1940 019a FFF7FEFF 		bl	__aeabi_i2f
 1941              	.LVL277:
 1942 019e 4146     		mov	r1, r8
 1943 01a0 FFF7FEFF 		bl	__aeabi_fsub
 1944              	.LVL278:
 1945 01a4 8046     		mov	r8, r0
 1946              		.loc 1 395 12 view .LVU457
 1947 01a6 0E90     		str	r0, [sp, #56]	@ float
 396:Core/Src/main.c ****   C[0] = A[0] * xTemp[0] + B[0] * yTemp[0];
 1948              		.loc 1 396 3 is_stmt 1 view .LVU458
 1949              		.loc 1 396 15 is_stmt 0 view .LVU459
 1950 01a8 0999     		ldr	r1, [sp, #36]	@ float
 1951 01aa 0298     		ldr	r0, [sp, #8]	@ float
 1952 01ac FFF7FEFF 		bl	__aeabi_fmul
 1953              	.LVL279:
 1954 01b0 0746     		mov	r7, r0
 1955              		.loc 1 396 33 view .LVU460
 1956 01b2 0A99     		ldr	r1, [sp, #40]	@ float
 1957 01b4 0198     		ldr	r0, [sp, #4]	@ float
 1958 01b6 FFF7FEFF 		bl	__aeabi_fmul
 1959              	.LVL280:
 1960 01ba 0146     		mov	r1, r0
 1961              		.loc 1 396 26 view .LVU461
 1962 01bc 3846     		mov	r0, r7
 1963 01be FFF7FEFF 		bl	__aeabi_fadd
 1964              	.LVL281:
 1965 01c2 0746     		mov	r7, r0
 1966              		.loc 1 396 8 view .LVU462
 1967 01c4 1190     		str	r0, [sp, #68]	@ float
 397:Core/Src/main.c ****   C[1] = A[1] * xTemp[1] + B[1] * yTemp[1];
 1968              		.loc 1 397 3 is_stmt 1 view .LVU463
 1969              		.loc 1 397 15 is_stmt 0 view .LVU464
 1970 01c6 4946     		mov	r1, r9
 1971 01c8 5846     		mov	r0, fp
 1972 01ca FFF7FEFF 		bl	__aeabi_fmul
 1973              	.LVL282:
 1974 01ce 8146     		mov	r9, r0
 1975              		.loc 1 397 33 view .LVU465
 1976 01d0 4146     		mov	r1, r8
 1977 01d2 5046     		mov	r0, r10
 1978 01d4 FFF7FEFF 		bl	__aeabi_fmul
ARM GAS  C:\Users\86183\AppData\Local\Temp\ccAkzFZ3.s 			page 46


 1979              	.LVL283:
 1980 01d8 0146     		mov	r1, r0
 1981              		.loc 1 397 26 view .LVU466
 1982 01da 4846     		mov	r0, r9
 1983 01dc FFF7FEFF 		bl	__aeabi_fadd
 1984              	.LVL284:
 1985 01e0 8046     		mov	r8, r0
 1986              		.loc 1 397 8 view .LVU467
 1987 01e2 1290     		str	r0, [sp, #72]	@ float
 398:Core/Src/main.c ****   xBase = (C[0] * B[1] - C[1] * B[0]) / (A[0] * B[1] - A[1] * B[0]);
 1988              		.loc 1 398 3 is_stmt 1 view .LVU468
 1989              		.loc 1 398 17 is_stmt 0 view .LVU469
 1990 01e4 3946     		mov	r1, r7
 1991 01e6 5046     		mov	r0, r10
 1992 01e8 FFF7FEFF 		bl	__aeabi_fmul
 1993              	.LVL285:
 1994 01ec 8146     		mov	r9, r0
 1995              		.loc 1 398 31 view .LVU470
 1996 01ee 4146     		mov	r1, r8
 1997 01f0 0198     		ldr	r0, [sp, #4]	@ float
 1998 01f2 FFF7FEFF 		bl	__aeabi_fmul
 1999              	.LVL286:
 2000 01f6 0146     		mov	r1, r0
 2001              		.loc 1 398 24 view .LVU471
 2002 01f8 4846     		mov	r0, r9
 2003 01fa FFF7FEFF 		bl	__aeabi_fsub
 2004              	.LVL287:
 2005 01fe 8146     		mov	r9, r0
 2006              		.loc 1 398 47 view .LVU472
 2007 0200 5146     		mov	r1, r10
 2008 0202 0298     		ldr	r0, [sp, #8]	@ float
 2009 0204 FFF7FEFF 		bl	__aeabi_fmul
 2010              	.LVL288:
 2011 0208 8246     		mov	r10, r0
 2012              		.loc 1 398 61 view .LVU473
 2013 020a 5946     		mov	r1, fp
 2014 020c 0198     		ldr	r0, [sp, #4]	@ float
 2015 020e FFF7FEFF 		bl	__aeabi_fmul
 2016              	.LVL289:
 2017 0212 0146     		mov	r1, r0
 2018              		.loc 1 398 54 view .LVU474
 2019 0214 5046     		mov	r0, r10
 2020 0216 FFF7FEFF 		bl	__aeabi_fsub
 2021              	.LVL290:
 2022 021a 8246     		mov	r10, r0
 2023              		.loc 1 398 39 view .LVU475
 2024 021c 0146     		mov	r1, r0
 2025 021e 4846     		mov	r0, r9
 2026 0220 FFF7FEFF 		bl	__aeabi_fdiv
 2027              	.LVL291:
 2028              		.loc 1 398 9 view .LVU476
 2029 0224 FFF7FEFF 		bl	__aeabi_f2iz
 2030              	.LVL292:
 2031 0228 8146     		mov	r9, r0
 2032              	.LVL293:
 399:Core/Src/main.c ****   yBase = (C[1] * A[0] - C[0] * A[1]) / (A[0] * B[1] - A[1] * B[0]);
 2033              		.loc 1 399 3 is_stmt 1 view .LVU477
ARM GAS  C:\Users\86183\AppData\Local\Temp\ccAkzFZ3.s 			page 47


 2034              		.loc 1 399 17 is_stmt 0 view .LVU478
 2035 022a 4146     		mov	r1, r8
 2036 022c 0298     		ldr	r0, [sp, #8]	@ float
 2037              	.LVL294:
 2038              		.loc 1 399 17 view .LVU479
 2039 022e FFF7FEFF 		bl	__aeabi_fmul
 2040              	.LVL295:
 2041 0232 8046     		mov	r8, r0
 2042              		.loc 1 399 31 view .LVU480
 2043 0234 3946     		mov	r1, r7
 2044 0236 5846     		mov	r0, fp
 2045 0238 FFF7FEFF 		bl	__aeabi_fmul
 2046              	.LVL296:
 2047 023c 0146     		mov	r1, r0
 2048              		.loc 1 399 24 view .LVU481
 2049 023e 4046     		mov	r0, r8
 2050 0240 FFF7FEFF 		bl	__aeabi_fsub
 2051              	.LVL297:
 2052              		.loc 1 399 39 view .LVU482
 2053 0244 5146     		mov	r1, r10
 2054 0246 FFF7FEFF 		bl	__aeabi_fdiv
 2055              	.LVL298:
 2056              		.loc 1 399 9 view .LVU483
 2057 024a FFF7FEFF 		bl	__aeabi_f2iz
 2058              	.LVL299:
 2059 024e 8246     		mov	r10, r0
 2060              	.LVL300:
 400:Core/Src/main.c ****   for (int i = -1; i < 2; i++)
 2061              		.loc 1 400 3 is_stmt 1 view .LVU484
 2062              	.LBB19:
 2063              		.loc 1 400 8 view .LVU485
 2064              		.loc 1 400 12 is_stmt 0 view .LVU486
 2065 0250 4FF0FF38 		mov	r8, #-1
 2066              	.LBE19:
 381:Core/Src/main.c ****   for (int i = 0; i < 3; i++)
 2067              		.loc 1 381 47 view .LVU487
 2068 0254 0023     		movs	r3, #0
 2069 0256 0193     		str	r3, [sp, #4]	@ float
 380:Core/Src/main.c ****   float A[2], B[2], C[2], xTemp[2], yTemp[2], xRes = 0, yRes = 0;
 2070              		.loc 1 380 45 view .LVU488
 2071 0258 4FF0000B 		mov	fp, #0
 2072              	.LBB22:
 2073              		.loc 1 400 3 view .LVU489
 2074 025c 4BE0     		b	.L136
 2075              	.LVL301:
 2076              	.L137:
 2077              	.LBB20:
 401:Core/Src/main.c ****     for (int j = -1; j < 2; j++)
 2078              		.loc 1 401 29 is_stmt 1 discriminator 2 view .LVU490
 2079              		.loc 1 401 30 is_stmt 0 discriminator 2 view .LVU491
 2080 025e 0137     		adds	r7, r7, #1
 2081              	.LVL302:
 2082              	.L139:
 2083              		.loc 1 401 22 is_stmt 1 discriminator 1 view .LVU492
 2084              		.loc 1 401 5 is_stmt 0 discriminator 1 view .LVU493
 2085 0260 012F     		cmp	r7, #1
 2086 0262 46DC     		bgt	.L143
ARM GAS  C:\Users\86183\AppData\Local\Temp\ccAkzFZ3.s 			page 48


 402:Core/Src/main.c ****       if ((int)sqrt(sq(xBase - x[0] + i) + sq(yBase - y[0] + j)) == beaconD[0] && (int)sqrt(sq(xBas
 2087              		.loc 1 402 7 is_stmt 1 view .LVU494
 2088              		.loc 1 402 21 is_stmt 0 view .LVU495
 2089 0264 A9EB0500 		sub	r0, r9, r5
 2090 0268 4044     		add	r0, r0, r8
 2091              		.loc 1 402 44 view .LVU496
 2092 026a AAEB0403 		sub	r3, r10, r4
 2093 026e 3B44     		add	r3, r3, r7
 2094 0270 03FB03F3 		mul	r3, r3, r3
 2095              		.loc 1 402 16 view .LVU497
 2096 0274 00FB0030 		mla	r0, r0, r0, r3
 2097 0278 FFF7FEFF 		bl	__aeabi_i2d
 2098              	.LVL303:
 2099 027c FFF7FEFF 		bl	sqrt
 2100              	.LVL304:
 2101              		.loc 1 402 11 view .LVU498
 2102 0280 FFF7FEFF 		bl	__aeabi_d2iz
 2103              	.LVL305:
 2104              		.loc 1 402 10 view .LVU499
 2105 0284 8642     		cmp	r6, r0
 2106 0286 EAD1     		bne	.L137
 2107              		.loc 1 402 93 discriminator 1 view .LVU500
 2108 0288 049B     		ldr	r3, [sp, #16]
 2109 028a A9EB0300 		sub	r0, r9, r3
 2110 028e 4044     		add	r0, r0, r8
 2111              		.loc 1 402 116 discriminator 1 view .LVU501
 2112 0290 039B     		ldr	r3, [sp, #12]
 2113 0292 AAEB0303 		sub	r3, r10, r3
 2114 0296 3B44     		add	r3, r3, r7
 2115 0298 03FB03F3 		mul	r3, r3, r3
 2116              		.loc 1 402 88 discriminator 1 view .LVU502
 2117 029c 00FB0030 		mla	r0, r0, r0, r3
 2118 02a0 FFF7FEFF 		bl	__aeabi_i2d
 2119              	.LVL306:
 2120 02a4 FFF7FEFF 		bl	sqrt
 2121              	.LVL307:
 2122              		.loc 1 402 83 discriminator 1 view .LVU503
 2123 02a8 FFF7FEFF 		bl	__aeabi_d2iz
 2124              	.LVL308:
 2125              		.loc 1 402 80 discriminator 1 view .LVU504
 2126 02ac 059B     		ldr	r3, [sp, #20]
 2127 02ae 8342     		cmp	r3, r0
 2128 02b0 D5D1     		bne	.L137
 2129              		.loc 1 402 165 discriminator 2 view .LVU505
 2130 02b2 069B     		ldr	r3, [sp, #24]
 2131 02b4 A9EB0300 		sub	r0, r9, r3
 2132 02b8 4044     		add	r0, r0, r8
 2133              		.loc 1 402 188 discriminator 2 view .LVU506
 2134 02ba 079B     		ldr	r3, [sp, #28]
 2135 02bc AAEB0303 		sub	r3, r10, r3
 2136 02c0 3B44     		add	r3, r3, r7
 2137 02c2 03FB03F3 		mul	r3, r3, r3
 2138              		.loc 1 402 160 discriminator 2 view .LVU507
 2139 02c6 00FB0030 		mla	r0, r0, r0, r3
 2140 02ca FFF7FEFF 		bl	__aeabi_i2d
 2141              	.LVL309:
 2142 02ce FFF7FEFF 		bl	sqrt
ARM GAS  C:\Users\86183\AppData\Local\Temp\ccAkzFZ3.s 			page 49


 2143              	.LVL310:
 2144              		.loc 1 402 155 discriminator 2 view .LVU508
 2145 02d2 FFF7FEFF 		bl	__aeabi_d2iz
 2146              	.LVL311:
 2147              		.loc 1 402 152 discriminator 2 view .LVU509
 2148 02d6 0B9B     		ldr	r3, [sp, #44]
 2149 02d8 8342     		cmp	r3, r0
 2150 02da C0D1     		bne	.L137
 403:Core/Src/main.c ****         xRes += i, yRes += j, cnt++;
 2151              		.loc 1 403 9 is_stmt 1 view .LVU510
 2152              		.loc 1 403 14 is_stmt 0 view .LVU511
 2153 02dc 4046     		mov	r0, r8
 2154 02de FFF7FEFF 		bl	__aeabi_i2f
 2155              	.LVL312:
 2156 02e2 0146     		mov	r1, r0
 2157 02e4 0198     		ldr	r0, [sp, #4]	@ float
 2158 02e6 FFF7FEFF 		bl	__aeabi_fadd
 2159              	.LVL313:
 2160 02ea 0190     		str	r0, [sp, #4]	@ float
 2161              	.LVL314:
 2162              		.loc 1 403 34 view .LVU512
 2163 02ec 0BF1010B 		add	fp, fp, #1
 2164              	.LVL315:
 2165              		.loc 1 403 34 view .LVU513
 2166 02f0 B5E7     		b	.L137
 2167              	.LVL316:
 2168              	.L143:
 2169              		.loc 1 403 34 view .LVU514
 2170              	.LBE20:
 400:Core/Src/main.c ****     for (int j = -1; j < 2; j++)
 2171              		.loc 1 400 27 is_stmt 1 discriminator 2 view .LVU515
 400:Core/Src/main.c ****     for (int j = -1; j < 2; j++)
 2172              		.loc 1 400 28 is_stmt 0 discriminator 2 view .LVU516
 2173 02f2 08F10108 		add	r8, r8, #1
 2174              	.LVL317:
 2175              	.L136:
 400:Core/Src/main.c ****     for (int j = -1; j < 2; j++)
 2176              		.loc 1 400 20 is_stmt 1 discriminator 1 view .LVU517
 400:Core/Src/main.c ****     for (int j = -1; j < 2; j++)
 2177              		.loc 1 400 3 is_stmt 0 discriminator 1 view .LVU518
 2178 02f6 B8F1010F 		cmp	r8, #1
 2179 02fa 02DC     		bgt	.L144
 2180              	.LBB21:
 401:Core/Src/main.c ****       if ((int)sqrt(sq(xBase - x[0] + i) + sq(yBase - y[0] + j)) == beaconD[0] && (int)sqrt(sq(xBas
 2181              		.loc 1 401 14 view .LVU519
 2182 02fc 4FF0FF37 		mov	r7, #-1
 2183 0300 AEE7     		b	.L139
 2184              	.L144:
 2185              	.LBE21:
 2186              	.LBE22:
 404:Core/Src/main.c ****   return xBase + xRes / cnt;
 2187              		.loc 1 404 3 is_stmt 1 view .LVU520
 2188              		.loc 1 404 23 is_stmt 0 view .LVU521
 2189 0302 5846     		mov	r0, fp
 2190 0304 FFF7FEFF 		bl	__aeabi_i2f
 2191              	.LVL318:
 2192 0308 0146     		mov	r1, r0
ARM GAS  C:\Users\86183\AppData\Local\Temp\ccAkzFZ3.s 			page 50


 2193 030a 0198     		ldr	r0, [sp, #4]	@ float
 2194 030c FFF7FEFF 		bl	__aeabi_fdiv
 2195              	.LVL319:
 2196 0310 0446     		mov	r4, r0
 2197              		.loc 1 404 16 view .LVU522
 2198 0312 4846     		mov	r0, r9
 2199 0314 FFF7FEFF 		bl	__aeabi_i2f
 2200              	.LVL320:
 2201 0318 2146     		mov	r1, r4
 2202 031a FFF7FEFF 		bl	__aeabi_fadd
 2203              	.LVL321:
 405:Core/Src/main.c **** }
 2204              		.loc 1 405 1 view .LVU523
 2205 031e 21B0     		add	sp, sp, #132
 2206              	.LCFI11:
 2207              		.cfi_def_cfa_offset 36
 2208              		@ sp needed
 2209 0320 BDE8F08F 		pop	{r4, r5, r6, r7, r8, r9, r10, fp, pc}
 2210              		.loc 1 405 1 view .LVU524
 2211              		.cfi_endproc
 2212              	.LFE76:
 2214              		.section	.text.getCarPosY2,"ax",%progbits
 2215              		.align	1
 2216              		.global	getCarPosY2
 2217              		.syntax unified
 2218              		.thumb
 2219              		.thumb_func
 2220              		.fpu softvfp
 2222              	getCarPosY2:
 2223              	.LFB77:
 406:Core/Src/main.c **** 
 407:Core/Src/main.c **** float getCarPosY2(void)
 408:Core/Src/main.c **** {
 2224              		.loc 1 408 1 is_stmt 1 view -0
 2225              		.cfi_startproc
 2226              		@ args = 0, pretend = 0, frame = 128
 2227              		@ frame_needed = 0, uses_anonymous_args = 0
 2228 0000 2DE9F04F 		push	{r4, r5, r6, r7, r8, r9, r10, fp, lr}
 2229              	.LCFI12:
 2230              		.cfi_def_cfa_offset 36
 2231              		.cfi_offset 4, -36
 2232              		.cfi_offset 5, -32
 2233              		.cfi_offset 6, -28
 2234              		.cfi_offset 7, -24
 2235              		.cfi_offset 8, -20
 2236              		.cfi_offset 9, -16
 2237              		.cfi_offset 10, -12
 2238              		.cfi_offset 11, -8
 2239              		.cfi_offset 14, -4
 2240 0004 A1B0     		sub	sp, sp, #132
 2241              	.LCFI13:
 2242              		.cfi_def_cfa_offset 168
 409:Core/Src/main.c ****   int x[3], y[3], beaconD[3], xBase, yBase, cnt = 0;
 2243              		.loc 1 409 3 view .LVU526
 2244              	.LVL322:
 410:Core/Src/main.c ****   float A[2], B[2], C[2], xTemp[2], yTemp[2], xRes = 0, yRes = 0;
 2245              		.loc 1 410 3 view .LVU527
ARM GAS  C:\Users\86183\AppData\Local\Temp\ccAkzFZ3.s 			page 51


 411:Core/Src/main.c ****   for (int i = 0; i < 3; i++)
 2246              		.loc 1 411 3 view .LVU528
 2247              	.LBB23:
 2248              		.loc 1 411 8 view .LVU529
 2249              		.loc 1 411 12 is_stmt 0 view .LVU530
 2250 0006 0024     		movs	r4, #0
 2251              	.LVL323:
 2252              	.L146:
 2253              		.loc 1 411 19 is_stmt 1 discriminator 1 view .LVU531
 2254              		.loc 1 411 3 is_stmt 0 discriminator 1 view .LVU532
 2255 0008 022C     		cmp	r4, #2
 2256 000a 13DC     		bgt	.L154
 412:Core/Src/main.c ****   {
 413:Core/Src/main.c ****     x[i] = getMyBeaconPosX(i);
 2257              		.loc 1 413 5 is_stmt 1 discriminator 3 view .LVU533
 2258              		.loc 1 413 12 is_stmt 0 discriminator 3 view .LVU534
 2259 000c 2046     		mov	r0, r4
 2260 000e FFF7FEFF 		bl	getMyBeaconPosX
 2261              	.LVL324:
 2262              		.loc 1 413 10 discriminator 3 view .LVU535
 2263 0012 20AB     		add	r3, sp, #128
 2264 0014 03EB8405 		add	r5, r3, r4, lsl #2
 2265 0018 45F80C0C 		str	r0, [r5, #-12]
 414:Core/Src/main.c ****     y[i] = getMyBeaconPosY(i);
 2266              		.loc 1 414 5 is_stmt 1 discriminator 3 view .LVU536
 2267              		.loc 1 414 12 is_stmt 0 discriminator 3 view .LVU537
 2268 001c 2046     		mov	r0, r4
 2269 001e FFF7FEFF 		bl	getMyBeaconPosY
 2270              	.LVL325:
 2271              		.loc 1 414 10 discriminator 3 view .LVU538
 2272 0022 45F8180C 		str	r0, [r5, #-24]
 415:Core/Src/main.c ****     beaconD[i] = getDistanceOfMyBeacon(i);
 2273              		.loc 1 415 5 is_stmt 1 discriminator 3 view .LVU539
 2274              		.loc 1 415 18 is_stmt 0 discriminator 3 view .LVU540
 2275 0026 2046     		mov	r0, r4
 2276 0028 FFF7FEFF 		bl	getDistanceOfMyBeacon
 2277              	.LVL326:
 2278              		.loc 1 415 16 discriminator 3 view .LVU541
 2279 002c 45F8240C 		str	r0, [r5, #-36]
 411:Core/Src/main.c ****   {
 2280              		.loc 1 411 26 is_stmt 1 discriminator 3 view .LVU542
 411:Core/Src/main.c ****   {
 2281              		.loc 1 411 27 is_stmt 0 discriminator 3 view .LVU543
 2282 0030 0134     		adds	r4, r4, #1
 2283              	.LVL327:
 411:Core/Src/main.c ****   {
 2284              		.loc 1 411 27 discriminator 3 view .LVU544
 2285 0032 E9E7     		b	.L146
 2286              	.L154:
 411:Core/Src/main.c ****   {
 2287              		.loc 1 411 27 discriminator 3 view .LVU545
 2288              	.LBE23:
 416:Core/Src/main.c ****   }
 417:Core/Src/main.c ****   A[0] = x[1] - x[0];
 2289              		.loc 1 417 3 is_stmt 1 view .LVU546
 2290              		.loc 1 417 11 is_stmt 0 view .LVU547
 2291 0034 1E9E     		ldr	r6, [sp, #120]
ARM GAS  C:\Users\86183\AppData\Local\Temp\ccAkzFZ3.s 			page 52


 2292 0036 0496     		str	r6, [sp, #16]
 2293              		.loc 1 417 18 view .LVU548
 2294 0038 1D9D     		ldr	r5, [sp, #116]
 2295              		.loc 1 417 8 view .LVU549
 2296 003a 701B     		subs	r0, r6, r5
 2297 003c FFF7FEFF 		bl	__aeabi_i2f
 2298              	.LVL328:
 2299 0040 8046     		mov	r8, r0
 2300 0042 1590     		str	r0, [sp, #84]	@ float
 418:Core/Src/main.c ****   B[0] = y[1] - y[0];
 2301              		.loc 1 418 3 is_stmt 1 view .LVU550
 2302              		.loc 1 418 11 is_stmt 0 view .LVU551
 2303 0044 1B9B     		ldr	r3, [sp, #108]
 2304              		.loc 1 418 18 view .LVU552
 2305 0046 1A9C     		ldr	r4, [sp, #104]
 2306              	.LVL329:
 2307              		.loc 1 418 8 view .LVU553
 2308 0048 0393     		str	r3, [sp, #12]
 2309 004a 181B     		subs	r0, r3, r4
 2310 004c FFF7FEFF 		bl	__aeabi_i2f
 2311              	.LVL330:
 2312 0050 0190     		str	r0, [sp, #4]	@ float
 2313 0052 1390     		str	r0, [sp, #76]	@ float
 419:Core/Src/main.c ****   A[1] = x[2] - x[0];
 2314              		.loc 1 419 3 is_stmt 1 view .LVU554
 2315              		.loc 1 419 11 is_stmt 0 view .LVU555
 2316 0054 1F99     		ldr	r1, [sp, #124]
 2317              		.loc 1 419 8 view .LVU556
 2318 0056 0691     		str	r1, [sp, #24]
 2319 0058 481B     		subs	r0, r1, r5
 2320 005a FFF7FEFF 		bl	__aeabi_i2f
 2321              	.LVL331:
 2322 005e 8346     		mov	fp, r0
 2323 0060 1690     		str	r0, [sp, #88]	@ float
 420:Core/Src/main.c ****   B[1] = y[2] - y[0];
 2324              		.loc 1 420 3 is_stmt 1 view .LVU557
 2325              		.loc 1 420 11 is_stmt 0 view .LVU558
 2326 0062 1C98     		ldr	r0, [sp, #112]
 2327              		.loc 1 420 8 view .LVU559
 2328 0064 0790     		str	r0, [sp, #28]
 2329 0066 001B     		subs	r0, r0, r4
 2330 0068 FFF7FEFF 		bl	__aeabi_i2f
 2331              	.LVL332:
 2332 006c 8246     		mov	r10, r0
 2333 006e 1490     		str	r0, [sp, #80]	@ float
 421:Core/Src/main.c ****   xTemp[0] = (x[0] + x[1]) / 2 - A[0] * (sq(beaconD[1]) - sq(beaconD[0])) / (sq(A[0]) + sq(B[0])) /
 2334              		.loc 1 421 3 is_stmt 1 view .LVU560
 2335              		.loc 1 421 20 is_stmt 0 view .LVU561
 2336 0070 7719     		adds	r7, r6, r5
 2337              		.loc 1 421 28 view .LVU562
 2338 0072 07EBD777 		add	r7, r7, r7, lsr #31
 2339 0076 7F10     		asrs	r7, r7, #1
 2340              		.loc 1 421 42 view .LVU563
 2341 0078 1898     		ldr	r0, [sp, #96]
 2342 007a 0590     		str	r0, [sp, #20]
 2343 007c 00FB00F0 		mul	r0, r0, r0
 2344              		.loc 1 421 59 view .LVU564
ARM GAS  C:\Users\86183\AppData\Local\Temp\ccAkzFZ3.s 			page 53


 2345 0080 179E     		ldr	r6, [sp, #92]
 2346 0082 06FB06F9 		mul	r9, r6, r6
 2347              		.loc 1 421 39 view .LVU565
 2348 0086 A0EB0900 		sub	r0, r0, r9
 2349 008a FFF7FEFF 		bl	__aeabi_i2f
 2350              	.LVL333:
 2351 008e 0890     		str	r0, [sp, #32]	@ float
 2352 0090 0146     		mov	r1, r0
 2353 0092 4046     		mov	r0, r8
 2354 0094 FFF7FEFF 		bl	__aeabi_fmul
 2355              	.LVL334:
 2356 0098 0990     		str	r0, [sp, #36]	@ float
 2357              		.loc 1 421 78 view .LVU566
 2358 009a 4146     		mov	r1, r8
 2359 009c CDF80880 		str	r8, [sp, #8]	@ float
 2360 00a0 4046     		mov	r0, r8
 2361 00a2 FFF7FEFF 		bl	__aeabi_fmul
 2362              	.LVL335:
 2363 00a6 8046     		mov	r8, r0
 2364              		.loc 1 421 89 view .LVU567
 2365 00a8 DDF804C0 		ldr	ip, [sp, #4]	@ float
 2366 00ac 6146     		mov	r1, ip
 2367 00ae 6046     		mov	r0, ip
 2368 00b0 FFF7FEFF 		bl	__aeabi_fmul
 2369              	.LVL336:
 2370 00b4 0146     		mov	r1, r0
 2371              		.loc 1 421 87 view .LVU568
 2372 00b6 4046     		mov	r0, r8
 2373 00b8 FFF7FEFF 		bl	__aeabi_fadd
 2374              	.LVL337:
 2375 00bc 8046     		mov	r8, r0
 2376              		.loc 1 421 75 view .LVU569
 2377 00be 0146     		mov	r1, r0
 2378 00c0 0998     		ldr	r0, [sp, #36]	@ float
 2379 00c2 FFF7FEFF 		bl	__aeabi_fdiv
 2380              	.LVL338:
 2381              		.loc 1 421 99 view .LVU570
 2382 00c6 4FF07C51 		mov	r1, #1056964608
 2383 00ca FFF7FEFF 		bl	__aeabi_fmul
 2384              	.LVL339:
 2385 00ce 0990     		str	r0, [sp, #36]	@ float
 2386              		.loc 1 421 32 view .LVU571
 2387 00d0 3846     		mov	r0, r7
 2388 00d2 FFF7FEFF 		bl	__aeabi_i2f
 2389              	.LVL340:
 2390 00d6 0999     		ldr	r1, [sp, #36]	@ float
 2391 00d8 FFF7FEFF 		bl	__aeabi_fsub
 2392              	.LVL341:
 2393              		.loc 1 421 12 view .LVU572
 2394 00dc 0990     		str	r0, [sp, #36]	@ float
 2395 00de 0F90     		str	r0, [sp, #60]	@ float
 422:Core/Src/main.c ****   yTemp[0] = (y[0] + y[1]) / 2 - B[0] * (sq(beaconD[1]) - sq(beaconD[0])) / (sq(A[0]) + sq(B[0])) /
 2396              		.loc 1 422 3 is_stmt 1 view .LVU573
 2397              		.loc 1 422 20 is_stmt 0 view .LVU574
 2398 00e0 039B     		ldr	r3, [sp, #12]
 2399 00e2 1F19     		adds	r7, r3, r4
 2400              		.loc 1 422 28 view .LVU575
ARM GAS  C:\Users\86183\AppData\Local\Temp\ccAkzFZ3.s 			page 54


 2401 00e4 07EBD777 		add	r7, r7, r7, lsr #31
 2402 00e8 7F10     		asrs	r7, r7, #1
 2403              		.loc 1 422 39 view .LVU576
 2404 00ea 0899     		ldr	r1, [sp, #32]	@ float
 2405 00ec 0198     		ldr	r0, [sp, #4]	@ float
 2406 00ee FFF7FEFF 		bl	__aeabi_fmul
 2407              	.LVL342:
 2408              		.loc 1 422 75 view .LVU577
 2409 00f2 4146     		mov	r1, r8
 2410 00f4 FFF7FEFF 		bl	__aeabi_fdiv
 2411              	.LVL343:
 2412              		.loc 1 422 99 view .LVU578
 2413 00f8 4FF07C51 		mov	r1, #1056964608
 2414 00fc FFF7FEFF 		bl	__aeabi_fmul
 2415              	.LVL344:
 2416 0100 8046     		mov	r8, r0
 2417              		.loc 1 422 32 view .LVU579
 2418 0102 3846     		mov	r0, r7
 2419 0104 FFF7FEFF 		bl	__aeabi_i2f
 2420              	.LVL345:
 2421 0108 4146     		mov	r1, r8
 2422 010a FFF7FEFF 		bl	__aeabi_fsub
 2423              	.LVL346:
 2424              		.loc 1 422 12 view .LVU580
 2425 010e 0A90     		str	r0, [sp, #40]	@ float
 2426 0110 0D90     		str	r0, [sp, #52]	@ float
 423:Core/Src/main.c ****   xTemp[1] = (x[0] + x[2]) / 2 - A[1] * (sq(beaconD[2]) - sq(beaconD[0])) / (sq(A[1]) + sq(B[1])) /
 2427              		.loc 1 423 3 is_stmt 1 view .LVU581
 2428              		.loc 1 423 20 is_stmt 0 view .LVU582
 2429 0112 069A     		ldr	r2, [sp, #24]
 2430 0114 AF18     		adds	r7, r5, r2
 2431              		.loc 1 423 28 view .LVU583
 2432 0116 07EBD777 		add	r7, r7, r7, lsr #31
 2433 011a 7F10     		asrs	r7, r7, #1
 2434              		.loc 1 423 42 view .LVU584
 2435 011c 199A     		ldr	r2, [sp, #100]
 2436 011e 0B92     		str	r2, [sp, #44]
 2437 0120 02FB02F0 		mul	r0, r2, r2
 2438              		.loc 1 423 39 view .LVU585
 2439 0124 A0EB0900 		sub	r0, r0, r9
 2440 0128 FFF7FEFF 		bl	__aeabi_i2f
 2441              	.LVL347:
 2442 012c 0890     		str	r0, [sp, #32]	@ float
 2443 012e 0146     		mov	r1, r0
 2444 0130 5846     		mov	r0, fp
 2445 0132 FFF7FEFF 		bl	__aeabi_fmul
 2446              	.LVL348:
 2447 0136 8146     		mov	r9, r0
 2448              		.loc 1 423 78 view .LVU586
 2449 0138 5946     		mov	r1, fp
 2450 013a 5846     		mov	r0, fp
 2451 013c FFF7FEFF 		bl	__aeabi_fmul
 2452              	.LVL349:
 2453 0140 8046     		mov	r8, r0
 2454              		.loc 1 423 89 view .LVU587
 2455 0142 5146     		mov	r1, r10
 2456 0144 5046     		mov	r0, r10
ARM GAS  C:\Users\86183\AppData\Local\Temp\ccAkzFZ3.s 			page 55


 2457 0146 FFF7FEFF 		bl	__aeabi_fmul
 2458              	.LVL350:
 2459 014a 0146     		mov	r1, r0
 2460              		.loc 1 423 87 view .LVU588
 2461 014c 4046     		mov	r0, r8
 2462 014e FFF7FEFF 		bl	__aeabi_fadd
 2463              	.LVL351:
 2464 0152 8046     		mov	r8, r0
 2465              		.loc 1 423 75 view .LVU589
 2466 0154 0146     		mov	r1, r0
 2467 0156 4846     		mov	r0, r9
 2468 0158 FFF7FEFF 		bl	__aeabi_fdiv
 2469              	.LVL352:
 2470              		.loc 1 423 99 view .LVU590
 2471 015c 4FF07C51 		mov	r1, #1056964608
 2472 0160 FFF7FEFF 		bl	__aeabi_fmul
 2473              	.LVL353:
 2474 0164 8146     		mov	r9, r0
 2475              		.loc 1 423 32 view .LVU591
 2476 0166 3846     		mov	r0, r7
 2477 0168 FFF7FEFF 		bl	__aeabi_i2f
 2478              	.LVL354:
 2479 016c 4946     		mov	r1, r9
 2480 016e FFF7FEFF 		bl	__aeabi_fsub
 2481              	.LVL355:
 2482 0172 8146     		mov	r9, r0
 2483              		.loc 1 423 12 view .LVU592
 2484 0174 1090     		str	r0, [sp, #64]	@ float
 424:Core/Src/main.c ****   yTemp[1] = (y[0] + y[2]) / 2 - B[1] * (sq(beaconD[2]) - sq(beaconD[0])) / (sq(A[1]) + sq(B[1])) /
 2485              		.loc 1 424 3 is_stmt 1 view .LVU593
 2486              		.loc 1 424 20 is_stmt 0 view .LVU594
 2487 0176 079B     		ldr	r3, [sp, #28]
 2488 0178 E718     		adds	r7, r4, r3
 2489              		.loc 1 424 28 view .LVU595
 2490 017a 07EBD777 		add	r7, r7, r7, lsr #31
 2491 017e 7F10     		asrs	r7, r7, #1
 2492              		.loc 1 424 39 view .LVU596
 2493 0180 0899     		ldr	r1, [sp, #32]	@ float
 2494 0182 5046     		mov	r0, r10
 2495 0184 FFF7FEFF 		bl	__aeabi_fmul
 2496              	.LVL356:
 2497              		.loc 1 424 75 view .LVU597
 2498 0188 4146     		mov	r1, r8
 2499 018a FFF7FEFF 		bl	__aeabi_fdiv
 2500              	.LVL357:
 2501              		.loc 1 424 99 view .LVU598
 2502 018e 4FF07C51 		mov	r1, #1056964608
 2503 0192 FFF7FEFF 		bl	__aeabi_fmul
 2504              	.LVL358:
 2505 0196 8046     		mov	r8, r0
 2506              		.loc 1 424 32 view .LVU599
 2507 0198 3846     		mov	r0, r7
 2508 019a FFF7FEFF 		bl	__aeabi_i2f
 2509              	.LVL359:
 2510 019e 4146     		mov	r1, r8
 2511 01a0 FFF7FEFF 		bl	__aeabi_fsub
 2512              	.LVL360:
ARM GAS  C:\Users\86183\AppData\Local\Temp\ccAkzFZ3.s 			page 56


 2513 01a4 8046     		mov	r8, r0
 2514              		.loc 1 424 12 view .LVU600
 2515 01a6 0E90     		str	r0, [sp, #56]	@ float
 425:Core/Src/main.c ****   C[0] = A[0] * xTemp[0] + B[0] * yTemp[0];
 2516              		.loc 1 425 3 is_stmt 1 view .LVU601
 2517              		.loc 1 425 15 is_stmt 0 view .LVU602
 2518 01a8 0999     		ldr	r1, [sp, #36]	@ float
 2519 01aa 0298     		ldr	r0, [sp, #8]	@ float
 2520 01ac FFF7FEFF 		bl	__aeabi_fmul
 2521              	.LVL361:
 2522 01b0 0746     		mov	r7, r0
 2523              		.loc 1 425 33 view .LVU603
 2524 01b2 0A99     		ldr	r1, [sp, #40]	@ float
 2525 01b4 0198     		ldr	r0, [sp, #4]	@ float
 2526 01b6 FFF7FEFF 		bl	__aeabi_fmul
 2527              	.LVL362:
 2528 01ba 0146     		mov	r1, r0
 2529              		.loc 1 425 26 view .LVU604
 2530 01bc 3846     		mov	r0, r7
 2531 01be FFF7FEFF 		bl	__aeabi_fadd
 2532              	.LVL363:
 2533 01c2 0746     		mov	r7, r0
 2534              		.loc 1 425 8 view .LVU605
 2535 01c4 1190     		str	r0, [sp, #68]	@ float
 426:Core/Src/main.c ****   C[1] = A[1] * xTemp[1] + B[1] * yTemp[1];
 2536              		.loc 1 426 3 is_stmt 1 view .LVU606
 2537              		.loc 1 426 15 is_stmt 0 view .LVU607
 2538 01c6 4946     		mov	r1, r9
 2539 01c8 5846     		mov	r0, fp
 2540 01ca FFF7FEFF 		bl	__aeabi_fmul
 2541              	.LVL364:
 2542 01ce 8146     		mov	r9, r0
 2543              		.loc 1 426 33 view .LVU608
 2544 01d0 4146     		mov	r1, r8
 2545 01d2 5046     		mov	r0, r10
 2546 01d4 FFF7FEFF 		bl	__aeabi_fmul
 2547              	.LVL365:
 2548 01d8 0146     		mov	r1, r0
 2549              		.loc 1 426 26 view .LVU609
 2550 01da 4846     		mov	r0, r9
 2551 01dc FFF7FEFF 		bl	__aeabi_fadd
 2552              	.LVL366:
 2553 01e0 8046     		mov	r8, r0
 2554              		.loc 1 426 8 view .LVU610
 2555 01e2 1290     		str	r0, [sp, #72]	@ float
 427:Core/Src/main.c ****   xBase = (C[0] * B[1] - C[1] * B[0]) / (A[0] * B[1] - A[1] * B[0]);
 2556              		.loc 1 427 3 is_stmt 1 view .LVU611
 2557              		.loc 1 427 17 is_stmt 0 view .LVU612
 2558 01e4 3946     		mov	r1, r7
 2559 01e6 5046     		mov	r0, r10
 2560 01e8 FFF7FEFF 		bl	__aeabi_fmul
 2561              	.LVL367:
 2562 01ec 8146     		mov	r9, r0
 2563              		.loc 1 427 31 view .LVU613
 2564 01ee 4146     		mov	r1, r8
 2565 01f0 0198     		ldr	r0, [sp, #4]	@ float
 2566 01f2 FFF7FEFF 		bl	__aeabi_fmul
ARM GAS  C:\Users\86183\AppData\Local\Temp\ccAkzFZ3.s 			page 57


 2567              	.LVL368:
 2568 01f6 0146     		mov	r1, r0
 2569              		.loc 1 427 24 view .LVU614
 2570 01f8 4846     		mov	r0, r9
 2571 01fa FFF7FEFF 		bl	__aeabi_fsub
 2572              	.LVL369:
 2573 01fe 8146     		mov	r9, r0
 2574              		.loc 1 427 47 view .LVU615
 2575 0200 5146     		mov	r1, r10
 2576 0202 0298     		ldr	r0, [sp, #8]	@ float
 2577 0204 FFF7FEFF 		bl	__aeabi_fmul
 2578              	.LVL370:
 2579 0208 8246     		mov	r10, r0
 2580              		.loc 1 427 61 view .LVU616
 2581 020a 5946     		mov	r1, fp
 2582 020c 0198     		ldr	r0, [sp, #4]	@ float
 2583 020e FFF7FEFF 		bl	__aeabi_fmul
 2584              	.LVL371:
 2585 0212 0146     		mov	r1, r0
 2586              		.loc 1 427 54 view .LVU617
 2587 0214 5046     		mov	r0, r10
 2588 0216 FFF7FEFF 		bl	__aeabi_fsub
 2589              	.LVL372:
 2590 021a 8246     		mov	r10, r0
 2591              		.loc 1 427 39 view .LVU618
 2592 021c 0146     		mov	r1, r0
 2593 021e 4846     		mov	r0, r9
 2594 0220 FFF7FEFF 		bl	__aeabi_fdiv
 2595              	.LVL373:
 2596              		.loc 1 427 9 view .LVU619
 2597 0224 FFF7FEFF 		bl	__aeabi_f2iz
 2598              	.LVL374:
 2599 0228 8146     		mov	r9, r0
 2600              	.LVL375:
 428:Core/Src/main.c ****   yBase = (C[1] * A[0] - C[0] * A[1]) / (A[0] * B[1] - A[1] * B[0]);
 2601              		.loc 1 428 3 is_stmt 1 view .LVU620
 2602              		.loc 1 428 17 is_stmt 0 view .LVU621
 2603 022a 4146     		mov	r1, r8
 2604 022c 0298     		ldr	r0, [sp, #8]	@ float
 2605              	.LVL376:
 2606              		.loc 1 428 17 view .LVU622
 2607 022e FFF7FEFF 		bl	__aeabi_fmul
 2608              	.LVL377:
 2609 0232 8046     		mov	r8, r0
 2610              		.loc 1 428 31 view .LVU623
 2611 0234 3946     		mov	r1, r7
 2612 0236 5846     		mov	r0, fp
 2613 0238 FFF7FEFF 		bl	__aeabi_fmul
 2614              	.LVL378:
 2615 023c 0146     		mov	r1, r0
 2616              		.loc 1 428 24 view .LVU624
 2617 023e 4046     		mov	r0, r8
 2618 0240 FFF7FEFF 		bl	__aeabi_fsub
 2619              	.LVL379:
 2620              		.loc 1 428 39 view .LVU625
 2621 0244 5146     		mov	r1, r10
 2622 0246 FFF7FEFF 		bl	__aeabi_fdiv
ARM GAS  C:\Users\86183\AppData\Local\Temp\ccAkzFZ3.s 			page 58


 2623              	.LVL380:
 2624              		.loc 1 428 9 view .LVU626
 2625 024a FFF7FEFF 		bl	__aeabi_f2iz
 2626              	.LVL381:
 2627 024e 8246     		mov	r10, r0
 2628              	.LVL382:
 429:Core/Src/main.c ****   for (int i = -1; i < 2; i++)
 2629              		.loc 1 429 3 is_stmt 1 view .LVU627
 2630              	.LBB24:
 2631              		.loc 1 429 8 view .LVU628
 2632              		.loc 1 429 12 is_stmt 0 view .LVU629
 2633 0250 4FF0FF38 		mov	r8, #-1
 2634              	.LBE24:
 410:Core/Src/main.c ****   for (int i = 0; i < 3; i++)
 2635              		.loc 1 410 57 view .LVU630
 2636 0254 0023     		movs	r3, #0
 2637 0256 0193     		str	r3, [sp, #4]	@ float
 409:Core/Src/main.c ****   float A[2], B[2], C[2], xTemp[2], yTemp[2], xRes = 0, yRes = 0;
 2638              		.loc 1 409 45 view .LVU631
 2639 0258 4FF0000B 		mov	fp, #0
 2640              	.LBB27:
 2641              		.loc 1 429 3 view .LVU632
 2642 025c 4BE0     		b	.L148
 2643              	.LVL383:
 2644              	.L149:
 2645              	.LBB25:
 430:Core/Src/main.c ****     for (int j = -1; j < 2; j++)
 2646              		.loc 1 430 29 is_stmt 1 discriminator 2 view .LVU633
 2647              		.loc 1 430 30 is_stmt 0 discriminator 2 view .LVU634
 2648 025e 0137     		adds	r7, r7, #1
 2649              	.LVL384:
 2650              	.L151:
 2651              		.loc 1 430 22 is_stmt 1 discriminator 1 view .LVU635
 2652              		.loc 1 430 5 is_stmt 0 discriminator 1 view .LVU636
 2653 0260 012F     		cmp	r7, #1
 2654 0262 46DC     		bgt	.L155
 431:Core/Src/main.c ****       if ((int)sqrt(sq(xBase - x[0] + i) + sq(yBase - y[0] + j)) == beaconD[0] && (int)sqrt(sq(xBas
 2655              		.loc 1 431 7 is_stmt 1 view .LVU637
 2656              		.loc 1 431 21 is_stmt 0 view .LVU638
 2657 0264 A9EB0500 		sub	r0, r9, r5
 2658 0268 4044     		add	r0, r0, r8
 2659              		.loc 1 431 44 view .LVU639
 2660 026a AAEB0403 		sub	r3, r10, r4
 2661 026e 3B44     		add	r3, r3, r7
 2662 0270 03FB03F3 		mul	r3, r3, r3
 2663              		.loc 1 431 16 view .LVU640
 2664 0274 00FB0030 		mla	r0, r0, r0, r3
 2665 0278 FFF7FEFF 		bl	__aeabi_i2d
 2666              	.LVL385:
 2667 027c FFF7FEFF 		bl	sqrt
 2668              	.LVL386:
 2669              		.loc 1 431 11 view .LVU641
 2670 0280 FFF7FEFF 		bl	__aeabi_d2iz
 2671              	.LVL387:
 2672              		.loc 1 431 10 view .LVU642
 2673 0284 8642     		cmp	r6, r0
 2674 0286 EAD1     		bne	.L149
ARM GAS  C:\Users\86183\AppData\Local\Temp\ccAkzFZ3.s 			page 59


 2675              		.loc 1 431 93 discriminator 1 view .LVU643
 2676 0288 049B     		ldr	r3, [sp, #16]
 2677 028a A9EB0300 		sub	r0, r9, r3
 2678 028e 4044     		add	r0, r0, r8
 2679              		.loc 1 431 116 discriminator 1 view .LVU644
 2680 0290 039B     		ldr	r3, [sp, #12]
 2681 0292 AAEB0303 		sub	r3, r10, r3
 2682 0296 3B44     		add	r3, r3, r7
 2683 0298 03FB03F3 		mul	r3, r3, r3
 2684              		.loc 1 431 88 discriminator 1 view .LVU645
 2685 029c 00FB0030 		mla	r0, r0, r0, r3
 2686 02a0 FFF7FEFF 		bl	__aeabi_i2d
 2687              	.LVL388:
 2688 02a4 FFF7FEFF 		bl	sqrt
 2689              	.LVL389:
 2690              		.loc 1 431 83 discriminator 1 view .LVU646
 2691 02a8 FFF7FEFF 		bl	__aeabi_d2iz
 2692              	.LVL390:
 2693              		.loc 1 431 80 discriminator 1 view .LVU647
 2694 02ac 059B     		ldr	r3, [sp, #20]
 2695 02ae 8342     		cmp	r3, r0
 2696 02b0 D5D1     		bne	.L149
 2697              		.loc 1 431 165 discriminator 2 view .LVU648
 2698 02b2 069B     		ldr	r3, [sp, #24]
 2699 02b4 A9EB0300 		sub	r0, r9, r3
 2700 02b8 4044     		add	r0, r0, r8
 2701              		.loc 1 431 188 discriminator 2 view .LVU649
 2702 02ba 079B     		ldr	r3, [sp, #28]
 2703 02bc AAEB0303 		sub	r3, r10, r3
 2704 02c0 3B44     		add	r3, r3, r7
 2705 02c2 03FB03F3 		mul	r3, r3, r3
 2706              		.loc 1 431 160 discriminator 2 view .LVU650
 2707 02c6 00FB0030 		mla	r0, r0, r0, r3
 2708 02ca FFF7FEFF 		bl	__aeabi_i2d
 2709              	.LVL391:
 2710 02ce FFF7FEFF 		bl	sqrt
 2711              	.LVL392:
 2712              		.loc 1 431 155 discriminator 2 view .LVU651
 2713 02d2 FFF7FEFF 		bl	__aeabi_d2iz
 2714              	.LVL393:
 2715              		.loc 1 431 152 discriminator 2 view .LVU652
 2716 02d6 0B9B     		ldr	r3, [sp, #44]
 2717 02d8 8342     		cmp	r3, r0
 2718 02da C0D1     		bne	.L149
 432:Core/Src/main.c ****         xRes += i, yRes += j, cnt++;
 2719              		.loc 1 432 9 is_stmt 1 view .LVU653
 2720              		.loc 1 432 25 is_stmt 0 view .LVU654
 2721 02dc 3846     		mov	r0, r7
 2722 02de FFF7FEFF 		bl	__aeabi_i2f
 2723              	.LVL394:
 2724 02e2 0146     		mov	r1, r0
 2725 02e4 0198     		ldr	r0, [sp, #4]	@ float
 2726 02e6 FFF7FEFF 		bl	__aeabi_fadd
 2727              	.LVL395:
 2728 02ea 0190     		str	r0, [sp, #4]	@ float
 2729              	.LVL396:
 2730              		.loc 1 432 34 view .LVU655
ARM GAS  C:\Users\86183\AppData\Local\Temp\ccAkzFZ3.s 			page 60


 2731 02ec 0BF1010B 		add	fp, fp, #1
 2732              	.LVL397:
 2733              		.loc 1 432 34 view .LVU656
 2734 02f0 B5E7     		b	.L149
 2735              	.LVL398:
 2736              	.L155:
 2737              		.loc 1 432 34 view .LVU657
 2738              	.LBE25:
 429:Core/Src/main.c ****     for (int j = -1; j < 2; j++)
 2739              		.loc 1 429 27 is_stmt 1 discriminator 2 view .LVU658
 429:Core/Src/main.c ****     for (int j = -1; j < 2; j++)
 2740              		.loc 1 429 28 is_stmt 0 discriminator 2 view .LVU659
 2741 02f2 08F10108 		add	r8, r8, #1
 2742              	.LVL399:
 2743              	.L148:
 429:Core/Src/main.c ****     for (int j = -1; j < 2; j++)
 2744              		.loc 1 429 20 is_stmt 1 discriminator 1 view .LVU660
 429:Core/Src/main.c ****     for (int j = -1; j < 2; j++)
 2745              		.loc 1 429 3 is_stmt 0 discriminator 1 view .LVU661
 2746 02f6 B8F1010F 		cmp	r8, #1
 2747 02fa 02DC     		bgt	.L156
 2748              	.LBB26:
 430:Core/Src/main.c ****       if ((int)sqrt(sq(xBase - x[0] + i) + sq(yBase - y[0] + j)) == beaconD[0] && (int)sqrt(sq(xBas
 2749              		.loc 1 430 14 view .LVU662
 2750 02fc 4FF0FF37 		mov	r7, #-1
 2751 0300 AEE7     		b	.L151
 2752              	.L156:
 2753              	.LBE26:
 2754              	.LBE27:
 433:Core/Src/main.c ****   return yBase + yRes / cnt;
 2755              		.loc 1 433 3 is_stmt 1 view .LVU663
 2756              		.loc 1 433 23 is_stmt 0 view .LVU664
 2757 0302 5846     		mov	r0, fp
 2758 0304 FFF7FEFF 		bl	__aeabi_i2f
 2759              	.LVL400:
 2760 0308 0146     		mov	r1, r0
 2761 030a 0198     		ldr	r0, [sp, #4]	@ float
 2762 030c FFF7FEFF 		bl	__aeabi_fdiv
 2763              	.LVL401:
 2764 0310 0446     		mov	r4, r0
 2765              		.loc 1 433 16 view .LVU665
 2766 0312 5046     		mov	r0, r10
 2767 0314 FFF7FEFF 		bl	__aeabi_i2f
 2768              	.LVL402:
 2769 0318 2146     		mov	r1, r4
 2770 031a FFF7FEFF 		bl	__aeabi_fadd
 2771              	.LVL403:
 434:Core/Src/main.c **** }
 2772              		.loc 1 434 1 view .LVU666
 2773 031e 21B0     		add	sp, sp, #132
 2774              	.LCFI14:
 2775              		.cfi_def_cfa_offset 36
 2776              		@ sp needed
 2777 0320 BDE8F08F 		pop	{r4, r5, r6, r7, r8, r9, r10, fp, pc}
 2778              		.loc 1 434 1 view .LVU667
 2779              		.cfi_endproc
 2780              	.LFE77:
ARM GAS  C:\Users\86183\AppData\Local\Temp\ccAkzFZ3.s 			page 61


 2782              		.section	.text.userGetCarPosX,"ax",%progbits
 2783              		.align	1
 2784              		.global	userGetCarPosX
 2785              		.syntax unified
 2786              		.thumb
 2787              		.thumb_func
 2788              		.fpu softvfp
 2790              	userGetCarPosX:
 2791              	.LFB78:
 435:Core/Src/main.c **** 
 436:Core/Src/main.c **** float userGetCarPosX()
 437:Core/Src/main.c **** {
 2792              		.loc 1 437 1 is_stmt 1 view -0
 2793              		.cfi_startproc
 2794              		@ args = 0, pretend = 0, frame = 0
 2795              		@ frame_needed = 0, uses_anonymous_args = 0
 2796 0000 08B5     		push	{r3, lr}
 2797              	.LCFI15:
 2798              		.cfi_def_cfa_offset 8
 2799              		.cfi_offset 3, -8
 2800              		.cfi_offset 14, -4
 438:Core/Src/main.c ****   if (getCarTask() == 0)
 2801              		.loc 1 438 3 view .LVU669
 2802              		.loc 1 438 7 is_stmt 0 view .LVU670
 2803 0002 FFF7FEFF 		bl	getCarTask
 2804              	.LVL404:
 2805              		.loc 1 438 6 view .LVU671
 2806 0006 20B9     		cbnz	r0, .L158
 439:Core/Src/main.c ****     return (float)getCarPosX();
 2807              		.loc 1 439 5 is_stmt 1 view .LVU672
 2808              		.loc 1 439 19 is_stmt 0 view .LVU673
 2809 0008 FFF7FEFF 		bl	getCarPosX
 2810              	.LVL405:
 2811              		.loc 1 439 12 view .LVU674
 2812 000c FFF7FEFF 		bl	__aeabi_ui2f
 2813              	.LVL406:
 2814              	.L157:
 440:Core/Src/main.c ****   else
 441:Core/Src/main.c ****     return getCarPosX2();
 442:Core/Src/main.c **** }
 2815              		.loc 1 442 1 view .LVU675
 2816 0010 08BD     		pop	{r3, pc}
 2817              	.L158:
 441:Core/Src/main.c **** }
 2818              		.loc 1 441 5 is_stmt 1 view .LVU676
 441:Core/Src/main.c **** }
 2819              		.loc 1 441 12 is_stmt 0 view .LVU677
 2820 0012 FFF7FEFF 		bl	getCarPosX2
 2821              	.LVL407:
 2822 0016 FBE7     		b	.L157
 2823              		.cfi_endproc
 2824              	.LFE78:
 2826              		.section	.text.userGetCarPosY,"ax",%progbits
 2827              		.align	1
 2828              		.global	userGetCarPosY
 2829              		.syntax unified
 2830              		.thumb
ARM GAS  C:\Users\86183\AppData\Local\Temp\ccAkzFZ3.s 			page 62


 2831              		.thumb_func
 2832              		.fpu softvfp
 2834              	userGetCarPosY:
 2835              	.LFB79:
 443:Core/Src/main.c **** 
 444:Core/Src/main.c **** float userGetCarPosY()
 445:Core/Src/main.c **** {
 2836              		.loc 1 445 1 is_stmt 1 view -0
 2837              		.cfi_startproc
 2838              		@ args = 0, pretend = 0, frame = 0
 2839              		@ frame_needed = 0, uses_anonymous_args = 0
 2840 0000 08B5     		push	{r3, lr}
 2841              	.LCFI16:
 2842              		.cfi_def_cfa_offset 8
 2843              		.cfi_offset 3, -8
 2844              		.cfi_offset 14, -4
 446:Core/Src/main.c ****   if (getCarTask() == 0)
 2845              		.loc 1 446 3 view .LVU679
 2846              		.loc 1 446 7 is_stmt 0 view .LVU680
 2847 0002 FFF7FEFF 		bl	getCarTask
 2848              	.LVL408:
 2849              		.loc 1 446 6 view .LVU681
 2850 0006 20B9     		cbnz	r0, .L162
 447:Core/Src/main.c ****     return (float)getCarPosY();
 2851              		.loc 1 447 5 is_stmt 1 view .LVU682
 2852              		.loc 1 447 19 is_stmt 0 view .LVU683
 2853 0008 FFF7FEFF 		bl	getCarPosY
 2854              	.LVL409:
 2855              		.loc 1 447 12 view .LVU684
 2856 000c FFF7FEFF 		bl	__aeabi_ui2f
 2857              	.LVL410:
 2858              	.L161:
 448:Core/Src/main.c ****   else
 449:Core/Src/main.c ****     return getCarPosY2();
 450:Core/Src/main.c **** }
 2859              		.loc 1 450 1 view .LVU685
 2860 0010 08BD     		pop	{r3, pc}
 2861              	.L162:
 449:Core/Src/main.c **** }
 2862              		.loc 1 449 5 is_stmt 1 view .LVU686
 449:Core/Src/main.c **** }
 2863              		.loc 1 449 12 is_stmt 0 view .LVU687
 2864 0012 FFF7FEFF 		bl	getCarPosY2
 2865              	.LVL411:
 2866 0016 FBE7     		b	.L161
 2867              		.cfi_endproc
 2868              	.LFE79:
 2870              		.global	__aeabi_dcmplt
 2871              		.section	.text.MoveTo,"ax",%progbits
 2872              		.align	1
 2873              		.global	MoveTo
 2874              		.syntax unified
 2875              		.thumb
 2876              		.thumb_func
 2877              		.fpu softvfp
 2879              	MoveTo:
 2880              	.LVL412:
ARM GAS  C:\Users\86183\AppData\Local\Temp\ccAkzFZ3.s 			page 63


 2881              	.LFB80:
 451:Core/Src/main.c **** 
 452:Core/Src/main.c **** // void MoveTo(float x, float y)
 453:Core/Src/main.c **** // {
 454:Core/Src/main.c **** //   float TurningCoefficient = 1; //调参
 455:Core/Src/main.c **** //   uint16_t errX = x - getCarPosX();
 456:Core/Src/main.c **** //   uint16_t errY = y - getCarPosY();
 457:Core/Src/main.c **** //   float targetAngle = (float)atan2(errY, errX) * 57.296, errAngle, velosity = 20;
 458:Core/Src/main.c **** //   targetAngle = Add_Angle(targetAngle, absoluteAngle - angle0);
 459:Core/Src/main.c **** //   Turn(targetAngle);
 460:Core/Src/main.c **** //   Set_Left_Direction(1);
 461:Core/Src/main.c **** //   Set_Right_Direction(1);
 462:Core/Src/main.c **** //   for (int i = 0; i < 4; i++)
 463:Core/Src/main.c **** //     Set_Speed(10, i);
 464:Core/Src/main.c **** //   while (1)
 465:Core/Src/main.c **** //   {
 466:Core/Src/main.c **** //     if (x * x + y * y < 25) //调参
 467:Core/Src/main.c **** //       break;
 468:Core/Src/main.c **** //     if (x * x + y * y < 200) //调参
 469:Core/Src/main.c **** //       velosity = 5;          //调参
 470:Core/Src/main.c **** //     errX = x - getCarPosX();
 471:Core/Src/main.c **** //     errY = y - getCarPosY();
 472:Core/Src/main.c **** //     errAngle = Add_Angle(atan2(errY, errX), absoluteAngle - GetYaw());
 473:Core/Src/main.c **** //     Set_Speed(velosity + TurningCoefficient * errAngle, 0);
 474:Core/Src/main.c **** //     Set_Speed(velosity + TurningCoefficient * errAngle, 1);
 475:Core/Src/main.c **** //     Set_Speed(velosity - TurningCoefficient * errAngle, 2);
 476:Core/Src/main.c **** //     Set_Speed(velosity - TurningCoefficient * errAngle, 3);
 477:Core/Src/main.c **** //   }
 478:Core/Src/main.c **** //   Set_Left_Direction(0);
 479:Core/Src/main.c **** //   Set_Right_Direction(0);
 480:Core/Src/main.c **** //   angle0 = GetYaw();
 481:Core/Src/main.c **** // }
 482:Core/Src/main.c **** 
 483:Core/Src/main.c **** void MoveTo(float x, float y)
 484:Core/Src/main.c **** {
 2882              		.loc 1 484 1 is_stmt 1 view -0
 2883              		.cfi_startproc
 2884              		@ args = 0, pretend = 0, frame = 8
 2885              		@ frame_needed = 0, uses_anonymous_args = 0
 2886              		.loc 1 484 1 is_stmt 0 view .LVU689
 2887 0000 2DE9F04F 		push	{r4, r5, r6, r7, r8, r9, r10, fp, lr}
 2888              	.LCFI17:
 2889              		.cfi_def_cfa_offset 36
 2890              		.cfi_offset 4, -36
 2891              		.cfi_offset 5, -32
 2892              		.cfi_offset 6, -28
 2893              		.cfi_offset 7, -24
 2894              		.cfi_offset 8, -20
 2895              		.cfi_offset 9, -16
 2896              		.cfi_offset 10, -12
 2897              		.cfi_offset 11, -8
 2898              		.cfi_offset 14, -4
 2899 0004 83B0     		sub	sp, sp, #12
 2900              	.LCFI18:
 2901              		.cfi_def_cfa_offset 48
 2902 0006 8046     		mov	r8, r0
 2903 0008 0F46     		mov	r7, r1
ARM GAS  C:\Users\86183\AppData\Local\Temp\ccAkzFZ3.s 			page 64


 485:Core/Src/main.c ****   if (x < 7 || x > 248 || y < 7 || y > 248)
 2904              		.loc 1 485 3 is_stmt 1 view .LVU690
 2905              		.loc 1 485 6 is_stmt 0 view .LVU691
 2906 000a 9B49     		ldr	r1, .L202+16
 2907              	.LVL413:
 2908              		.loc 1 485 6 view .LVU692
 2909 000c FFF7FEFF 		bl	__aeabi_fcmplt
 2910              	.LVL414:
 2911              		.loc 1 485 6 view .LVU693
 2912 0010 70B9     		cbnz	r0, .L165
 2913              		.loc 1 485 13 discriminator 1 view .LVU694
 2914 0012 9A49     		ldr	r1, .L202+20
 2915 0014 4046     		mov	r0, r8
 2916 0016 FFF7FEFF 		bl	__aeabi_fcmpgt
 2917              	.LVL415:
 2918 001a 48B9     		cbnz	r0, .L165
 2919              		.loc 1 485 24 discriminator 2 view .LVU695
 2920 001c 9649     		ldr	r1, .L202+16
 2921 001e 3846     		mov	r0, r7
 2922 0020 FFF7FEFF 		bl	__aeabi_fcmplt
 2923              	.LVL416:
 2924 0024 20B9     		cbnz	r0, .L165
 2925              		.loc 1 485 33 discriminator 3 view .LVU696
 2926 0026 9549     		ldr	r1, .L202+20
 2927 0028 3846     		mov	r0, r7
 2928 002a FFF7FEFF 		bl	__aeabi_fcmpgt
 2929              	.LVL417:
 2930 002e 10B1     		cbz	r0, .L195
 2931              	.L165:
 486:Core/Src/main.c ****     return;
 487:Core/Src/main.c ****   float velocity;
 488:Core/Src/main.c ****   float errX = x - userGetCarPosX();
 489:Core/Src/main.c ****   float errY = y - userGetCarPosY();
 490:Core/Src/main.c ****   float targetAngle = 0, difference = sqrt(errX * errX + errY * errY);
 491:Core/Src/main.c ****   clearDistance();
 492:Core/Src/main.c ****   int flag = 0;
 493:Core/Src/main.c ****   if (STATE == (uint8_t)GET_PACKAGE)
 494:Core/Src/main.c ****     flag = getCarMineSumNum();
 495:Core/Src/main.c ****   while (difference > 5)
 496:Core/Src/main.c ****   {
 497:Core/Src/main.c ****     if (STATE == (uint8_t)GET_PACKAGE && flag < getCarMineSumNum())
 498:Core/Src/main.c ****       break;
 499:Core/Src/main.c ****     else if (STATE == (uint8_t)SET_BEACON && difference < 20)
 500:Core/Src/main.c ****       break;
 501:Core/Src/main.c ****     if (difference < 10)
 502:Core/Src/main.c ****       velocity = 3;
 503:Core/Src/main.c ****     else if (difference < 20)
 504:Core/Src/main.c ****       velocity = 7;
 505:Core/Src/main.c ****     else if (difference < 30)
 506:Core/Src/main.c ****       velocity = 10;
 507:Core/Src/main.c ****     else if (difference < 50)
 508:Core/Src/main.c ****     {
 509:Core/Src/main.c ****       if (STATE == (uint8_t)PUT_PACKAGE)
 510:Core/Src/main.c ****         velocity = 13;
 511:Core/Src/main.c ****       else
 512:Core/Src/main.c ****         velocity = 17;
 513:Core/Src/main.c ****     }
ARM GAS  C:\Users\86183\AppData\Local\Temp\ccAkzFZ3.s 			page 65


 514:Core/Src/main.c ****     else if (difference < 100)
 515:Core/Src/main.c ****     {
 516:Core/Src/main.c ****       if (STATE == (uint8_t)PUT_PACKAGE)
 517:Core/Src/main.c ****         velocity = 17;
 518:Core/Src/main.c ****       else
 519:Core/Src/main.c ****         velocity = 23;
 520:Core/Src/main.c ****     }
 521:Core/Src/main.c ****     else
 522:Core/Src/main.c ****     {
 523:Core/Src/main.c ****       if (STATE == (uint8_t)PUT_PACKAGE)
 524:Core/Src/main.c ****         velocity = 20;
 525:Core/Src/main.c ****       else
 526:Core/Src/main.c ****         velocity = 27;
 527:Core/Src/main.c ****     }
 528:Core/Src/main.c ****     angle0 = GetYaw();
 529:Core/Src/main.c ****     targetAngle = Add_Angle(atan2(errX, errY) * 57.296, absoluteAngle - angle0);
 530:Core/Src/main.c ****     Turn(targetAngle);
 531:Core/Src/main.c ****     clearDistance();
 532:Core/Src/main.c ****     Set_Left_Direction(1);
 533:Core/Src/main.c ****     Set_Right_Direction(1);
 534:Core/Src/main.c ****     for (int i = 0; i < 4; i++)
 535:Core/Src/main.c ****       Set_Speed(velocity, i);
 536:Core/Src/main.c ****     while (getDistance() < 0.70 * difference)
 537:Core/Src/main.c ****     {
 538:Core/Src/main.c ****       HAL_Delay(20);
 539:Core/Src/main.c ****       if (STATE == (uint8_t)GET_PACKAGE && flag < getCarMineSumNum())
 540:Core/Src/main.c ****         break;
 541:Core/Src/main.c ****     }
 542:Core/Src/main.c ****     Set_Left_Direction(0);
 543:Core/Src/main.c ****     Set_Right_Direction(0);
 544:Core/Src/main.c ****     HAL_Delay(400);
 545:Core/Src/main.c ****     errX = x - userGetCarPosX();
 546:Core/Src/main.c ****     errY = y - userGetCarPosY();
 547:Core/Src/main.c ****     difference = sqrt(errX * errX + errY * errY);
 548:Core/Src/main.c ****   }
 549:Core/Src/main.c **** }
 2932              		.loc 1 549 1 view .LVU697
 2933 0030 03B0     		add	sp, sp, #12
 2934              	.LCFI19:
 2935              		.cfi_remember_state
 2936              		.cfi_def_cfa_offset 36
 2937              		@ sp needed
 2938 0032 BDE8F08F 		pop	{r4, r5, r6, r7, r8, r9, r10, fp, pc}
 2939              	.LVL418:
 2940              	.L195:
 2941              	.LCFI20:
 2942              		.cfi_restore_state
 487:Core/Src/main.c ****   float errX = x - userGetCarPosX();
 2943              		.loc 1 487 3 is_stmt 1 view .LVU698
 488:Core/Src/main.c ****   float errY = y - userGetCarPosY();
 2944              		.loc 1 488 3 view .LVU699
 488:Core/Src/main.c ****   float errY = y - userGetCarPosY();
 2945              		.loc 1 488 20 is_stmt 0 view .LVU700
 2946 0036 FFF7FEFF 		bl	userGetCarPosX
 2947              	.LVL419:
 2948 003a 0146     		mov	r1, r0
 488:Core/Src/main.c ****   float errY = y - userGetCarPosY();
ARM GAS  C:\Users\86183\AppData\Local\Temp\ccAkzFZ3.s 			page 66


 2949              		.loc 1 488 9 view .LVU701
 2950 003c 4046     		mov	r0, r8
 2951 003e FFF7FEFF 		bl	__aeabi_fsub
 2952              	.LVL420:
 2953 0042 0446     		mov	r4, r0
 2954              	.LVL421:
 489:Core/Src/main.c ****   float targetAngle = 0, difference = sqrt(errX * errX + errY * errY);
 2955              		.loc 1 489 3 is_stmt 1 view .LVU702
 489:Core/Src/main.c ****   float targetAngle = 0, difference = sqrt(errX * errX + errY * errY);
 2956              		.loc 1 489 20 is_stmt 0 view .LVU703
 2957 0044 FFF7FEFF 		bl	userGetCarPosY
 2958              	.LVL422:
 489:Core/Src/main.c ****   float targetAngle = 0, difference = sqrt(errX * errX + errY * errY);
 2959              		.loc 1 489 20 view .LVU704
 2960 0048 0146     		mov	r1, r0
 489:Core/Src/main.c ****   float targetAngle = 0, difference = sqrt(errX * errX + errY * errY);
 2961              		.loc 1 489 9 view .LVU705
 2962 004a 3846     		mov	r0, r7
 2963 004c FFF7FEFF 		bl	__aeabi_fsub
 2964              	.LVL423:
 2965 0050 0546     		mov	r5, r0
 2966              	.LVL424:
 490:Core/Src/main.c ****   clearDistance();
 2967              		.loc 1 490 3 is_stmt 1 view .LVU706
 490:Core/Src/main.c ****   clearDistance();
 2968              		.loc 1 490 49 is_stmt 0 view .LVU707
 2969 0052 2146     		mov	r1, r4
 2970 0054 2046     		mov	r0, r4
 2971              	.LVL425:
 490:Core/Src/main.c ****   clearDistance();
 2972              		.loc 1 490 49 view .LVU708
 2973 0056 FFF7FEFF 		bl	__aeabi_fmul
 2974              	.LVL426:
 2975 005a 0646     		mov	r6, r0
 490:Core/Src/main.c ****   clearDistance();
 2976              		.loc 1 490 63 view .LVU709
 2977 005c 2946     		mov	r1, r5
 2978 005e 2846     		mov	r0, r5
 2979 0060 FFF7FEFF 		bl	__aeabi_fmul
 2980              	.LVL427:
 2981 0064 0146     		mov	r1, r0
 490:Core/Src/main.c ****   clearDistance();
 2982              		.loc 1 490 56 view .LVU710
 2983 0066 3046     		mov	r0, r6
 2984 0068 FFF7FEFF 		bl	__aeabi_fadd
 2985              	.LVL428:
 490:Core/Src/main.c ****   clearDistance();
 2986              		.loc 1 490 39 view .LVU711
 2987 006c FFF7FEFF 		bl	__aeabi_f2d
 2988              	.LVL429:
 2989 0070 FFF7FEFF 		bl	sqrt
 2990              	.LVL430:
 490:Core/Src/main.c ****   clearDistance();
 2991              		.loc 1 490 26 view .LVU712
 2992 0074 FFF7FEFF 		bl	__aeabi_d2f
 2993              	.LVL431:
 2994 0078 0646     		mov	r6, r0
ARM GAS  C:\Users\86183\AppData\Local\Temp\ccAkzFZ3.s 			page 67


 2995              	.LVL432:
 491:Core/Src/main.c ****   int flag = 0;
 2996              		.loc 1 491 3 is_stmt 1 view .LVU713
 2997 007a FFF7FEFF 		bl	clearDistance
 2998              	.LVL433:
 492:Core/Src/main.c ****   if (STATE == (uint8_t)GET_PACKAGE)
 2999              		.loc 1 492 3 view .LVU714
 493:Core/Src/main.c ****     flag = getCarMineSumNum();
 3000              		.loc 1 493 3 view .LVU715
 493:Core/Src/main.c ****     flag = getCarMineSumNum();
 3001              		.loc 1 493 13 is_stmt 0 view .LVU716
 3002 007e 804B     		ldr	r3, .L202+24
 3003 0080 1B78     		ldrb	r3, [r3]	@ zero_extendqisi2
 493:Core/Src/main.c ****     flag = getCarMineSumNum();
 3004              		.loc 1 493 6 view .LVU717
 3005 0082 13B1     		cbz	r3, .L196
 492:Core/Src/main.c ****   if (STATE == (uint8_t)GET_PACKAGE)
 3006              		.loc 1 492 7 view .LVU718
 3007 0084 4FF00009 		mov	r9, #0
 3008 0088 B9E0     		b	.L181
 3009              	.L196:
 494:Core/Src/main.c ****   while (difference > 5)
 3010              		.loc 1 494 5 is_stmt 1 view .LVU719
 494:Core/Src/main.c ****   while (difference > 5)
 3011              		.loc 1 494 12 is_stmt 0 view .LVU720
 3012 008a FFF7FEFF 		bl	getCarMineSumNum
 3013              	.LVL434:
 494:Core/Src/main.c ****   while (difference > 5)
 3014              		.loc 1 494 10 view .LVU721
 3015 008e 8146     		mov	r9, r0
 3016              	.LVL435:
 494:Core/Src/main.c ****   while (difference > 5)
 3017              		.loc 1 494 10 view .LVU722
 3018 0090 B5E0     		b	.L181
 3019              	.LVL436:
 3020              	.L199:
 497:Core/Src/main.c ****       break;
 3021              		.loc 1 497 49 discriminator 1 view .LVU723
 3022 0092 FFF7FEFF 		bl	getCarMineSumNum
 3023              	.LVL437:
 497:Core/Src/main.c ****       break;
 3024              		.loc 1 497 39 discriminator 1 view .LVU724
 3025 0096 4845     		cmp	r0, r9
 3026 0098 40F3BD80 		ble	.L168
 497:Core/Src/main.c ****       break;
 3027              		.loc 1 497 39 discriminator 1 view .LVU725
 3028 009c C8E7     		b	.L165
 3029              	.L200:
 499:Core/Src/main.c ****       break;
 3030              		.loc 1 499 43 discriminator 1 view .LVU726
 3031 009e 7949     		ldr	r1, .L202+28
 3032 00a0 3046     		mov	r0, r6
 3033 00a2 FFF7FEFF 		bl	__aeabi_fcmplt
 3034              	.LVL438:
 3035 00a6 0028     		cmp	r0, #0
 3036 00a8 00F0BC80 		beq	.L169
 499:Core/Src/main.c ****       break;
ARM GAS  C:\Users\86183\AppData\Local\Temp\ccAkzFZ3.s 			page 68


 3037              		.loc 1 499 43 discriminator 1 view .LVU727
 3038 00ac C0E7     		b	.L165
 3039              	.L201:
 510:Core/Src/main.c ****       else
 3040              		.loc 1 510 18 view .LVU728
 3041 00ae DFF8D8A1 		ldr	r10, .L202+32
 3042 00b2 18E0     		b	.L170
 3043              	.L192:
 514:Core/Src/main.c ****     {
 3044              		.loc 1 514 10 is_stmt 1 view .LVU729
 514:Core/Src/main.c ****     {
 3045              		.loc 1 514 13 is_stmt 0 view .LVU730
 3046 00b4 7549     		ldr	r1, .L202+36
 3047 00b6 3046     		mov	r0, r6
 3048 00b8 FFF7FEFF 		bl	__aeabi_fcmplt
 3049              	.LVL439:
 3050 00bc 40B1     		cbz	r0, .L193
 516:Core/Src/main.c ****         velocity = 17;
 3051              		.loc 1 516 7 is_stmt 1 view .LVU731
 516:Core/Src/main.c ****         velocity = 17;
 3052              		.loc 1 516 10 is_stmt 0 view .LVU732
 3053 00be BAF1010F 		cmp	r10, #1
 3054 00c2 02D0     		beq	.L197
 519:Core/Src/main.c ****     }
 3055              		.loc 1 519 18 view .LVU733
 3056 00c4 DFF8C8A1 		ldr	r10, .L202+40
 3057 00c8 0DE0     		b	.L170
 3058              	.L197:
 517:Core/Src/main.c ****       else
 3059              		.loc 1 517 18 view .LVU734
 3060 00ca DFF8C8A1 		ldr	r10, .L202+44
 3061 00ce 0AE0     		b	.L170
 3062              	.L193:
 523:Core/Src/main.c ****         velocity = 20;
 3063              		.loc 1 523 7 is_stmt 1 view .LVU735
 523:Core/Src/main.c ****         velocity = 20;
 3064              		.loc 1 523 10 is_stmt 0 view .LVU736
 3065 00d0 BAF1010F 		cmp	r10, #1
 3066 00d4 02D0     		beq	.L198
 526:Core/Src/main.c ****     }
 3067              		.loc 1 526 18 view .LVU737
 3068 00d6 DFF8C0A1 		ldr	r10, .L202+48
 3069 00da 04E0     		b	.L170
 3070              	.L198:
 524:Core/Src/main.c ****       else
 3071              		.loc 1 524 18 view .LVU738
 3072 00dc DFF8A4A1 		ldr	r10, .L202+28
 3073 00e0 01E0     		b	.L170
 3074              	.L184:
 502:Core/Src/main.c ****     else if (difference < 20)
 3075              		.loc 1 502 16 view .LVU739
 3076 00e2 DFF8B8A1 		ldr	r10, .L202+52
 3077              	.L170:
 3078              	.LVL440:
 528:Core/Src/main.c ****     targetAngle = Add_Angle(atan2(errX, errY) * 57.296, absoluteAngle - angle0);
 3079              		.loc 1 528 5 is_stmt 1 view .LVU740
 528:Core/Src/main.c ****     targetAngle = Add_Angle(atan2(errX, errY) * 57.296, absoluteAngle - angle0);
ARM GAS  C:\Users\86183\AppData\Local\Temp\ccAkzFZ3.s 			page 69


 3080              		.loc 1 528 14 is_stmt 0 view .LVU741
 3081 00e6 FFF7FEFF 		bl	GetYaw
 3082              	.LVL441:
 528:Core/Src/main.c ****     targetAngle = Add_Angle(atan2(errX, errY) * 57.296, absoluteAngle - angle0);
 3083              		.loc 1 528 12 view .LVU742
 3084 00ea DFF8B4B1 		ldr	fp, .L202+56
 3085 00ee CBF80000 		str	r0, [fp]	@ float
 529:Core/Src/main.c ****     Turn(targetAngle);
 3086              		.loc 1 529 5 is_stmt 1 view .LVU743
 529:Core/Src/main.c ****     Turn(targetAngle);
 3087              		.loc 1 529 29 is_stmt 0 view .LVU744
 3088 00f2 2846     		mov	r0, r5
 3089 00f4 FFF7FEFF 		bl	__aeabi_f2d
 3090              	.LVL442:
 3091 00f8 CDE90001 		strd	r0, [sp]
 3092 00fc 2046     		mov	r0, r4
 3093 00fe FFF7FEFF 		bl	__aeabi_f2d
 3094              	.LVL443:
 3095 0102 DDE90023 		ldrd	r2, [sp]
 3096 0106 FFF7FEFF 		bl	atan2
 3097              	.LVL444:
 529:Core/Src/main.c ****     Turn(targetAngle);
 3098              		.loc 1 529 47 view .LVU745
 3099 010a 57A3     		adr	r3, .L202
 3100 010c D3E90023 		ldrd	r2, [r3]
 3101 0110 FFF7FEFF 		bl	__aeabi_dmul
 3102              	.LVL445:
 3103 0114 0446     		mov	r4, r0
 3104              	.LVL446:
 529:Core/Src/main.c ****     Turn(targetAngle);
 3105              		.loc 1 529 47 view .LVU746
 3106 0116 0D46     		mov	r5, r1
 3107              	.LVL447:
 529:Core/Src/main.c ****     Turn(targetAngle);
 3108              		.loc 1 529 19 view .LVU747
 3109 0118 DBF80010 		ldr	r1, [fp]	@ float
 3110 011c 614B     		ldr	r3, .L202+60
 3111 011e 1868     		ldr	r0, [r3]	@ float
 3112 0120 FFF7FEFF 		bl	__aeabi_fsub
 3113              	.LVL448:
 3114 0124 8346     		mov	fp, r0
 3115 0126 2046     		mov	r0, r4
 3116 0128 2946     		mov	r1, r5
 3117 012a FFF7FEFF 		bl	__aeabi_d2f
 3118              	.LVL449:
 3119 012e 5946     		mov	r1, fp
 3120 0130 FFF7FEFF 		bl	Add_Angle
 3121              	.LVL450:
 530:Core/Src/main.c ****     clearDistance();
 3122              		.loc 1 530 5 is_stmt 1 view .LVU748
 3123 0134 FFF7FEFF 		bl	Turn
 3124              	.LVL451:
 531:Core/Src/main.c ****     Set_Left_Direction(1);
 3125              		.loc 1 531 5 view .LVU749
 3126 0138 FFF7FEFF 		bl	clearDistance
 3127              	.LVL452:
 532:Core/Src/main.c ****     Set_Right_Direction(1);
ARM GAS  C:\Users\86183\AppData\Local\Temp\ccAkzFZ3.s 			page 70


 3128              		.loc 1 532 5 view .LVU750
 3129 013c 0120     		movs	r0, #1
 3130 013e FFF7FEFF 		bl	Set_Left_Direction
 3131              	.LVL453:
 533:Core/Src/main.c ****     for (int i = 0; i < 4; i++)
 3132              		.loc 1 533 5 view .LVU751
 3133 0142 0120     		movs	r0, #1
 3134 0144 FFF7FEFF 		bl	Set_Right_Direction
 3135              	.LVL454:
 534:Core/Src/main.c ****       Set_Speed(velocity, i);
 3136              		.loc 1 534 5 view .LVU752
 3137              	.LBB28:
 534:Core/Src/main.c ****       Set_Speed(velocity, i);
 3138              		.loc 1 534 10 view .LVU753
 534:Core/Src/main.c ****       Set_Speed(velocity, i);
 3139              		.loc 1 534 14 is_stmt 0 view .LVU754
 3140 0148 0024     		movs	r4, #0
 3141              	.LVL455:
 3142              	.L175:
 534:Core/Src/main.c ****       Set_Speed(velocity, i);
 3143              		.loc 1 534 21 is_stmt 1 discriminator 1 view .LVU755
 534:Core/Src/main.c ****       Set_Speed(velocity, i);
 3144              		.loc 1 534 5 is_stmt 0 discriminator 1 view .LVU756
 3145 014a 032C     		cmp	r4, #3
 3146 014c 0BDC     		bgt	.L178
 535:Core/Src/main.c ****     while (getDistance() < 0.70 * difference)
 3147              		.loc 1 535 7 is_stmt 1 discriminator 3 view .LVU757
 3148 014e 2146     		mov	r1, r4
 3149 0150 5046     		mov	r0, r10
 3150 0152 FFF7FEFF 		bl	Set_Speed
 3151              	.LVL456:
 534:Core/Src/main.c ****       Set_Speed(velocity, i);
 3152              		.loc 1 534 28 discriminator 3 view .LVU758
 534:Core/Src/main.c ****       Set_Speed(velocity, i);
 3153              		.loc 1 534 29 is_stmt 0 discriminator 3 view .LVU759
 3154 0156 0134     		adds	r4, r4, #1
 3155              	.LVL457:
 534:Core/Src/main.c ****       Set_Speed(velocity, i);
 3156              		.loc 1 534 29 discriminator 3 view .LVU760
 3157 0158 F7E7     		b	.L175
 3158              	.LVL458:
 3159              	.L185:
 534:Core/Src/main.c ****       Set_Speed(velocity, i);
 3160              		.loc 1 534 29 discriminator 3 view .LVU761
 3161              	.LBE28:
 504:Core/Src/main.c ****     else if (difference < 30)
 3162              		.loc 1 504 16 view .LVU762
 3163 015a DFF81CA1 		ldr	r10, .L202+16
 3164 015e C2E7     		b	.L170
 3165              	.L186:
 506:Core/Src/main.c ****     else if (difference < 50)
 3166              		.loc 1 506 16 view .LVU763
 3167 0160 DFF844A1 		ldr	r10, .L202+64
 3168 0164 BFE7     		b	.L170
 3169              	.LVL459:
 3170              	.L178:
 536:Core/Src/main.c ****     {
ARM GAS  C:\Users\86183\AppData\Local\Temp\ccAkzFZ3.s 			page 71


 3171              		.loc 1 536 11 is_stmt 1 view .LVU764
 536:Core/Src/main.c ****     {
 3172              		.loc 1 536 12 is_stmt 0 view .LVU765
 3173 0166 FFF7FEFF 		bl	getDistance
 3174              	.LVL460:
 3175 016a FFF7FEFF 		bl	__aeabi_f2d
 3176              	.LVL461:
 3177 016e 0446     		mov	r4, r0
 3178 0170 0D46     		mov	r5, r1
 536:Core/Src/main.c ****     {
 3179              		.loc 1 536 33 view .LVU766
 3180 0172 3046     		mov	r0, r6
 3181 0174 FFF7FEFF 		bl	__aeabi_f2d
 3182              	.LVL462:
 3183 0178 3DA3     		adr	r3, .L202+8
 3184 017a D3E90023 		ldrd	r2, [r3]
 3185 017e FFF7FEFF 		bl	__aeabi_dmul
 3186              	.LVL463:
 3187 0182 0246     		mov	r2, r0
 3188 0184 0B46     		mov	r3, r1
 536:Core/Src/main.c ****     {
 3189              		.loc 1 536 11 view .LVU767
 3190 0186 2046     		mov	r0, r4
 3191 0188 2946     		mov	r1, r5
 3192 018a FFF7FEFF 		bl	__aeabi_dcmplt
 3193              	.LVL464:
 3194 018e 50B1     		cbz	r0, .L179
 538:Core/Src/main.c ****       if (STATE == (uint8_t)GET_PACKAGE && flag < getCarMineSumNum())
 3195              		.loc 1 538 7 is_stmt 1 view .LVU768
 3196 0190 1420     		movs	r0, #20
 3197 0192 FFF7FEFF 		bl	HAL_Delay
 3198              	.LVL465:
 539:Core/Src/main.c ****         break;
 3199              		.loc 1 539 7 view .LVU769
 539:Core/Src/main.c ****         break;
 3200              		.loc 1 539 17 is_stmt 0 view .LVU770
 3201 0196 3A4B     		ldr	r3, .L202+24
 3202 0198 1B78     		ldrb	r3, [r3]	@ zero_extendqisi2
 539:Core/Src/main.c ****         break;
 3203              		.loc 1 539 10 view .LVU771
 3204 019a 002B     		cmp	r3, #0
 3205 019c E3D1     		bne	.L178
 539:Core/Src/main.c ****         break;
 3206              		.loc 1 539 51 discriminator 1 view .LVU772
 3207 019e FFF7FEFF 		bl	getCarMineSumNum
 3208              	.LVL466:
 539:Core/Src/main.c ****         break;
 3209              		.loc 1 539 41 discriminator 1 view .LVU773
 3210 01a2 4845     		cmp	r0, r9
 3211 01a4 DFDD     		ble	.L178
 3212              	.L179:
 542:Core/Src/main.c ****     Set_Right_Direction(0);
 3213              		.loc 1 542 5 is_stmt 1 view .LVU774
 3214 01a6 0020     		movs	r0, #0
 3215 01a8 FFF7FEFF 		bl	Set_Left_Direction
 3216              	.LVL467:
 543:Core/Src/main.c ****     HAL_Delay(400);
ARM GAS  C:\Users\86183\AppData\Local\Temp\ccAkzFZ3.s 			page 72


 3217              		.loc 1 543 5 view .LVU775
 3218 01ac 0020     		movs	r0, #0
 3219 01ae FFF7FEFF 		bl	Set_Right_Direction
 3220              	.LVL468:
 544:Core/Src/main.c ****     errX = x - userGetCarPosX();
 3221              		.loc 1 544 5 view .LVU776
 3222 01b2 4FF4C870 		mov	r0, #400
 3223 01b6 FFF7FEFF 		bl	HAL_Delay
 3224              	.LVL469:
 545:Core/Src/main.c ****     errY = y - userGetCarPosY();
 3225              		.loc 1 545 5 view .LVU777
 545:Core/Src/main.c ****     errY = y - userGetCarPosY();
 3226              		.loc 1 545 16 is_stmt 0 view .LVU778
 3227 01ba FFF7FEFF 		bl	userGetCarPosX
 3228              	.LVL470:
 3229 01be 0146     		mov	r1, r0
 545:Core/Src/main.c ****     errY = y - userGetCarPosY();
 3230              		.loc 1 545 10 view .LVU779
 3231 01c0 4046     		mov	r0, r8
 3232 01c2 FFF7FEFF 		bl	__aeabi_fsub
 3233              	.LVL471:
 3234 01c6 0446     		mov	r4, r0
 3235              	.LVL472:
 546:Core/Src/main.c ****     difference = sqrt(errX * errX + errY * errY);
 3236              		.loc 1 546 5 is_stmt 1 view .LVU780
 546:Core/Src/main.c ****     difference = sqrt(errX * errX + errY * errY);
 3237              		.loc 1 546 16 is_stmt 0 view .LVU781
 3238 01c8 FFF7FEFF 		bl	userGetCarPosY
 3239              	.LVL473:
 546:Core/Src/main.c ****     difference = sqrt(errX * errX + errY * errY);
 3240              		.loc 1 546 16 view .LVU782
 3241 01cc 0146     		mov	r1, r0
 546:Core/Src/main.c ****     difference = sqrt(errX * errX + errY * errY);
 3242              		.loc 1 546 10 view .LVU783
 3243 01ce 3846     		mov	r0, r7
 3244 01d0 FFF7FEFF 		bl	__aeabi_fsub
 3245              	.LVL474:
 3246 01d4 0546     		mov	r5, r0
 3247              	.LVL475:
 547:Core/Src/main.c ****   }
 3248              		.loc 1 547 5 is_stmt 1 view .LVU784
 547:Core/Src/main.c ****   }
 3249              		.loc 1 547 28 is_stmt 0 view .LVU785
 3250 01d6 2146     		mov	r1, r4
 3251 01d8 2046     		mov	r0, r4
 3252              	.LVL476:
 547:Core/Src/main.c ****   }
 3253              		.loc 1 547 28 view .LVU786
 3254 01da FFF7FEFF 		bl	__aeabi_fmul
 3255              	.LVL477:
 3256 01de 0646     		mov	r6, r0
 3257              	.LVL478:
 547:Core/Src/main.c ****   }
 3258              		.loc 1 547 42 view .LVU787
 3259 01e0 2946     		mov	r1, r5
 3260 01e2 2846     		mov	r0, r5
 3261 01e4 FFF7FEFF 		bl	__aeabi_fmul
ARM GAS  C:\Users\86183\AppData\Local\Temp\ccAkzFZ3.s 			page 73


 3262              	.LVL479:
 3263 01e8 0146     		mov	r1, r0
 547:Core/Src/main.c ****   }
 3264              		.loc 1 547 35 view .LVU788
 3265 01ea 3046     		mov	r0, r6
 3266 01ec FFF7FEFF 		bl	__aeabi_fadd
 3267              	.LVL480:
 547:Core/Src/main.c ****   }
 3268              		.loc 1 547 18 view .LVU789
 3269 01f0 FFF7FEFF 		bl	__aeabi_f2d
 3270              	.LVL481:
 3271 01f4 FFF7FEFF 		bl	sqrt
 3272              	.LVL482:
 547:Core/Src/main.c ****   }
 3273              		.loc 1 547 16 view .LVU790
 3274 01f8 FFF7FEFF 		bl	__aeabi_d2f
 3275              	.LVL483:
 3276 01fc 0646     		mov	r6, r0
 3277              	.LVL484:
 3278              	.L181:
 495:Core/Src/main.c ****   {
 3279              		.loc 1 495 9 is_stmt 1 view .LVU791
 3280 01fe 2B49     		ldr	r1, .L202+68
 3281 0200 3046     		mov	r0, r6
 3282 0202 FFF7FEFF 		bl	__aeabi_fcmpgt
 3283              	.LVL485:
 3284 0206 0028     		cmp	r0, #0
 3285 0208 3FF412AF 		beq	.L165
 497:Core/Src/main.c ****       break;
 3286              		.loc 1 497 5 view .LVU792
 497:Core/Src/main.c ****       break;
 3287              		.loc 1 497 15 is_stmt 0 view .LVU793
 3288 020c 1C4B     		ldr	r3, .L202+24
 3289 020e 1B78     		ldrb	r3, [r3]	@ zero_extendqisi2
 497:Core/Src/main.c ****       break;
 3290              		.loc 1 497 8 view .LVU794
 3291 0210 002B     		cmp	r3, #0
 3292 0212 3FF43EAF 		beq	.L199
 3293              	.L168:
 499:Core/Src/main.c ****       break;
 3294              		.loc 1 499 10 is_stmt 1 view .LVU795
 499:Core/Src/main.c ****       break;
 3295              		.loc 1 499 20 is_stmt 0 view .LVU796
 3296 0216 1A4B     		ldr	r3, .L202+24
 3297 0218 93F800A0 		ldrb	r10, [r3]	@ zero_extendqisi2
 499:Core/Src/main.c ****       break;
 3298              		.loc 1 499 13 view .LVU797
 3299 021c BAF1020F 		cmp	r10, #2
 3300 0220 3FF43DAF 		beq	.L200
 3301              	.L169:
 501:Core/Src/main.c ****       velocity = 3;
 3302              		.loc 1 501 5 is_stmt 1 view .LVU798
 501:Core/Src/main.c ****       velocity = 3;
 3303              		.loc 1 501 8 is_stmt 0 view .LVU799
 3304 0224 2049     		ldr	r1, .L202+64
 3305 0226 3046     		mov	r0, r6
 3306 0228 FFF7FEFF 		bl	__aeabi_fcmplt
ARM GAS  C:\Users\86183\AppData\Local\Temp\ccAkzFZ3.s 			page 74


 3307              	.LVL486:
 3308 022c 0028     		cmp	r0, #0
 3309 022e 7FF458AF 		bne	.L184
 503:Core/Src/main.c ****       velocity = 7;
 3310              		.loc 1 503 10 is_stmt 1 view .LVU800
 503:Core/Src/main.c ****       velocity = 7;
 3311              		.loc 1 503 13 is_stmt 0 view .LVU801
 3312 0232 1449     		ldr	r1, .L202+28
 3313 0234 3046     		mov	r0, r6
 3314 0236 FFF7FEFF 		bl	__aeabi_fcmplt
 3315              	.LVL487:
 3316 023a 0028     		cmp	r0, #0
 3317 023c 8DD1     		bne	.L185
 505:Core/Src/main.c ****       velocity = 10;
 3318              		.loc 1 505 10 is_stmt 1 view .LVU802
 505:Core/Src/main.c ****       velocity = 10;
 3319              		.loc 1 505 13 is_stmt 0 view .LVU803
 3320 023e 1C49     		ldr	r1, .L202+72
 3321 0240 3046     		mov	r0, r6
 3322 0242 FFF7FEFF 		bl	__aeabi_fcmplt
 3323              	.LVL488:
 3324 0246 0028     		cmp	r0, #0
 3325 0248 8AD1     		bne	.L186
 507:Core/Src/main.c ****     {
 3326              		.loc 1 507 10 is_stmt 1 view .LVU804
 507:Core/Src/main.c ****     {
 3327              		.loc 1 507 13 is_stmt 0 view .LVU805
 3328 024a 1A49     		ldr	r1, .L202+76
 3329 024c 3046     		mov	r0, r6
 3330 024e FFF7FEFF 		bl	__aeabi_fcmplt
 3331              	.LVL489:
 3332 0252 0028     		cmp	r0, #0
 3333 0254 3FF42EAF 		beq	.L192
 509:Core/Src/main.c ****         velocity = 13;
 3334              		.loc 1 509 7 is_stmt 1 view .LVU806
 509:Core/Src/main.c ****         velocity = 13;
 3335              		.loc 1 509 10 is_stmt 0 view .LVU807
 3336 0258 BAF1010F 		cmp	r10, #1
 3337 025c 3FF427AF 		beq	.L201
 512:Core/Src/main.c ****     }
 3338              		.loc 1 512 18 view .LVU808
 3339 0260 DFF830A0 		ldr	r10, .L202+44
 3340 0264 3FE7     		b	.L170
 3341              	.L203:
 3342 0266 00BF     		.align	3
 3343              	.L202:
 3344 0268 D9CEF753 		.word	1408749273
 3345 026c E3A54C40 		.word	1078765027
 3346 0270 66666666 		.word	1717986918
 3347 0274 6666E63F 		.word	1072064102
 3348 0278 0000E040 		.word	1088421888
 3349 027c 00007843 		.word	1131937792
 3350 0280 00000000 		.word	.LANCHOR10
 3351 0284 0000A041 		.word	1101004800
 3352 0288 00005041 		.word	1095761920
 3353 028c 0000C842 		.word	1120403456
 3354 0290 0000B841 		.word	1102577664
ARM GAS  C:\Users\86183\AppData\Local\Temp\ccAkzFZ3.s 			page 75


 3355 0294 00008841 		.word	1099431936
 3356 0298 0000D841 		.word	1104674816
 3357 029c 00004040 		.word	1077936128
 3358 02a0 00000000 		.word	.LANCHOR7
 3359 02a4 00000000 		.word	.LANCHOR8
 3360 02a8 00002041 		.word	1092616192
 3361 02ac 0000A040 		.word	1084227584
 3362 02b0 0000F041 		.word	1106247680
 3363 02b4 00004842 		.word	1112014848
 3364              		.cfi_endproc
 3365              	.LFE80:
 3367              		.section	.text.Init,"ax",%progbits
 3368              		.align	1
 3369              		.global	Init
 3370              		.syntax unified
 3371              		.thumb
 3372              		.thumb_func
 3373              		.fpu softvfp
 3375              	Init:
 3376              	.LFB81:
 550:Core/Src/main.c **** 
 551:Core/Src/main.c **** void Init()
 552:Core/Src/main.c **** {
 3377              		.loc 1 552 1 is_stmt 1 view -0
 3378              		.cfi_startproc
 3379              		@ args = 0, pretend = 0, frame = 0
 3380              		@ frame_needed = 0, uses_anonymous_args = 0
 3381 0000 08B5     		push	{r3, lr}
 3382              	.LCFI21:
 3383              		.cfi_def_cfa_offset 8
 3384              		.cfi_offset 3, -8
 3385              		.cfi_offset 14, -4
 3386              	.L205:
 553:Core/Src/main.c ****   while (getGameState() == 0)
 554:Core/Src/main.c ****     ;
 3387              		.loc 1 554 5 discriminator 1 view .LVU810
 553:Core/Src/main.c ****   while (getGameState() == 0)
 3388              		.loc 1 553 9 discriminator 1 view .LVU811
 553:Core/Src/main.c ****   while (getGameState() == 0)
 3389              		.loc 1 553 10 is_stmt 0 discriminator 1 view .LVU812
 3390 0002 FFF7FEFF 		bl	getGameState
 3391              	.LVL490:
 553:Core/Src/main.c ****   while (getGameState() == 0)
 3392              		.loc 1 553 9 discriminator 1 view .LVU813
 3393 0006 0028     		cmp	r0, #0
 3394 0008 FBD0     		beq	.L205
 555:Core/Src/main.c ****   HAL_Delay(100);
 3395              		.loc 1 555 3 is_stmt 1 view .LVU814
 3396 000a 6420     		movs	r0, #100
 3397 000c FFF7FEFF 		bl	HAL_Delay
 3398              	.LVL491:
 556:Core/Src/main.c ****   MoveTo(127, 127);
 3399              		.loc 1 556 3 view .LVU815
 3400 0010 0248     		ldr	r0, .L207
 3401 0012 0146     		mov	r1, r0
 3402 0014 FFF7FEFF 		bl	MoveTo
 3403              	.LVL492:
ARM GAS  C:\Users\86183\AppData\Local\Temp\ccAkzFZ3.s 			page 76


 557:Core/Src/main.c **** }
 3404              		.loc 1 557 1 is_stmt 0 view .LVU816
 3405 0018 08BD     		pop	{r3, pc}
 3406              	.L208:
 3407 001a 00BF     		.align	2
 3408              	.L207:
 3409 001c 0000FE42 		.word	1123942400
 3410              		.cfi_endproc
 3411              	.LFE81:
 3413              		.section	.text.Get_Survey_Data,"ax",%progbits
 3414              		.align	1
 3415              		.global	Get_Survey_Data
 3416              		.syntax unified
 3417              		.thumb
 3418              		.thumb_func
 3419              		.fpu softvfp
 3421              	Get_Survey_Data:
 3422              	.LVL493:
 3423              	.LFB82:
 558:Core/Src/main.c **** 
 559:Core/Src/main.c **** void Get_Survey_Data(float *x, float *y, float *I)
 560:Core/Src/main.c **** {
 3424              		.loc 1 560 1 is_stmt 1 view -0
 3425              		.cfi_startproc
 3426              		@ args = 0, pretend = 0, frame = 0
 3427              		@ frame_needed = 0, uses_anonymous_args = 0
 3428              		.loc 1 560 1 is_stmt 0 view .LVU818
 3429 0000 70B5     		push	{r4, r5, r6, lr}
 3430              	.LCFI22:
 3431              		.cfi_def_cfa_offset 16
 3432              		.cfi_offset 4, -16
 3433              		.cfi_offset 5, -12
 3434              		.cfi_offset 6, -8
 3435              		.cfi_offset 14, -4
 3436 0002 0646     		mov	r6, r0
 3437 0004 0D46     		mov	r5, r1
 3438 0006 1446     		mov	r4, r2
 561:Core/Src/main.c ****   *x = userGetCarPosX();
 3439              		.loc 1 561 3 is_stmt 1 view .LVU819
 3440              		.loc 1 561 8 is_stmt 0 view .LVU820
 3441 0008 FFF7FEFF 		bl	userGetCarPosX
 3442              	.LVL494:
 3443              		.loc 1 561 6 view .LVU821
 3444 000c 3060     		str	r0, [r6]	@ float
 562:Core/Src/main.c ****   *y = userGetCarPosY();
 3445              		.loc 1 562 3 is_stmt 1 view .LVU822
 3446              		.loc 1 562 8 is_stmt 0 view .LVU823
 3447 000e FFF7FEFF 		bl	userGetCarPosY
 3448              	.LVL495:
 3449              		.loc 1 562 6 view .LVU824
 3450 0012 2860     		str	r0, [r5]	@ float
 563:Core/Src/main.c ****   I[0] = getMineIntensity(0);
 3451              		.loc 1 563 3 is_stmt 1 view .LVU825
 3452              		.loc 1 563 10 is_stmt 0 view .LVU826
 3453 0014 0020     		movs	r0, #0
 3454 0016 FFF7FEFF 		bl	getMineIntensity
 3455              	.LVL496:
ARM GAS  C:\Users\86183\AppData\Local\Temp\ccAkzFZ3.s 			page 77


 3456              		.loc 1 563 8 view .LVU827
 3457 001a FFF7FEFF 		bl	__aeabi_ui2f
 3458              	.LVL497:
 3459 001e 2060     		str	r0, [r4]	@ float
 564:Core/Src/main.c ****   I[1] = getMineIntensity(1);
 3460              		.loc 1 564 3 is_stmt 1 view .LVU828
 3461              		.loc 1 564 10 is_stmt 0 view .LVU829
 3462 0020 0120     		movs	r0, #1
 3463 0022 FFF7FEFF 		bl	getMineIntensity
 3464              	.LVL498:
 3465              		.loc 1 564 8 view .LVU830
 3466 0026 FFF7FEFF 		bl	__aeabi_ui2f
 3467              	.LVL499:
 3468 002a 6060     		str	r0, [r4, #4]	@ float
 565:Core/Src/main.c **** }
 3469              		.loc 1 565 1 view .LVU831
 3470 002c 70BD     		pop	{r4, r5, r6, pc}
 3471              		.loc 1 565 1 view .LVU832
 3472              		.cfi_endproc
 3473              	.LFE82:
 3475              		.global	__aeabi_ddiv
 3476              		.section	.text.Calculate_Package_Position,"ax",%progbits
 3477              		.align	1
 3478              		.global	Calculate_Package_Position
 3479              		.syntax unified
 3480              		.thumb
 3481              		.thumb_func
 3482              		.fpu softvfp
 3484              	Calculate_Package_Position:
 3485              	.LFB83:
 566:Core/Src/main.c **** 
 567:Core/Src/main.c **** void Calculate_Package_Position(void)
 568:Core/Src/main.c **** {
 3486              		.loc 1 568 1 is_stmt 1 view -0
 3487              		.cfi_startproc
 3488              		@ args = 0, pretend = 0, frame = 128
 3489              		@ frame_needed = 0, uses_anonymous_args = 0
 3490 0000 2DE9F04F 		push	{r4, r5, r6, r7, r8, r9, r10, fp, lr}
 3491              	.LCFI23:
 3492              		.cfi_def_cfa_offset 36
 3493              		.cfi_offset 4, -36
 3494              		.cfi_offset 5, -32
 3495              		.cfi_offset 6, -28
 3496              		.cfi_offset 7, -24
 3497              		.cfi_offset 8, -20
 3498              		.cfi_offset 9, -16
 3499              		.cfi_offset 10, -12
 3500              		.cfi_offset 11, -8
 3501              		.cfi_offset 14, -4
 3502 0004 A1B0     		sub	sp, sp, #132
 3503              	.LCFI24:
 3504              		.cfi_def_cfa_offset 168
 569:Core/Src/main.c ****   float x[3], y[3];
 3505              		.loc 1 569 3 view .LVU834
 570:Core/Src/main.c ****   float I[3][2];
 3506              		.loc 1 570 3 view .LVU835
 571:Core/Src/main.c ****   float A[2], B[2], C[2][2], invdet;
ARM GAS  C:\Users\86183\AppData\Local\Temp\ccAkzFZ3.s 			page 78


 3507              		.loc 1 571 3 view .LVU836
 572:Core/Src/main.c ****   Get_Survey_Data(&x[0], &y[0], I[0]);
 3508              		.loc 1 572 3 view .LVU837
 3509 0006 14AA     		add	r2, sp, #80
 3510 0008 1AA9     		add	r1, sp, #104
 3511 000a 1DA8     		add	r0, sp, #116
 3512 000c FFF7FEFF 		bl	Get_Survey_Data
 3513              	.LVL500:
 3514              	.L212:
 573:Core/Src/main.c ****   do
 3515              		.loc 1 573 3 discriminator 3 view .LVU838
 574:Core/Src/main.c ****   {
 575:Core/Src/main.c ****     Get_Survey_Data(&x[0], &y[0], I[0]);
 3516              		.loc 1 575 5 discriminator 3 view .LVU839
 3517 0010 14AA     		add	r2, sp, #80
 3518 0012 1AA9     		add	r1, sp, #104
 3519 0014 1DA8     		add	r0, sp, #116
 3520 0016 FFF7FEFF 		bl	Get_Survey_Data
 3521              	.LVL501:
 576:Core/Src/main.c ****   } while (x[0] < 0 || y[0] < 0);
 3522              		.loc 1 576 11 discriminator 3 view .LVU840
 3523              		.loc 1 576 3 is_stmt 0 discriminator 3 view .LVU841
 3524 001a 0021     		movs	r1, #0
 3525 001c 1D98     		ldr	r0, [sp, #116]	@ float
 3526 001e FFF7FEFF 		bl	__aeabi_fcmplt
 3527              	.LVL502:
 3528 0022 0028     		cmp	r0, #0
 3529 0024 F4D1     		bne	.L212
 3530              		.loc 1 576 21 discriminator 2 view .LVU842
 3531 0026 0021     		movs	r1, #0
 3532 0028 1A98     		ldr	r0, [sp, #104]	@ float
 3533 002a FFF7FEFF 		bl	__aeabi_fcmplt
 3534              	.LVL503:
 3535 002e 0028     		cmp	r0, #0
 3536 0030 EED1     		bne	.L212
 577:Core/Src/main.c ****   // u2_printf("%d, %d, %d, %d\n", x[0], y[0], I[0][0], I[0][1]);
 578:Core/Src/main.c ****   Set_Speed(0, 0);
 3537              		.loc 1 578 3 is_stmt 1 view .LVU843
 3538 0032 0024     		movs	r4, #0
 3539 0034 0021     		movs	r1, #0
 3540 0036 2046     		mov	r0, r4
 3541 0038 FFF7FEFF 		bl	Set_Speed
 3542              	.LVL504:
 579:Core/Src/main.c ****   Set_Speed(0, 1);
 3543              		.loc 1 579 3 view .LVU844
 3544 003c 0121     		movs	r1, #1
 3545 003e 2046     		mov	r0, r4
 3546 0040 FFF7FEFF 		bl	Set_Speed
 3547              	.LVL505:
 580:Core/Src/main.c ****   Set_Speed(5, 2);
 3548              		.loc 1 580 3 view .LVU845
 3549 0044 C24C     		ldr	r4, .L217+8
 3550 0046 0221     		movs	r1, #2
 3551 0048 2046     		mov	r0, r4
 3552 004a FFF7FEFF 		bl	Set_Speed
 3553              	.LVL506:
 581:Core/Src/main.c ****   Set_Speed(5, 3);
ARM GAS  C:\Users\86183\AppData\Local\Temp\ccAkzFZ3.s 			page 79


 3554              		.loc 1 581 3 view .LVU846
 3555 004e 0321     		movs	r1, #3
 3556 0050 2046     		mov	r0, r4
 3557 0052 FFF7FEFF 		bl	Set_Speed
 3558              	.LVL507:
 582:Core/Src/main.c ****   Set_Left_Direction(-1);
 3559              		.loc 1 582 3 view .LVU847
 3560 0056 4FF0FF30 		mov	r0, #-1
 3561 005a FFF7FEFF 		bl	Set_Left_Direction
 3562              	.LVL508:
 583:Core/Src/main.c ****   Set_Right_Direction(1);
 3563              		.loc 1 583 3 view .LVU848
 3564 005e 0120     		movs	r0, #1
 3565 0060 FFF7FEFF 		bl	Set_Right_Direction
 3566              	.LVL509:
 3567              	.L214:
 584:Core/Src/main.c ****   do
 3568              		.loc 1 584 3 view .LVU849
 585:Core/Src/main.c ****   {
 586:Core/Src/main.c ****     HAL_Delay(100);
 3569              		.loc 1 586 5 view .LVU850
 3570 0064 6420     		movs	r0, #100
 3571 0066 FFF7FEFF 		bl	HAL_Delay
 3572              	.LVL510:
 587:Core/Src/main.c ****     Get_Survey_Data(&x[1], &y[1], I[1]);
 3573              		.loc 1 587 5 view .LVU851
 3574 006a 16AA     		add	r2, sp, #88
 3575 006c 1BA9     		add	r1, sp, #108
 3576 006e 1EA8     		add	r0, sp, #120
 3577 0070 FFF7FEFF 		bl	Get_Survey_Data
 3578              	.LVL511:
 588:Core/Src/main.c ****     if (x[1] < 0 || y[1] < 0)
 3579              		.loc 1 588 5 view .LVU852
 589:Core/Src/main.c ****       continue;
 590:Core/Src/main.c ****   } while (((int)x[1] - (int)x[0]) == 0 && ((int)y[1] - (int)y[0]) == 0);
 3580              		.loc 1 590 11 view .LVU853
 3581              		.loc 1 590 13 is_stmt 0 view .LVU854
 3582 0074 1E98     		ldr	r0, [sp, #120]	@ float
 3583 0076 FFF7FEFF 		bl	__aeabi_f2iz
 3584              	.LVL512:
 3585 007a 0446     		mov	r4, r0
 3586              		.loc 1 590 25 view .LVU855
 3587 007c 1D98     		ldr	r0, [sp, #116]	@ float
 3588 007e FFF7FEFF 		bl	__aeabi_f2iz
 3589              	.LVL513:
 3590              		.loc 1 590 3 view .LVU856
 3591 0082 8442     		cmp	r4, r0
 3592 0084 08D1     		bne	.L215
 3593              		.loc 1 590 45 discriminator 1 view .LVU857
 3594 0086 1B98     		ldr	r0, [sp, #108]	@ float
 3595 0088 FFF7FEFF 		bl	__aeabi_f2iz
 3596              	.LVL514:
 3597 008c 0446     		mov	r4, r0
 3598              		.loc 1 590 57 discriminator 1 view .LVU858
 3599 008e 1A98     		ldr	r0, [sp, #104]	@ float
 3600 0090 FFF7FEFF 		bl	__aeabi_f2iz
 3601              	.LVL515:
ARM GAS  C:\Users\86183\AppData\Local\Temp\ccAkzFZ3.s 			page 80


 3602              		.loc 1 590 41 discriminator 1 view .LVU859
 3603 0094 8442     		cmp	r4, r0
 3604 0096 E5D0     		beq	.L214
 3605              	.L215:
 591:Core/Src/main.c ****   do
 3606              		.loc 1 591 3 is_stmt 1 view .LVU860
 592:Core/Src/main.c ****   {
 593:Core/Src/main.c ****     HAL_Delay(100);
 3607              		.loc 1 593 5 view .LVU861
 3608 0098 6420     		movs	r0, #100
 3609 009a FFF7FEFF 		bl	HAL_Delay
 3610              	.LVL516:
 594:Core/Src/main.c ****     Get_Survey_Data(&x[2], &y[2], I[2]);
 3611              		.loc 1 594 5 view .LVU862
 3612 009e 18AA     		add	r2, sp, #96
 3613 00a0 1CA9     		add	r1, sp, #112
 3614 00a2 1FA8     		add	r0, sp, #124
 3615 00a4 FFF7FEFF 		bl	Get_Survey_Data
 3616              	.LVL517:
 595:Core/Src/main.c ****     if (x[2] < 0 || y[2] < 0)
 3617              		.loc 1 595 5 view .LVU863
 3618              		.loc 1 595 10 is_stmt 0 view .LVU864
 3619 00a8 DDF87C80 		ldr	r8, [sp, #124]	@ float
 596:Core/Src/main.c ****       continue;
 597:Core/Src/main.c ****   } while (((int)x[1] - (int)x[0]) * ((int)y[2] - (int)y[0]) - ((int)x[2] - (int)x[0]) * ((int)y[1]
 3620              		.loc 1 597 11 is_stmt 1 view .LVU865
 3621              		.loc 1 597 19 is_stmt 0 view .LVU866
 3622 00ac 1E9F     		ldr	r7, [sp, #120]	@ float
 3623              		.loc 1 597 13 view .LVU867
 3624 00ae 3846     		mov	r0, r7
 3625 00b0 FFF7FEFF 		bl	__aeabi_f2iz
 3626              	.LVL518:
 3627 00b4 0446     		mov	r4, r0
 3628              		.loc 1 597 31 view .LVU868
 3629 00b6 DDF874A0 		ldr	r10, [sp, #116]	@ float
 3630              		.loc 1 597 25 view .LVU869
 3631 00ba 5046     		mov	r0, r10
 3632 00bc FFF7FEFF 		bl	__aeabi_f2iz
 3633              	.LVL519:
 3634 00c0 0546     		mov	r5, r0
 3635              		.loc 1 597 23 view .LVU870
 3636 00c2 241A     		subs	r4, r4, r0
 3637              		.loc 1 597 45 view .LVU871
 3638 00c4 1C9B     		ldr	r3, [sp, #112]	@ float
 3639 00c6 0093     		str	r3, [sp]	@ float
 3640              		.loc 1 597 39 view .LVU872
 3641 00c8 1846     		mov	r0, r3
 3642 00ca FFF7FEFF 		bl	__aeabi_f2iz
 3643              	.LVL520:
 3644 00ce 8346     		mov	fp, r0
 3645              		.loc 1 597 57 view .LVU873
 3646 00d0 DDF86890 		ldr	r9, [sp, #104]	@ float
 3647              		.loc 1 597 51 view .LVU874
 3648 00d4 4846     		mov	r0, r9
 3649 00d6 FFF7FEFF 		bl	__aeabi_f2iz
 3650              	.LVL521:
 3651 00da 0646     		mov	r6, r0
ARM GAS  C:\Users\86183\AppData\Local\Temp\ccAkzFZ3.s 			page 81


 3652              		.loc 1 597 49 view .LVU875
 3653 00dc ABEB000B 		sub	fp, fp, r0
 3654              		.loc 1 597 36 view .LVU876
 3655 00e0 0BFB04F4 		mul	r4, fp, r4
 3656              		.loc 1 597 65 view .LVU877
 3657 00e4 4046     		mov	r0, r8
 3658 00e6 FFF7FEFF 		bl	__aeabi_f2iz
 3659              	.LVL522:
 3660              		.loc 1 597 75 view .LVU878
 3661 00ea 451B     		subs	r5, r0, r5
 3662              		.loc 1 597 97 view .LVU879
 3663 00ec DDF86CB0 		ldr	fp, [sp, #108]	@ float
 3664              		.loc 1 597 91 view .LVU880
 3665 00f0 5846     		mov	r0, fp
 3666 00f2 FFF7FEFF 		bl	__aeabi_f2iz
 3667              	.LVL523:
 3668              		.loc 1 597 101 view .LVU881
 3669 00f6 861B     		subs	r6, r0, r6
 3670              		.loc 1 597 88 view .LVU882
 3671 00f8 06FB05F5 		mul	r5, r6, r5
 3672              		.loc 1 597 3 view .LVU883
 3673 00fc AC42     		cmp	r4, r5
 3674 00fe CBD0     		beq	.L215
 598:Core/Src/main.c ****   A[0] = (x[1] - x[0]);
 3675              		.loc 1 598 3 is_stmt 1 view .LVU884
 3676              		.loc 1 598 16 is_stmt 0 view .LVU885
 3677 0100 5146     		mov	r1, r10
 3678 0102 3846     		mov	r0, r7
 3679 0104 FFF7FEFF 		bl	__aeabi_fsub
 3680              	.LVL524:
 3681              		.loc 1 598 8 view .LVU886
 3682 0108 0490     		str	r0, [sp, #16]	@ float
 3683 010a 1290     		str	r0, [sp, #72]	@ float
 599:Core/Src/main.c ****   A[1] = (x[2] - x[1]);
 3684              		.loc 1 599 3 is_stmt 1 view .LVU887
 3685              		.loc 1 599 16 is_stmt 0 view .LVU888
 3686 010c 3946     		mov	r1, r7
 3687 010e 4046     		mov	r0, r8
 3688 0110 FFF7FEFF 		bl	__aeabi_fsub
 3689              	.LVL525:
 3690              		.loc 1 599 8 view .LVU889
 3691 0114 0590     		str	r0, [sp, #20]	@ float
 3692 0116 1390     		str	r0, [sp, #76]	@ float
 600:Core/Src/main.c ****   B[0] = (y[1] - y[0]);
 3693              		.loc 1 600 3 is_stmt 1 view .LVU890
 3694              		.loc 1 600 16 is_stmt 0 view .LVU891
 3695 0118 4946     		mov	r1, r9
 3696 011a 5846     		mov	r0, fp
 3697 011c FFF7FEFF 		bl	__aeabi_fsub
 3698              	.LVL526:
 3699              		.loc 1 600 8 view .LVU892
 3700 0120 0290     		str	r0, [sp, #8]	@ float
 3701 0122 1090     		str	r0, [sp, #64]	@ float
 601:Core/Src/main.c ****   B[1] = (y[2] - y[1]);
 3702              		.loc 1 601 3 is_stmt 1 view .LVU893
 3703              		.loc 1 601 16 is_stmt 0 view .LVU894
 3704 0124 5946     		mov	r1, fp
ARM GAS  C:\Users\86183\AppData\Local\Temp\ccAkzFZ3.s 			page 82


 3705 0126 0098     		ldr	r0, [sp]	@ float
 3706 0128 FFF7FEFF 		bl	__aeabi_fsub
 3707              	.LVL527:
 3708              		.loc 1 601 8 view .LVU895
 3709 012c 0390     		str	r0, [sp, #12]	@ float
 3710 012e 1190     		str	r0, [sp, #68]	@ float
 602:Core/Src/main.c ****   C[0][0] = 2.0e9 * (I[1][0] - I[0][0]) / (I[1][0] + I[0][0]) / (I[1][0] + I[0][0]) + (x[1] + x[0])
 3711              		.loc 1 602 3 is_stmt 1 view .LVU896
 3712              		.loc 1 602 26 is_stmt 0 view .LVU897
 3713 0130 169E     		ldr	r6, [sp, #88]	@ float
 3714              		.loc 1 602 36 view .LVU898
 3715 0132 149C     		ldr	r4, [sp, #80]	@ float
 3716              		.loc 1 602 30 view .LVU899
 3717 0134 2146     		mov	r1, r4
 3718 0136 3046     		mov	r0, r6
 3719 0138 FFF7FEFF 		bl	__aeabi_fsub
 3720              	.LVL528:
 3721 013c FFF7FEFF 		bl	__aeabi_f2d
 3722              	.LVL529:
 3723              		.loc 1 602 19 view .LVU900
 3724 0140 81A3     		adr	r3, .L217
 3725 0142 D3E90023 		ldrd	r2, [r3]
 3726 0146 FFF7FEFF 		bl	__aeabi_dmul
 3727              	.LVL530:
 3728 014a CDE90601 		strd	r0, [sp, #24]
 3729              		.loc 1 602 52 view .LVU901
 3730 014e 2146     		mov	r1, r4
 3731 0150 3046     		mov	r0, r6
 3732 0152 FFF7FEFF 		bl	__aeabi_fadd
 3733              	.LVL531:
 3734 0156 FFF7FEFF 		bl	__aeabi_f2d
 3735              	.LVL532:
 3736 015a 0446     		mov	r4, r0
 3737 015c 0D46     		mov	r5, r1
 3738              		.loc 1 602 41 view .LVU902
 3739 015e 0246     		mov	r2, r0
 3740 0160 0B46     		mov	r3, r1
 3741 0162 DDE90601 		ldrd	r0, [sp, #24]
 3742 0166 FFF7FEFF 		bl	__aeabi_ddiv
 3743              	.LVL533:
 3744              		.loc 1 602 63 view .LVU903
 3745 016a 2246     		mov	r2, r4
 3746 016c 2B46     		mov	r3, r5
 3747 016e FFF7FEFF 		bl	__aeabi_ddiv
 3748              	.LVL534:
 3749 0172 0446     		mov	r4, r0
 3750 0174 0D46     		mov	r5, r1
 3751              		.loc 1 602 93 view .LVU904
 3752 0176 5146     		mov	r1, r10
 3753 0178 3846     		mov	r0, r7
 3754 017a FFF7FEFF 		bl	__aeabi_fadd
 3755              	.LVL535:
 3756 017e 0146     		mov	r1, r0
 3757              		.loc 1 602 101 view .LVU905
 3758 0180 0498     		ldr	r0, [sp, #16]	@ float
 3759 0182 FFF7FEFF 		bl	__aeabi_fmul
 3760              	.LVL536:
ARM GAS  C:\Users\86183\AppData\Local\Temp\ccAkzFZ3.s 			page 83


 3761              		.loc 1 602 117 view .LVU906
 3762 0186 4FF07C51 		mov	r1, #1056964608
 3763 018a FFF7FEFF 		bl	__aeabi_fmul
 3764              	.LVL537:
 3765 018e FFF7FEFF 		bl	__aeabi_f2d
 3766              	.LVL538:
 3767 0192 0246     		mov	r2, r0
 3768 0194 0B46     		mov	r3, r1
 3769              		.loc 1 602 85 view .LVU907
 3770 0196 CDE90623 		strd	r2, [sp, #24]
 3771 019a 2046     		mov	r0, r4
 3772 019c 2946     		mov	r1, r5
 3773 019e FFF7FEFF 		bl	__aeabi_dadd
 3774              	.LVL539:
 3775 01a2 0446     		mov	r4, r0
 3776 01a4 0D46     		mov	r5, r1
 3777              		.loc 1 602 129 view .LVU908
 3778 01a6 5946     		mov	r1, fp
 3779 01a8 4846     		mov	r0, r9
 3780 01aa FFF7FEFF 		bl	__aeabi_fadd
 3781              	.LVL540:
 3782 01ae 0146     		mov	r1, r0
 3783              		.loc 1 602 137 view .LVU909
 3784 01b0 0298     		ldr	r0, [sp, #8]	@ float
 3785 01b2 FFF7FEFF 		bl	__aeabi_fmul
 3786              	.LVL541:
 3787              		.loc 1 602 153 view .LVU910
 3788 01b6 4FF07C51 		mov	r1, #1056964608
 3789 01ba FFF7FEFF 		bl	__aeabi_fmul
 3790              	.LVL542:
 3791 01be FFF7FEFF 		bl	__aeabi_f2d
 3792              	.LVL543:
 3793 01c2 0246     		mov	r2, r0
 3794 01c4 0B46     		mov	r3, r1
 3795              		.loc 1 602 121 view .LVU911
 3796 01c6 CDE90823 		strd	r2, [sp, #32]
 3797 01ca 2046     		mov	r0, r4
 3798 01cc 2946     		mov	r1, r5
 3799 01ce FFF7FEFF 		bl	__aeabi_dadd
 3800              	.LVL544:
 3801 01d2 FFF7FEFF 		bl	__aeabi_d2f
 3802              	.LVL545:
 3803 01d6 8146     		mov	r9, r0
 3804              		.loc 1 602 11 view .LVU912
 3805 01d8 0C90     		str	r0, [sp, #48]	@ float
 603:Core/Src/main.c ****   C[1][0] = 2.0e9 * (I[2][0] - I[1][0]) / (I[2][0] + I[1][0]) / (I[2][0] + I[1][0]) + (x[2] + x[1])
 3806              		.loc 1 603 3 is_stmt 1 view .LVU913
 3807              		.loc 1 603 26 is_stmt 0 view .LVU914
 3808 01da 189C     		ldr	r4, [sp, #96]	@ float
 3809              		.loc 1 603 30 view .LVU915
 3810 01dc 3146     		mov	r1, r6
 3811 01de 2046     		mov	r0, r4
 3812 01e0 FFF7FEFF 		bl	__aeabi_fsub
 3813              	.LVL546:
 3814 01e4 FFF7FEFF 		bl	__aeabi_f2d
 3815              	.LVL547:
 3816              		.loc 1 603 19 view .LVU916
ARM GAS  C:\Users\86183\AppData\Local\Temp\ccAkzFZ3.s 			page 84


 3817 01e8 57A3     		adr	r3, .L217
 3818 01ea D3E90023 		ldrd	r2, [r3]
 3819 01ee FFF7FEFF 		bl	__aeabi_dmul
 3820              	.LVL548:
 3821 01f2 CDE90A01 		strd	r0, [sp, #40]
 3822              		.loc 1 603 52 view .LVU917
 3823 01f6 2146     		mov	r1, r4
 3824 01f8 3046     		mov	r0, r6
 3825 01fa FFF7FEFF 		bl	__aeabi_fadd
 3826              	.LVL549:
 3827 01fe FFF7FEFF 		bl	__aeabi_f2d
 3828              	.LVL550:
 3829 0202 0446     		mov	r4, r0
 3830 0204 0D46     		mov	r5, r1
 3831              		.loc 1 603 41 view .LVU918
 3832 0206 0246     		mov	r2, r0
 3833 0208 0B46     		mov	r3, r1
 3834 020a DDE90A01 		ldrd	r0, [sp, #40]
 3835 020e FFF7FEFF 		bl	__aeabi_ddiv
 3836              	.LVL551:
 3837              		.loc 1 603 63 view .LVU919
 3838 0212 2246     		mov	r2, r4
 3839 0214 2B46     		mov	r3, r5
 3840 0216 FFF7FEFF 		bl	__aeabi_ddiv
 3841              	.LVL552:
 3842 021a 0446     		mov	r4, r0
 3843 021c 0D46     		mov	r5, r1
 3844              		.loc 1 603 93 view .LVU920
 3845 021e 3946     		mov	r1, r7
 3846 0220 4046     		mov	r0, r8
 3847 0222 FFF7FEFF 		bl	__aeabi_fadd
 3848              	.LVL553:
 3849 0226 0146     		mov	r1, r0
 3850              		.loc 1 603 101 view .LVU921
 3851 0228 0598     		ldr	r0, [sp, #20]	@ float
 3852 022a FFF7FEFF 		bl	__aeabi_fmul
 3853              	.LVL554:
 3854              		.loc 1 603 117 view .LVU922
 3855 022e 4FF07C51 		mov	r1, #1056964608
 3856 0232 FFF7FEFF 		bl	__aeabi_fmul
 3857              	.LVL555:
 3858 0236 FFF7FEFF 		bl	__aeabi_f2d
 3859              	.LVL556:
 3860 023a 0246     		mov	r2, r0
 3861 023c 0B46     		mov	r3, r1
 3862              		.loc 1 603 85 view .LVU923
 3863 023e CDE90A23 		strd	r2, [sp, #40]
 3864 0242 2046     		mov	r0, r4
 3865 0244 2946     		mov	r1, r5
 3866 0246 FFF7FEFF 		bl	__aeabi_dadd
 3867              	.LVL557:
 3868 024a 0446     		mov	r4, r0
 3869 024c 0D46     		mov	r5, r1
 3870              		.loc 1 603 129 view .LVU924
 3871 024e 5946     		mov	r1, fp
 3872 0250 0098     		ldr	r0, [sp]	@ float
 3873 0252 FFF7FEFF 		bl	__aeabi_fadd
ARM GAS  C:\Users\86183\AppData\Local\Temp\ccAkzFZ3.s 			page 85


 3874              	.LVL558:
 3875 0256 0146     		mov	r1, r0
 3876              		.loc 1 603 137 view .LVU925
 3877 0258 0398     		ldr	r0, [sp, #12]	@ float
 3878 025a FFF7FEFF 		bl	__aeabi_fmul
 3879              	.LVL559:
 3880              		.loc 1 603 153 view .LVU926
 3881 025e 4FF07C51 		mov	r1, #1056964608
 3882 0262 FFF7FEFF 		bl	__aeabi_fmul
 3883              	.LVL560:
 3884 0266 FFF7FEFF 		bl	__aeabi_f2d
 3885              	.LVL561:
 3886 026a 0246     		mov	r2, r0
 3887 026c 0B46     		mov	r3, r1
 3888              		.loc 1 603 121 view .LVU927
 3889 026e CDE90023 		strd	r2, [sp]
 3890 0272 2046     		mov	r0, r4
 3891 0274 2946     		mov	r1, r5
 3892 0276 FFF7FEFF 		bl	__aeabi_dadd
 3893              	.LVL562:
 3894 027a FFF7FEFF 		bl	__aeabi_d2f
 3895              	.LVL563:
 3896 027e 0646     		mov	r6, r0
 3897              		.loc 1 603 11 view .LVU928
 3898 0280 0E90     		str	r0, [sp, #56]	@ float
 604:Core/Src/main.c ****   C[0][1] = 2.0e9 * (I[1][1] - I[0][1]) / (I[1][1] + I[0][1]) / (I[1][1] + I[0][1]) + (x[1] + x[0])
 3899              		.loc 1 604 3 is_stmt 1 view .LVU929
 3900              		.loc 1 604 26 is_stmt 0 view .LVU930
 3901 0282 DDF85C80 		ldr	r8, [sp, #92]	@ float
 3902              		.loc 1 604 36 view .LVU931
 3903 0286 159C     		ldr	r4, [sp, #84]	@ float
 3904              		.loc 1 604 30 view .LVU932
 3905 0288 2146     		mov	r1, r4
 3906 028a 4046     		mov	r0, r8
 3907 028c FFF7FEFF 		bl	__aeabi_fsub
 3908              	.LVL564:
 3909 0290 FFF7FEFF 		bl	__aeabi_f2d
 3910              	.LVL565:
 3911              		.loc 1 604 19 view .LVU933
 3912 0294 2CA3     		adr	r3, .L217
 3913 0296 D3E90023 		ldrd	r2, [r3]
 3914 029a FFF7FEFF 		bl	__aeabi_dmul
 3915              	.LVL566:
 3916 029e 8246     		mov	r10, r0
 3917 02a0 8B46     		mov	fp, r1
 3918              		.loc 1 604 52 view .LVU934
 3919 02a2 2146     		mov	r1, r4
 3920 02a4 4046     		mov	r0, r8
 3921 02a6 FFF7FEFF 		bl	__aeabi_fadd
 3922              	.LVL567:
 3923 02aa FFF7FEFF 		bl	__aeabi_f2d
 3924              	.LVL568:
 3925 02ae 0446     		mov	r4, r0
 3926 02b0 0D46     		mov	r5, r1
 3927              		.loc 1 604 41 view .LVU935
 3928 02b2 0246     		mov	r2, r0
 3929 02b4 0B46     		mov	r3, r1
ARM GAS  C:\Users\86183\AppData\Local\Temp\ccAkzFZ3.s 			page 86


 3930 02b6 5046     		mov	r0, r10
 3931 02b8 5946     		mov	r1, fp
 3932 02ba FFF7FEFF 		bl	__aeabi_ddiv
 3933              	.LVL569:
 3934              		.loc 1 604 63 view .LVU936
 3935 02be 2246     		mov	r2, r4
 3936 02c0 2B46     		mov	r3, r5
 3937 02c2 FFF7FEFF 		bl	__aeabi_ddiv
 3938              	.LVL570:
 3939 02c6 0246     		mov	r2, r0
 3940 02c8 0B46     		mov	r3, r1
 3941              		.loc 1 604 85 view .LVU937
 3942 02ca DDE90601 		ldrd	r0, [sp, #24]
 3943 02ce FFF7FEFF 		bl	__aeabi_dadd
 3944              	.LVL571:
 3945 02d2 0246     		mov	r2, r0
 3946 02d4 0B46     		mov	r3, r1
 3947              		.loc 1 604 121 view .LVU938
 3948 02d6 DDE90801 		ldrd	r0, [sp, #32]
 3949 02da FFF7FEFF 		bl	__aeabi_dadd
 3950              	.LVL572:
 3951 02de FFF7FEFF 		bl	__aeabi_d2f
 3952              	.LVL573:
 3953 02e2 0746     		mov	r7, r0
 3954              		.loc 1 604 11 view .LVU939
 3955 02e4 0D90     		str	r0, [sp, #52]	@ float
 605:Core/Src/main.c ****   C[1][1] = 2.0e9 * (I[2][1] - I[1][1]) / (I[2][1] + I[1][1]) / (I[2][1] + I[1][1]) + (x[2] + x[1])
 3956              		.loc 1 605 3 is_stmt 1 view .LVU940
 3957              		.loc 1 605 26 is_stmt 0 view .LVU941
 3958 02e6 199C     		ldr	r4, [sp, #100]	@ float
 3959              		.loc 1 605 30 view .LVU942
 3960 02e8 4146     		mov	r1, r8
 3961 02ea 2046     		mov	r0, r4
 3962 02ec FFF7FEFF 		bl	__aeabi_fsub
 3963              	.LVL574:
 3964 02f0 FFF7FEFF 		bl	__aeabi_f2d
 3965              	.LVL575:
 3966              		.loc 1 605 19 view .LVU943
 3967 02f4 14A3     		adr	r3, .L217
 3968 02f6 D3E90023 		ldrd	r2, [r3]
 3969 02fa FFF7FEFF 		bl	__aeabi_dmul
 3970              	.LVL576:
 3971 02fe 8246     		mov	r10, r0
 3972 0300 8B46     		mov	fp, r1
 3973              		.loc 1 605 52 view .LVU944
 3974 0302 2146     		mov	r1, r4
 3975 0304 4046     		mov	r0, r8
 3976 0306 FFF7FEFF 		bl	__aeabi_fadd
 3977              	.LVL577:
 3978 030a FFF7FEFF 		bl	__aeabi_f2d
 3979              	.LVL578:
 3980 030e 0446     		mov	r4, r0
 3981 0310 0D46     		mov	r5, r1
 3982              		.loc 1 605 41 view .LVU945
 3983 0312 0246     		mov	r2, r0
 3984 0314 0B46     		mov	r3, r1
 3985 0316 5046     		mov	r0, r10
ARM GAS  C:\Users\86183\AppData\Local\Temp\ccAkzFZ3.s 			page 87


 3986 0318 5946     		mov	r1, fp
 3987 031a FFF7FEFF 		bl	__aeabi_ddiv
 3988              	.LVL579:
 3989              		.loc 1 605 63 view .LVU946
 3990 031e 2246     		mov	r2, r4
 3991 0320 2B46     		mov	r3, r5
 3992 0322 FFF7FEFF 		bl	__aeabi_ddiv
 3993              	.LVL580:
 3994 0326 0246     		mov	r2, r0
 3995 0328 0B46     		mov	r3, r1
 3996              		.loc 1 605 85 view .LVU947
 3997 032a DDE90A01 		ldrd	r0, [sp, #40]
 3998 032e FFF7FEFF 		bl	__aeabi_dadd
 3999              	.LVL581:
 4000 0332 0246     		mov	r2, r0
 4001 0334 0B46     		mov	r3, r1
 4002              		.loc 1 605 121 view .LVU948
 4003 0336 DDE90001 		ldrd	r0, [sp]
 4004 033a FFF7FEFF 		bl	__aeabi_dadd
 4005              	.LVL582:
 4006 033e FFF7FEFF 		bl	__aeabi_d2f
 4007              	.LVL583:
 4008 0342 0546     		mov	r5, r0
 4009              		.loc 1 605 11 view .LVU949
 4010 0344 0F90     		str	r0, [sp, #60]	@ float
 4011 0346 05E0     		b	.L218
 4012              	.L219:
 4013              		.align	3
 4014              	.L217:
 4015 0348 00000000 		.word	0
 4016 034c 65CDDD41 		.word	1105055077
 4017 0350 0000A040 		.word	1084227584
 4018              	.L218:
 606:Core/Src/main.c ****   invdet = 1.0 / (A[0] * B[1] - A[1] * B[0]);
 4019              		.loc 1 606 3 is_stmt 1 view .LVU950
 4020              		.loc 1 606 24 is_stmt 0 view .LVU951
 4021 0354 DDF80C80 		ldr	r8, [sp, #12]	@ float
 4022 0358 4146     		mov	r1, r8
 4023 035a DDF810A0 		ldr	r10, [sp, #16]	@ float
 4024 035e 5046     		mov	r0, r10
 4025 0360 FFF7FEFF 		bl	__aeabi_fmul
 4026              	.LVL584:
 4027 0364 0446     		mov	r4, r0
 4028              		.loc 1 606 38 view .LVU952
 4029 0366 0299     		ldr	r1, [sp, #8]	@ float
 4030 0368 DDF814B0 		ldr	fp, [sp, #20]	@ float
 4031 036c 5846     		mov	r0, fp
 4032 036e FFF7FEFF 		bl	__aeabi_fmul
 4033              	.LVL585:
 4034 0372 0146     		mov	r1, r0
 4035              		.loc 1 606 31 view .LVU953
 4036 0374 2046     		mov	r0, r4
 4037 0376 FFF7FEFF 		bl	__aeabi_fsub
 4038              	.LVL586:
 4039 037a 0146     		mov	r1, r0
 4040              		.loc 1 606 10 view .LVU954
 4041 037c 4FF07E50 		mov	r0, #1065353216
ARM GAS  C:\Users\86183\AppData\Local\Temp\ccAkzFZ3.s 			page 88


 4042 0380 FFF7FEFF 		bl	__aeabi_fdiv
 4043              	.LVL587:
 4044 0384 0446     		mov	r4, r0
 4045              	.LVL588:
 607:Core/Src/main.c ****   packageX[0] = (B[1] * C[0][0] - B[0] * C[1][0]) * invdet;
 4046              		.loc 1 607 3 is_stmt 1 view .LVU955
 4047              		.loc 1 607 23 is_stmt 0 view .LVU956
 4048 0386 4946     		mov	r1, r9
 4049 0388 4046     		mov	r0, r8
 4050              	.LVL589:
 4051              		.loc 1 607 23 view .LVU957
 4052 038a FFF7FEFF 		bl	__aeabi_fmul
 4053              	.LVL590:
 4054 038e 8046     		mov	r8, r0
 4055              		.loc 1 607 40 view .LVU958
 4056 0390 3146     		mov	r1, r6
 4057 0392 0298     		ldr	r0, [sp, #8]	@ float
 4058 0394 FFF7FEFF 		bl	__aeabi_fmul
 4059              	.LVL591:
 4060 0398 0146     		mov	r1, r0
 4061              		.loc 1 607 33 view .LVU959
 4062 039a 4046     		mov	r0, r8
 4063 039c FFF7FEFF 		bl	__aeabi_fsub
 4064              	.LVL592:
 4065              		.loc 1 607 51 view .LVU960
 4066 03a0 2146     		mov	r1, r4
 4067 03a2 FFF7FEFF 		bl	__aeabi_fmul
 4068              	.LVL593:
 4069              		.loc 1 607 15 view .LVU961
 4070 03a6 DFF87880 		ldr	r8, .L220
 4071 03aa C8F80000 		str	r0, [r8]	@ float
 608:Core/Src/main.c ****   packageY[0] = (A[0] * C[1][0] - A[1] * C[0][0]) * invdet;
 4072              		.loc 1 608 3 is_stmt 1 view .LVU962
 4073              		.loc 1 608 23 is_stmt 0 view .LVU963
 4074 03ae 3146     		mov	r1, r6
 4075 03b0 5046     		mov	r0, r10
 4076 03b2 FFF7FEFF 		bl	__aeabi_fmul
 4077              	.LVL594:
 4078 03b6 0646     		mov	r6, r0
 4079              		.loc 1 608 40 view .LVU964
 4080 03b8 4946     		mov	r1, r9
 4081 03ba 5846     		mov	r0, fp
 4082 03bc FFF7FEFF 		bl	__aeabi_fmul
 4083              	.LVL595:
 4084 03c0 0146     		mov	r1, r0
 4085              		.loc 1 608 33 view .LVU965
 4086 03c2 3046     		mov	r0, r6
 4087 03c4 FFF7FEFF 		bl	__aeabi_fsub
 4088              	.LVL596:
 4089              		.loc 1 608 51 view .LVU966
 4090 03c8 2146     		mov	r1, r4
 4091 03ca FFF7FEFF 		bl	__aeabi_fmul
 4092              	.LVL597:
 4093              		.loc 1 608 15 view .LVU967
 4094 03ce 154E     		ldr	r6, .L220+4
 4095 03d0 3060     		str	r0, [r6]	@ float
 609:Core/Src/main.c ****   packageX[1] = (B[1] * C[0][1] - B[0] * C[1][1]) * invdet;
ARM GAS  C:\Users\86183\AppData\Local\Temp\ccAkzFZ3.s 			page 89


 4096              		.loc 1 609 3 is_stmt 1 view .LVU968
 4097              		.loc 1 609 23 is_stmt 0 view .LVU969
 4098 03d2 3946     		mov	r1, r7
 4099 03d4 0398     		ldr	r0, [sp, #12]	@ float
 4100 03d6 FFF7FEFF 		bl	__aeabi_fmul
 4101              	.LVL598:
 4102 03da 8146     		mov	r9, r0
 4103              		.loc 1 609 40 view .LVU970
 4104 03dc 2946     		mov	r1, r5
 4105 03de 0298     		ldr	r0, [sp, #8]	@ float
 4106 03e0 FFF7FEFF 		bl	__aeabi_fmul
 4107              	.LVL599:
 4108 03e4 0146     		mov	r1, r0
 4109              		.loc 1 609 33 view .LVU971
 4110 03e6 4846     		mov	r0, r9
 4111 03e8 FFF7FEFF 		bl	__aeabi_fsub
 4112              	.LVL600:
 4113              		.loc 1 609 51 view .LVU972
 4114 03ec 2146     		mov	r1, r4
 4115 03ee FFF7FEFF 		bl	__aeabi_fmul
 4116              	.LVL601:
 4117              		.loc 1 609 15 view .LVU973
 4118 03f2 C8F80400 		str	r0, [r8, #4]	@ float
 610:Core/Src/main.c ****   packageY[1] = (A[0] * C[1][1] - A[1] * C[0][1]) * invdet;
 4119              		.loc 1 610 3 is_stmt 1 view .LVU974
 4120              		.loc 1 610 23 is_stmt 0 view .LVU975
 4121 03f6 2946     		mov	r1, r5
 4122 03f8 5046     		mov	r0, r10
 4123 03fa FFF7FEFF 		bl	__aeabi_fmul
 4124              	.LVL602:
 4125 03fe 0546     		mov	r5, r0
 4126              		.loc 1 610 40 view .LVU976
 4127 0400 3946     		mov	r1, r7
 4128 0402 5846     		mov	r0, fp
 4129 0404 FFF7FEFF 		bl	__aeabi_fmul
 4130              	.LVL603:
 4131 0408 0146     		mov	r1, r0
 4132              		.loc 1 610 33 view .LVU977
 4133 040a 2846     		mov	r0, r5
 4134 040c FFF7FEFF 		bl	__aeabi_fsub
 4135              	.LVL604:
 4136              		.loc 1 610 51 view .LVU978
 4137 0410 2146     		mov	r1, r4
 4138 0412 FFF7FEFF 		bl	__aeabi_fmul
 4139              	.LVL605:
 4140              		.loc 1 610 15 view .LVU979
 4141 0416 7060     		str	r0, [r6, #4]	@ float
 611:Core/Src/main.c **** }
 4142              		.loc 1 611 1 view .LVU980
 4143 0418 21B0     		add	sp, sp, #132
 4144              	.LCFI25:
 4145              		.cfi_def_cfa_offset 36
 4146              		@ sp needed
 4147 041a BDE8F08F 		pop	{r4, r5, r6, r7, r8, r9, r10, fp, pc}
 4148              	.LVL606:
 4149              	.L221:
 4150              		.loc 1 611 1 view .LVU981
ARM GAS  C:\Users\86183\AppData\Local\Temp\ccAkzFZ3.s 			page 90


 4151 041e 00BF     		.align	2
 4152              	.L220:
 4153 0420 00000000 		.word	.LANCHOR11
 4154 0424 00000000 		.word	.LANCHOR12
 4155              		.cfi_endproc
 4156              	.LFE83:
 4158              		.section	.text.Set_Beacon,"ax",%progbits
 4159              		.align	1
 4160              		.global	Set_Beacon
 4161              		.syntax unified
 4162              		.thumb
 4163              		.thumb_func
 4164              		.fpu softvfp
 4166              	Set_Beacon:
 4167              	.LFB84:
 612:Core/Src/main.c **** 
 613:Core/Src/main.c **** void Set_Beacon()
 614:Core/Src/main.c **** {
 4168              		.loc 1 614 1 is_stmt 1 view -0
 4169              		.cfi_startproc
 4170              		@ args = 0, pretend = 0, frame = 0
 4171              		@ frame_needed = 0, uses_anonymous_args = 0
 4172 0000 10B5     		push	{r4, lr}
 4173              	.LCFI26:
 4174              		.cfi_def_cfa_offset 8
 4175              		.cfi_offset 4, -8
 4176              		.cfi_offset 14, -4
 615:Core/Src/main.c ****   Set_Right_Direction(0);
 4177              		.loc 1 615 3 view .LVU983
 4178 0002 0020     		movs	r0, #0
 4179 0004 FFF7FEFF 		bl	Set_Right_Direction
 4180              	.LVL607:
 616:Core/Src/main.c ****   Set_Left_Direction(0);
 4181              		.loc 1 616 3 view .LVU984
 4182 0008 0020     		movs	r0, #0
 4183 000a FFF7FEFF 		bl	Set_Left_Direction
 4184              	.LVL608:
 617:Core/Src/main.c ****   HAL_Delay(500);
 4185              		.loc 1 617 3 view .LVU985
 4186 000e 4FF4FA70 		mov	r0, #500
 4187 0012 FFF7FEFF 		bl	HAL_Delay
 4188              	.LVL609:
 618:Core/Src/main.c ****   HAL_GPIO_WritePin(LED_GPIO_Port, LED_Pin, SET);
 4189              		.loc 1 618 3 view .LVU986
 4190 0016 084C     		ldr	r4, .L224
 4191 0018 0122     		movs	r2, #1
 4192 001a 0421     		movs	r1, #4
 4193 001c 2046     		mov	r0, r4
 4194 001e FFF7FEFF 		bl	HAL_GPIO_WritePin
 4195              	.LVL610:
 619:Core/Src/main.c ****   HAL_Delay(1000);
 4196              		.loc 1 619 3 view .LVU987
 4197 0022 4FF47A70 		mov	r0, #1000
 4198 0026 FFF7FEFF 		bl	HAL_Delay
 4199              	.LVL611:
 620:Core/Src/main.c ****   HAL_GPIO_WritePin(LED_GPIO_Port, LED_Pin, RESET);
 4200              		.loc 1 620 3 view .LVU988
ARM GAS  C:\Users\86183\AppData\Local\Temp\ccAkzFZ3.s 			page 91


 4201 002a 0022     		movs	r2, #0
 4202 002c 0421     		movs	r1, #4
 4203 002e 2046     		mov	r0, r4
 4204 0030 FFF7FEFF 		bl	HAL_GPIO_WritePin
 4205              	.LVL612:
 621:Core/Src/main.c **** }
 4206              		.loc 1 621 1 is_stmt 0 view .LVU989
 4207 0034 10BD     		pop	{r4, pc}
 4208              	.L225:
 4209 0036 00BF     		.align	2
 4210              	.L224:
 4211 0038 00140140 		.word	1073812480
 4212              		.cfi_endproc
 4213              	.LFE84:
 4215              		.section	.text.getNearestPark,"ax",%progbits
 4216              		.align	1
 4217              		.global	getNearestPark
 4218              		.syntax unified
 4219              		.thumb
 4220              		.thumb_func
 4221              		.fpu softvfp
 4223              	getNearestPark:
 4224              	.LVL613:
 4225              	.LFB85:
 622:Core/Src/main.c **** 
 623:Core/Src/main.c **** uint8_t getNearestPark(uint8_t _mineType)
 624:Core/Src/main.c **** {
 4226              		.loc 1 624 1 is_stmt 1 view -0
 4227              		.cfi_startproc
 4228              		@ args = 0, pretend = 0, frame = 0
 4229              		@ frame_needed = 0, uses_anonymous_args = 0
 4230              		.loc 1 624 1 is_stmt 0 view .LVU991
 4231 0000 2DE9F84F 		push	{r3, r4, r5, r6, r7, r8, r9, r10, fp, lr}
 4232              	.LCFI27:
 4233              		.cfi_def_cfa_offset 40
 4234              		.cfi_offset 3, -40
 4235              		.cfi_offset 4, -36
 4236              		.cfi_offset 5, -32
 4237              		.cfi_offset 6, -28
 4238              		.cfi_offset 7, -24
 4239              		.cfi_offset 8, -20
 4240              		.cfi_offset 9, -16
 4241              		.cfi_offset 10, -12
 4242              		.cfi_offset 11, -8
 4243              		.cfi_offset 14, -4
 4244 0004 0746     		mov	r7, r0
 625:Core/Src/main.c ****   uint8_t tmp = 1;
 4245              		.loc 1 625 3 is_stmt 1 view .LVU992
 4246              	.LVL614:
 626:Core/Src/main.c ****   float x = userGetCarPosX(), y = userGetCarPosY();
 4247              		.loc 1 626 3 view .LVU993
 4248              		.loc 1 626 13 is_stmt 0 view .LVU994
 4249 0006 FFF7FEFF 		bl	userGetCarPosX
 4250              	.LVL615:
 4251              		.loc 1 626 13 view .LVU995
 4252 000a 0546     		mov	r5, r0
 4253              	.LVL616:
ARM GAS  C:\Users\86183\AppData\Local\Temp\ccAkzFZ3.s 			page 92


 4254              		.loc 1 626 35 view .LVU996
 4255 000c FFF7FEFF 		bl	userGetCarPosY
 4256              	.LVL617:
 4257              		.loc 1 626 35 view .LVU997
 4258 0010 0646     		mov	r6, r0
 4259              	.LVL618:
 627:Core/Src/main.c ****   float dist = 0, distMin = 1e9;
 4260              		.loc 1 627 3 is_stmt 1 view .LVU998
 628:Core/Src/main.c ****   if (getCarTask() == 0)
 4261              		.loc 1 628 3 view .LVU999
 4262              		.loc 1 628 7 is_stmt 0 view .LVU1000
 4263 0012 FFF7FEFF 		bl	getCarTask
 4264              	.LVL619:
 4265              		.loc 1 628 6 view .LVU1001
 4266 0016 68B3     		cbz	r0, .L236
 4267              	.LBB29:
 629:Core/Src/main.c ****   {
 630:Core/Src/main.c ****     for (int i = 0; i < 8; i++)
 631:Core/Src/main.c ****     {
 632:Core/Src/main.c ****       dist = sq(x - Park[i].x) + sq(y - Park[i].y);
 633:Core/Src/main.c ****       if (dist < distMin)
 634:Core/Src/main.c ****       {
 635:Core/Src/main.c ****         distMin = dist;
 636:Core/Src/main.c ****         tmp = i;
 637:Core/Src/main.c ****       }
 638:Core/Src/main.c ****     }
 639:Core/Src/main.c ****   }
 640:Core/Src/main.c ****   else
 641:Core/Src/main.c ****   {
 642:Core/Src/main.c ****     for (int i = 0; i < 11; i++)
 4268              		.loc 1 642 14 view .LVU1002
 4269 0018 0024     		movs	r4, #0
 4270              	.LBE29:
 627:Core/Src/main.c ****   if (getCarTask() == 0)
 4271              		.loc 1 627 19 view .LVU1003
 4272 001a DFF8CC90 		ldr	r9, .L240
 625:Core/Src/main.c ****   float x = userGetCarPosX(), y = userGetCarPosY();
 4273              		.loc 1 625 11 view .LVU1004
 4274 001e 4FF00108 		mov	r8, #1
 4275 0022 2EE0     		b	.L228
 4276              	.LVL620:
 4277              	.L229:
 4278              	.LBB30:
 630:Core/Src/main.c ****     {
 4279              		.loc 1 630 28 is_stmt 1 discriminator 2 view .LVU1005
 630:Core/Src/main.c ****     {
 4280              		.loc 1 630 29 is_stmt 0 discriminator 2 view .LVU1006
 4281 0024 0134     		adds	r4, r4, #1
 4282              	.LVL621:
 4283              	.L227:
 630:Core/Src/main.c ****     {
 4284              		.loc 1 630 21 is_stmt 1 discriminator 1 view .LVU1007
 630:Core/Src/main.c ****     {
 4285              		.loc 1 630 5 is_stmt 0 discriminator 1 view .LVU1008
 4286 0026 072C     		cmp	r4, #7
 4287 0028 5BDC     		bgt	.L232
 632:Core/Src/main.c ****       if (dist < distMin)
ARM GAS  C:\Users\86183\AppData\Local\Temp\ccAkzFZ3.s 			page 93


 4288              		.loc 1 632 7 is_stmt 1 view .LVU1009
 632:Core/Src/main.c ****       if (dist < distMin)
 4289              		.loc 1 632 14 is_stmt 0 view .LVU1010
 4290 002a 304B     		ldr	r3, .L240+4
 4291 002c 04EB4402 		add	r2, r4, r4, lsl #1
 4292 0030 03EB820A 		add	r10, r3, r2, lsl #2
 4293 0034 53F82210 		ldr	r1, [r3, r2, lsl #2]	@ float
 4294 0038 2846     		mov	r0, r5
 4295 003a FFF7FEFF 		bl	__aeabi_fsub
 4296              	.LVL622:
 4297 003e 0146     		mov	r1, r0
 4298 0040 FFF7FEFF 		bl	__aeabi_fmul
 4299              	.LVL623:
 4300 0044 0746     		mov	r7, r0
 632:Core/Src/main.c ****       if (dist < distMin)
 4301              		.loc 1 632 34 view .LVU1011
 4302 0046 DAF80410 		ldr	r1, [r10, #4]	@ float
 4303 004a 3046     		mov	r0, r6
 4304 004c FFF7FEFF 		bl	__aeabi_fsub
 4305              	.LVL624:
 4306 0050 0146     		mov	r1, r0
 4307 0052 FFF7FEFF 		bl	__aeabi_fmul
 4308              	.LVL625:
 4309 0056 0146     		mov	r1, r0
 632:Core/Src/main.c ****       if (dist < distMin)
 4310              		.loc 1 632 12 view .LVU1012
 4311 0058 3846     		mov	r0, r7
 4312 005a FFF7FEFF 		bl	__aeabi_fadd
 4313              	.LVL626:
 4314 005e 0746     		mov	r7, r0
 4315              	.LVL627:
 633:Core/Src/main.c ****       {
 4316              		.loc 1 633 7 is_stmt 1 view .LVU1013
 633:Core/Src/main.c ****       {
 4317              		.loc 1 633 10 is_stmt 0 view .LVU1014
 4318 0060 0146     		mov	r1, r0
 4319 0062 4846     		mov	r0, r9
 4320              	.LVL628:
 633:Core/Src/main.c ****       {
 4321              		.loc 1 633 10 view .LVU1015
 4322 0064 FFF7FEFF 		bl	__aeabi_fcmpgt
 4323              	.LVL629:
 633:Core/Src/main.c ****       {
 4324              		.loc 1 633 10 view .LVU1016
 4325 0068 0028     		cmp	r0, #0
 4326 006a DBD0     		beq	.L229
 635:Core/Src/main.c ****         tmp = i;
 4327              		.loc 1 635 9 is_stmt 1 view .LVU1017
 4328              	.LVL630:
 636:Core/Src/main.c ****       }
 4329              		.loc 1 636 9 view .LVU1018
 636:Core/Src/main.c ****       }
 4330              		.loc 1 636 13 is_stmt 0 view .LVU1019
 4331 006c 5FFA84F8 		uxtb	r8, r4
 4332              	.LVL631:
 635:Core/Src/main.c ****         tmp = i;
 4333              		.loc 1 635 17 view .LVU1020
ARM GAS  C:\Users\86183\AppData\Local\Temp\ccAkzFZ3.s 			page 94


 4334 0070 B946     		mov	r9, r7
 4335 0072 D7E7     		b	.L229
 4336              	.LVL632:
 4337              	.L236:
 630:Core/Src/main.c ****     {
 4338              		.loc 1 630 14 view .LVU1021
 4339 0074 0024     		movs	r4, #0
 4340              	.LBE30:
 627:Core/Src/main.c ****   if (getCarTask() == 0)
 4341              		.loc 1 627 19 view .LVU1022
 4342 0076 DFF87090 		ldr	r9, .L240
 625:Core/Src/main.c ****   float x = userGetCarPosX(), y = userGetCarPosY();
 4343              		.loc 1 625 11 view .LVU1023
 4344 007a 4FF00108 		mov	r8, #1
 4345 007e D2E7     		b	.L227
 4346              	.LVL633:
 4347              	.L233:
 4348              	.LBB31:
 4349              		.loc 1 642 29 is_stmt 1 discriminator 2 view .LVU1024
 4350              		.loc 1 642 30 is_stmt 0 discriminator 2 view .LVU1025
 4351 0080 0134     		adds	r4, r4, #1
 4352              	.LVL634:
 4353              	.L228:
 4354              		.loc 1 642 21 is_stmt 1 discriminator 1 view .LVU1026
 4355              		.loc 1 642 5 is_stmt 0 discriminator 1 view .LVU1027
 4356 0082 0A2C     		cmp	r4, #10
 4357 0084 2DDC     		bgt	.L232
 643:Core/Src/main.c ****     {
 644:Core/Src/main.c ****       if (Park[i].mineType == _mineType)
 4358              		.loc 1 644 7 is_stmt 1 view .LVU1028
 4359              		.loc 1 644 18 is_stmt 0 view .LVU1029
 4360 0086 04EB4403 		add	r3, r4, r4, lsl #1
 4361 008a 184A     		ldr	r2, .L240+4
 4362 008c 02EB8303 		add	r3, r2, r3, lsl #2
 4363 0090 1A89     		ldrh	r2, [r3, #8]
 4364              		.loc 1 644 28 view .LVU1030
 4365 0092 BBB2     		uxth	r3, r7
 4366              		.loc 1 644 10 view .LVU1031
 4367 0094 9A42     		cmp	r2, r3
 4368 0096 F3D1     		bne	.L233
 645:Core/Src/main.c ****       {
 646:Core/Src/main.c ****         dist = sq(x - Park[i].x) + sq(y - Park[i].y);
 4369              		.loc 1 646 9 is_stmt 1 view .LVU1032
 4370              		.loc 1 646 16 is_stmt 0 view .LVU1033
 4371 0098 144B     		ldr	r3, .L240+4
 4372 009a 04EB4402 		add	r2, r4, r4, lsl #1
 4373 009e 03EB820B 		add	fp, r3, r2, lsl #2
 4374 00a2 53F82210 		ldr	r1, [r3, r2, lsl #2]	@ float
 4375 00a6 2846     		mov	r0, r5
 4376 00a8 FFF7FEFF 		bl	__aeabi_fsub
 4377              	.LVL635:
 4378 00ac 0146     		mov	r1, r0
 4379 00ae FFF7FEFF 		bl	__aeabi_fmul
 4380              	.LVL636:
 4381 00b2 8246     		mov	r10, r0
 4382              		.loc 1 646 36 view .LVU1034
 4383 00b4 DBF80410 		ldr	r1, [fp, #4]	@ float
ARM GAS  C:\Users\86183\AppData\Local\Temp\ccAkzFZ3.s 			page 95


 4384 00b8 3046     		mov	r0, r6
 4385 00ba FFF7FEFF 		bl	__aeabi_fsub
 4386              	.LVL637:
 4387 00be 0146     		mov	r1, r0
 4388 00c0 FFF7FEFF 		bl	__aeabi_fmul
 4389              	.LVL638:
 4390 00c4 0146     		mov	r1, r0
 4391              		.loc 1 646 14 view .LVU1035
 4392 00c6 5046     		mov	r0, r10
 4393 00c8 FFF7FEFF 		bl	__aeabi_fadd
 4394              	.LVL639:
 4395 00cc 8246     		mov	r10, r0
 4396              	.LVL640:
 647:Core/Src/main.c ****         if (dist < distMin)
 4397              		.loc 1 647 9 is_stmt 1 view .LVU1036
 4398              		.loc 1 647 12 is_stmt 0 view .LVU1037
 4399 00ce 0146     		mov	r1, r0
 4400 00d0 4846     		mov	r0, r9
 4401              	.LVL641:
 4402              		.loc 1 647 12 view .LVU1038
 4403 00d2 FFF7FEFF 		bl	__aeabi_fcmpgt
 4404              	.LVL642:
 4405              		.loc 1 647 12 view .LVU1039
 4406 00d6 0028     		cmp	r0, #0
 4407 00d8 D2D0     		beq	.L233
 648:Core/Src/main.c ****         {
 649:Core/Src/main.c ****           distMin = dist;
 4408              		.loc 1 649 11 is_stmt 1 view .LVU1040
 4409              	.LVL643:
 650:Core/Src/main.c ****           tmp = i;
 4410              		.loc 1 650 11 view .LVU1041
 4411              		.loc 1 650 15 is_stmt 0 view .LVU1042
 4412 00da 5FFA84F8 		uxtb	r8, r4
 4413              	.LVL644:
 649:Core/Src/main.c ****           tmp = i;
 4414              		.loc 1 649 19 view .LVU1043
 4415 00de D146     		mov	r9, r10
 4416 00e0 CEE7     		b	.L233
 4417              	.LVL645:
 4418              	.L232:
 649:Core/Src/main.c ****           tmp = i;
 4419              		.loc 1 649 19 view .LVU1044
 4420              	.LBE31:
 651:Core/Src/main.c ****         }
 652:Core/Src/main.c ****       }
 653:Core/Src/main.c ****     }
 654:Core/Src/main.c ****   }
 655:Core/Src/main.c ****   return tmp;
 4421              		.loc 1 655 3 is_stmt 1 view .LVU1045
 656:Core/Src/main.c **** }
 4422              		.loc 1 656 1 is_stmt 0 view .LVU1046
 4423 00e2 4046     		mov	r0, r8
 4424 00e4 BDE8F88F 		pop	{r3, r4, r5, r6, r7, r8, r9, r10, fp, pc}
 4425              	.LVL646:
 4426              	.L241:
 4427              		.loc 1 656 1 view .LVU1047
 4428              		.align	2
ARM GAS  C:\Users\86183\AppData\Local\Temp\ccAkzFZ3.s 			page 96


 4429              	.L240:
 4430 00e8 286B6E4E 		.word	1315859240
 4431 00ec 00000000 		.word	.LANCHOR13
 4432              		.cfi_endproc
 4433              	.LFE85:
 4435              		.section	.text.getPackage,"ax",%progbits
 4436              		.align	1
 4437              		.global	getPackage
 4438              		.syntax unified
 4439              		.thumb
 4440              		.thumb_func
 4441              		.fpu softvfp
 4443              	getPackage:
 4444              	.LFB86:
 657:Core/Src/main.c **** 
 658:Core/Src/main.c **** void getPackage()
 659:Core/Src/main.c **** {
 4445              		.loc 1 659 1 is_stmt 1 view -0
 4446              		.cfi_startproc
 4447              		@ args = 0, pretend = 0, frame = 0
 4448              		@ frame_needed = 0, uses_anonymous_args = 0
 4449 0000 F8B5     		push	{r3, r4, r5, r6, r7, lr}
 4450              	.LCFI28:
 4451              		.cfi_def_cfa_offset 24
 4452              		.cfi_offset 3, -24
 4453              		.cfi_offset 4, -20
 4454              		.cfi_offset 5, -16
 4455              		.cfi_offset 6, -12
 4456              		.cfi_offset 7, -8
 4457              		.cfi_offset 14, -4
 660:Core/Src/main.c ****   float dist0 = sq(userGetCarPosX() - packageX[0]) + sq(userGetCarPosY() - packageY[0]);
 4458              		.loc 1 660 3 view .LVU1049
 4459              		.loc 1 660 17 is_stmt 0 view .LVU1050
 4460 0002 FFF7FEFF 		bl	userGetCarPosX
 4461              	.LVL647:
 4462 0006 314D     		ldr	r5, .L249
 4463 0008 2968     		ldr	r1, [r5]	@ float
 4464 000a FFF7FEFF 		bl	__aeabi_fsub
 4465              	.LVL648:
 4466 000e 0446     		mov	r4, r0
 4467 0010 FFF7FEFF 		bl	userGetCarPosX
 4468              	.LVL649:
 4469 0014 2968     		ldr	r1, [r5]	@ float
 4470 0016 FFF7FEFF 		bl	__aeabi_fsub
 4471              	.LVL650:
 4472 001a 0146     		mov	r1, r0
 4473 001c 2046     		mov	r0, r4
 4474 001e FFF7FEFF 		bl	__aeabi_fmul
 4475              	.LVL651:
 4476 0022 0646     		mov	r6, r0
 4477              		.loc 1 660 54 view .LVU1051
 4478 0024 FFF7FEFF 		bl	userGetCarPosY
 4479              	.LVL652:
 4480 0028 294C     		ldr	r4, .L249+4
 4481 002a 2168     		ldr	r1, [r4]	@ float
 4482 002c FFF7FEFF 		bl	__aeabi_fsub
 4483              	.LVL653:
ARM GAS  C:\Users\86183\AppData\Local\Temp\ccAkzFZ3.s 			page 97


 4484 0030 0746     		mov	r7, r0
 4485 0032 FFF7FEFF 		bl	userGetCarPosY
 4486              	.LVL654:
 4487 0036 2168     		ldr	r1, [r4]	@ float
 4488 0038 FFF7FEFF 		bl	__aeabi_fsub
 4489              	.LVL655:
 4490 003c 0146     		mov	r1, r0
 4491 003e 3846     		mov	r0, r7
 4492 0040 FFF7FEFF 		bl	__aeabi_fmul
 4493              	.LVL656:
 4494 0044 0146     		mov	r1, r0
 4495              		.loc 1 660 9 view .LVU1052
 4496 0046 3046     		mov	r0, r6
 4497 0048 FFF7FEFF 		bl	__aeabi_fadd
 4498              	.LVL657:
 4499 004c 0646     		mov	r6, r0
 4500              	.LVL658:
 661:Core/Src/main.c ****   float dist1 = sq(userGetCarPosX() - packageX[1]) + sq(userGetCarPosY() - packageY[1]);
 4501              		.loc 1 661 3 is_stmt 1 view .LVU1053
 4502              		.loc 1 661 17 is_stmt 0 view .LVU1054
 4503 004e FFF7FEFF 		bl	userGetCarPosX
 4504              	.LVL659:
 4505              		.loc 1 661 17 view .LVU1055
 4506 0052 6968     		ldr	r1, [r5, #4]	@ float
 4507 0054 FFF7FEFF 		bl	__aeabi_fsub
 4508              	.LVL660:
 4509 0058 0746     		mov	r7, r0
 4510 005a FFF7FEFF 		bl	userGetCarPosX
 4511              	.LVL661:
 4512 005e 6968     		ldr	r1, [r5, #4]	@ float
 4513 0060 FFF7FEFF 		bl	__aeabi_fsub
 4514              	.LVL662:
 4515 0064 0146     		mov	r1, r0
 4516 0066 3846     		mov	r0, r7
 4517 0068 FFF7FEFF 		bl	__aeabi_fmul
 4518              	.LVL663:
 4519 006c 0546     		mov	r5, r0
 4520              		.loc 1 661 54 view .LVU1056
 4521 006e FFF7FEFF 		bl	userGetCarPosY
 4522              	.LVL664:
 4523 0072 6168     		ldr	r1, [r4, #4]	@ float
 4524 0074 FFF7FEFF 		bl	__aeabi_fsub
 4525              	.LVL665:
 4526 0078 0746     		mov	r7, r0
 4527 007a FFF7FEFF 		bl	userGetCarPosY
 4528              	.LVL666:
 4529 007e 6468     		ldr	r4, [r4, #4]	@ float
 4530 0080 2146     		mov	r1, r4
 4531 0082 FFF7FEFF 		bl	__aeabi_fsub
 4532              	.LVL667:
 4533 0086 0146     		mov	r1, r0
 4534 0088 3846     		mov	r0, r7
 4535 008a FFF7FEFF 		bl	__aeabi_fmul
 4536              	.LVL668:
 4537 008e 0146     		mov	r1, r0
 4538              		.loc 1 661 9 view .LVU1057
 4539 0090 2846     		mov	r0, r5
ARM GAS  C:\Users\86183\AppData\Local\Temp\ccAkzFZ3.s 			page 98


 4540 0092 FFF7FEFF 		bl	__aeabi_fadd
 4541              	.LVL669:
 4542 0096 0146     		mov	r1, r0
 4543              	.LVL670:
 662:Core/Src/main.c ****   if (dist0 < dist1)
 4544              		.loc 1 662 3 is_stmt 1 view .LVU1058
 4545              		.loc 1 662 6 is_stmt 0 view .LVU1059
 4546 0098 3046     		mov	r0, r6
 4547              	.LVL671:
 4548              		.loc 1 662 6 view .LVU1060
 4549 009a FFF7FEFF 		bl	__aeabi_fcmplt
 4550              	.LVL672:
 4551              		.loc 1 662 6 view .LVU1061
 4552 009e 50B1     		cbz	r0, .L247
 663:Core/Src/main.c ****   {
 664:Core/Src/main.c ****     MoveTo(packageX[0], packageY[0]);
 4553              		.loc 1 664 5 is_stmt 1 view .LVU1062
 4554 00a0 0B4D     		ldr	r5, .L249+4
 4555 00a2 0A4C     		ldr	r4, .L249
 4556 00a4 2968     		ldr	r1, [r5]	@ float
 4557 00a6 2068     		ldr	r0, [r4]	@ float
 4558 00a8 FFF7FEFF 		bl	MoveTo
 4559              	.LVL673:
 665:Core/Src/main.c ****     MoveTo(packageX[1], packageY[1]);
 4560              		.loc 1 665 5 view .LVU1063
 4561 00ac 6968     		ldr	r1, [r5, #4]	@ float
 4562 00ae 6068     		ldr	r0, [r4, #4]	@ float
 4563 00b0 FFF7FEFF 		bl	MoveTo
 4564              	.LVL674:
 4565              	.L242:
 666:Core/Src/main.c ****   }
 667:Core/Src/main.c ****   else
 668:Core/Src/main.c ****   {
 669:Core/Src/main.c ****     MoveTo(packageX[1], packageY[1]);
 670:Core/Src/main.c ****     MoveTo(packageX[0], packageY[0]);
 671:Core/Src/main.c ****   }
 672:Core/Src/main.c **** }
 4566              		.loc 1 672 1 is_stmt 0 view .LVU1064
 4567 00b4 F8BD     		pop	{r3, r4, r5, r6, r7, pc}
 4568              	.LVL675:
 4569              	.L247:
 669:Core/Src/main.c ****     MoveTo(packageX[0], packageY[0]);
 4570              		.loc 1 669 5 is_stmt 1 view .LVU1065
 4571 00b6 054D     		ldr	r5, .L249
 4572 00b8 2146     		mov	r1, r4
 4573 00ba 6868     		ldr	r0, [r5, #4]	@ float
 4574 00bc FFF7FEFF 		bl	MoveTo
 4575              	.LVL676:
 670:Core/Src/main.c ****   }
 4576              		.loc 1 670 5 view .LVU1066
 4577 00c0 034B     		ldr	r3, .L249+4
 4578 00c2 1968     		ldr	r1, [r3]	@ float
 4579 00c4 2868     		ldr	r0, [r5]	@ float
 4580 00c6 FFF7FEFF 		bl	MoveTo
 4581              	.LVL677:
 4582              		.loc 1 672 1 is_stmt 0 view .LVU1067
 4583 00ca F3E7     		b	.L242
ARM GAS  C:\Users\86183\AppData\Local\Temp\ccAkzFZ3.s 			page 99


 4584              	.L250:
 4585              		.align	2
 4586              	.L249:
 4587 00cc 00000000 		.word	.LANCHOR11
 4588 00d0 00000000 		.word	.LANCHOR12
 4589              		.cfi_endproc
 4590              	.LFE86:
 4592              		.section	.text.SetBeacon,"ax",%progbits
 4593              		.align	1
 4594              		.global	SetBeacon
 4595              		.syntax unified
 4596              		.thumb
 4597              		.thumb_func
 4598              		.fpu softvfp
 4600              	SetBeacon:
 4601              	.LFB87:
 673:Core/Src/main.c **** 
 674:Core/Src/main.c **** void SetBeacon()
 675:Core/Src/main.c **** {
 4602              		.loc 1 675 1 is_stmt 1 view -0
 4603              		.cfi_startproc
 4604              		@ args = 0, pretend = 0, frame = 24
 4605              		@ frame_needed = 0, uses_anonymous_args = 0
 4606 0000 2DE9F043 		push	{r4, r5, r6, r7, r8, r9, lr}
 4607              	.LCFI29:
 4608              		.cfi_def_cfa_offset 28
 4609              		.cfi_offset 4, -28
 4610              		.cfi_offset 5, -24
 4611              		.cfi_offset 6, -20
 4612              		.cfi_offset 7, -16
 4613              		.cfi_offset 8, -12
 4614              		.cfi_offset 9, -8
 4615              		.cfi_offset 14, -4
 4616 0004 87B0     		sub	sp, sp, #28
 4617              	.LCFI30:
 4618              		.cfi_def_cfa_offset 56
 676:Core/Src/main.c ****   int k = 0;
 4619              		.loc 1 676 3 view .LVU1069
 4620              	.LVL678:
 677:Core/Src/main.c ****   float dist1[3], dist2[2];
 4621              		.loc 1 677 3 view .LVU1070
 678:Core/Src/main.c ****   int tmp = 0, j = 0;
 4622              		.loc 1 678 3 view .LVU1071
 679:Core/Src/main.c ****   for (int i = 0; i < 3; i++)
 4623              		.loc 1 679 3 view .LVU1072
 4624              	.LBB32:
 4625              		.loc 1 679 8 view .LVU1073
 4626              		.loc 1 679 12 is_stmt 0 view .LVU1074
 4627 0006 0024     		movs	r4, #0
 4628              		.loc 1 679 3 view .LVU1075
 4629 0008 2DE0     		b	.L252
 4630              	.LVL679:
 4631              	.L253:
 680:Core/Src/main.c ****     dist1[i] = sq(userGetCarPosX() - BeaconDir[i][0]) + sq(userGetCarPosY() - BeaconDir[i][1]);
 4632              		.loc 1 680 5 is_stmt 1 discriminator 3 view .LVU1076
 4633              		.loc 1 680 16 is_stmt 0 discriminator 3 view .LVU1077
 4634 000a FFF7FEFF 		bl	userGetCarPosX
ARM GAS  C:\Users\86183\AppData\Local\Temp\ccAkzFZ3.s 			page 100


 4635              	.LVL680:
 4636 000e 604D     		ldr	r5, .L273
 4637 0010 55F83410 		ldr	r1, [r5, r4, lsl #3]	@ float
 4638 0014 FFF7FEFF 		bl	__aeabi_fsub
 4639              	.LVL681:
 4640 0018 0646     		mov	r6, r0
 4641 001a FFF7FEFF 		bl	userGetCarPosX
 4642              	.LVL682:
 4643 001e 55F83410 		ldr	r1, [r5, r4, lsl #3]	@ float
 4644 0022 FFF7FEFF 		bl	__aeabi_fsub
 4645              	.LVL683:
 4646 0026 0146     		mov	r1, r0
 4647 0028 3046     		mov	r0, r6
 4648 002a FFF7FEFF 		bl	__aeabi_fmul
 4649              	.LVL684:
 4650 002e 0646     		mov	r6, r0
 4651              		.loc 1 680 57 discriminator 3 view .LVU1078
 4652 0030 FFF7FEFF 		bl	userGetCarPosY
 4653              	.LVL685:
 4654 0034 05EBC405 		add	r5, r5, r4, lsl #3
 4655 0038 6968     		ldr	r1, [r5, #4]	@ float
 4656 003a FFF7FEFF 		bl	__aeabi_fsub
 4657              	.LVL686:
 4658 003e 0746     		mov	r7, r0
 4659 0040 FFF7FEFF 		bl	userGetCarPosY
 4660              	.LVL687:
 4661 0044 6968     		ldr	r1, [r5, #4]	@ float
 4662 0046 FFF7FEFF 		bl	__aeabi_fsub
 4663              	.LVL688:
 4664 004a 0146     		mov	r1, r0
 4665 004c 3846     		mov	r0, r7
 4666 004e FFF7FEFF 		bl	__aeabi_fmul
 4667              	.LVL689:
 4668 0052 0146     		mov	r1, r0
 4669              		.loc 1 680 55 discriminator 3 view .LVU1079
 4670 0054 3046     		mov	r0, r6
 4671 0056 FFF7FEFF 		bl	__aeabi_fadd
 4672              	.LVL690:
 4673              		.loc 1 680 14 discriminator 3 view .LVU1080
 4674 005a 06AB     		add	r3, sp, #24
 4675 005c 03EB8403 		add	r3, r3, r4, lsl #2
 4676 0060 43F80C0C 		str	r0, [r3, #-12]	@ float
 679:Core/Src/main.c ****   for (int i = 0; i < 3; i++)
 4677              		.loc 1 679 26 is_stmt 1 discriminator 3 view .LVU1081
 679:Core/Src/main.c ****   for (int i = 0; i < 3; i++)
 4678              		.loc 1 679 27 is_stmt 0 discriminator 3 view .LVU1082
 4679 0064 0134     		adds	r4, r4, #1
 4680              	.LVL691:
 4681              	.L252:
 679:Core/Src/main.c ****   for (int i = 0; i < 3; i++)
 4682              		.loc 1 679 19 is_stmt 1 discriminator 1 view .LVU1083
 679:Core/Src/main.c ****   for (int i = 0; i < 3; i++)
 4683              		.loc 1 679 3 is_stmt 0 discriminator 1 view .LVU1084
 4684 0066 022C     		cmp	r4, #2
 4685 0068 CFDD     		ble	.L253
 4686              	.LBE32:
 4687              	.LBB33:
ARM GAS  C:\Users\86183\AppData\Local\Temp\ccAkzFZ3.s 			page 101


 681:Core/Src/main.c ****   for (int i = 0; i < 3; i++)
 4688              		.loc 1 681 12 view .LVU1085
 4689 006a 0024     		movs	r4, #0
 4690              	.LVL692:
 4691              		.loc 1 681 12 view .LVU1086
 4692              	.LBE33:
 678:Core/Src/main.c ****   for (int i = 0; i < 3; i++)
 4693              		.loc 1 678 7 view .LVU1087
 4694 006c 2546     		mov	r5, r4
 4695 006e 00E0     		b	.L254
 4696              	.LVL693:
 4697              	.L255:
 4698              	.LBB34:
 4699              		.loc 1 681 26 is_stmt 1 discriminator 4 view .LVU1088
 4700              		.loc 1 681 27 is_stmt 0 discriminator 4 view .LVU1089
 4701 0070 0134     		adds	r4, r4, #1
 4702              	.LVL694:
 4703              	.L254:
 4704              		.loc 1 681 19 is_stmt 1 discriminator 2 view .LVU1090
 4705              		.loc 1 681 3 is_stmt 0 discriminator 2 view .LVU1091
 4706 0072 022C     		cmp	r4, #2
 4707 0074 0FDC     		bgt	.L271
 682:Core/Src/main.c ****     tmp = dist1[tmp] < dist1[i] ? tmp : i;
 4708              		.loc 1 682 5 is_stmt 1 view .LVU1092
 4709              		.loc 1 682 29 is_stmt 0 view .LVU1093
 4710 0076 06AB     		add	r3, sp, #24
 4711 0078 03EB8403 		add	r3, r3, r4, lsl #2
 4712              		.loc 1 682 39 view .LVU1094
 4713 007c 53F80C1C 		ldr	r1, [r3, #-12]	@ float
 4714 0080 06AB     		add	r3, sp, #24
 4715 0082 03EB8503 		add	r3, r3, r5, lsl #2
 4716 0086 53F80C0C 		ldr	r0, [r3, #-12]	@ float
 4717 008a FFF7FEFF 		bl	__aeabi_fcmplt
 4718              	.LVL695:
 4719 008e 0028     		cmp	r0, #0
 4720 0090 EED1     		bne	.L255
 4721 0092 2546     		mov	r5, r4
 4722              	.LVL696:
 4723              		.loc 1 682 39 view .LVU1095
 4724 0094 ECE7     		b	.L255
 4725              	.LVL697:
 4726              	.L271:
 4727              		.loc 1 682 39 view .LVU1096
 4728              	.LBE34:
 683:Core/Src/main.c ****   MoveTo(BeaconDir[tmp][0], BeaconDir[tmp][1]);
 4729              		.loc 1 683 3 is_stmt 1 view .LVU1097
 4730 0096 3E4B     		ldr	r3, .L273
 4731 0098 03EBC502 		add	r2, r3, r5, lsl #3
 4732 009c 5168     		ldr	r1, [r2, #4]	@ float
 4733 009e 53F83500 		ldr	r0, [r3, r5, lsl #3]	@ float
 4734 00a2 FFF7FEFF 		bl	MoveTo
 4735              	.LVL698:
 684:Core/Src/main.c ****   zigbeeSend(k);
 4736              		.loc 1 684 3 view .LVU1098
 4737 00a6 0020     		movs	r0, #0
 4738 00a8 FFF7FEFF 		bl	zigbeeSend
 4739              	.LVL699:
ARM GAS  C:\Users\86183\AppData\Local\Temp\ccAkzFZ3.s 			page 102


 685:Core/Src/main.c ****   k++;
 4740              		.loc 1 685 3 view .LVU1099
 686:Core/Src/main.c ****   Set_Beacon();
 4741              		.loc 1 686 3 view .LVU1100
 4742 00ac FFF7FEFF 		bl	Set_Beacon
 4743              	.LVL700:
 687:Core/Src/main.c ****   for (int i = 0; i < 3; i++)
 4744              		.loc 1 687 3 view .LVU1101
 4745              	.LBB35:
 4746              		.loc 1 687 8 view .LVU1102
 4747              		.loc 1 687 12 is_stmt 0 view .LVU1103
 4748 00b0 0024     		movs	r4, #0
 4749              	.LVL701:
 4750              		.loc 1 687 12 view .LVU1104
 4751              	.LBE35:
 678:Core/Src/main.c ****   for (int i = 0; i < 3; i++)
 4752              		.loc 1 678 16 view .LVU1105
 4753 00b2 A146     		mov	r9, r4
 4754              	.LBB36:
 4755              		.loc 1 687 3 view .LVU1106
