ARM GAS  C:\Users\86183\AppData\Local\Temp\ccxUIlJQ.s 			page 1


   1              		.cpu cortex-m3
   2              		.eabi_attribute 20, 1
   3              		.eabi_attribute 21, 1
   4              		.eabi_attribute 23, 3
   5              		.eabi_attribute 24, 1
   6              		.eabi_attribute 25, 1
   7              		.eabi_attribute 26, 1
   8              		.eabi_attribute 30, 1
   9              		.eabi_attribute 34, 1
  10              		.eabi_attribute 18, 4
  11              		.file	"main.c"
  12              		.text
  13              	.Ltext0:
  14              		.cfi_sections	.debug_frame
  15              		.global	__aeabi_fsub
  16              		.global	__aeabi_fmul
  17              		.global	__aeabi_fadd
  18              		.global	__aeabi_fcmpgt
  19              		.global	__aeabi_fdiv
  20              		.global	__aeabi_fcmplt
  21              		.section	.text.PID,"ax",%progbits
  22              		.align	1
  23              		.global	PID
  24              		.arch armv7-m
  25              		.syntax unified
  26              		.thumb
  27              		.thumb_func
  28              		.fpu softvfp
  30              	PID:
  31              	.LVL0:
  32              	.LFB65:
  33              		.file 1 "Core/Src/main.c"
   1:Core/Src/main.c **** /* USER CODE BEGIN Header */
   2:Core/Src/main.c **** /**
   3:Core/Src/main.c ****   ******************************************************************************
   4:Core/Src/main.c ****   * @file           : main.c
   5:Core/Src/main.c ****   * @brief          : Main program body
   6:Core/Src/main.c ****   ******************************************************************************
   7:Core/Src/main.c ****   * @attention
   8:Core/Src/main.c ****   *
   9:Core/Src/main.c ****   * <h2><center>&copy; Copyright (c) 2021 STMicroelectronics.
  10:Core/Src/main.c ****   * All rights reserved.</center></h2>
  11:Core/Src/main.c ****   *
  12:Core/Src/main.c ****   * This software component is licensed by ST under BSD 3-Clause license,
  13:Core/Src/main.c ****   * the "License"; You may not use this file except in compliance with the
  14:Core/Src/main.c ****   * License. You may obtain a copy of the License at:
  15:Core/Src/main.c ****   *                        opensource.org/licenses/BSD-3-Clause
  16:Core/Src/main.c ****   *
  17:Core/Src/main.c ****   ******************************************************************************
  18:Core/Src/main.c ****   */
  19:Core/Src/main.c **** /* USER CODE END Header */
  20:Core/Src/main.c **** /* Includes ------------------------------------------------------------------*/
  21:Core/Src/main.c **** #include <math.h>
  22:Core/Src/main.c **** #include "main.h"
  23:Core/Src/main.c **** #include "dma.h"
  24:Core/Src/main.c **** #include "tim.h"
  25:Core/Src/main.c **** #include "usart.h"
ARM GAS  C:\Users\86183\AppData\Local\Temp\ccxUIlJQ.s 			page 2


  26:Core/Src/main.c **** #include "gpio.h"
  27:Core/Src/main.c **** #include "jy62.h"
  28:Core/Src/main.c **** #include "zigbee.h"
  29:Core/Src/main.c **** /* Private includes ----------------------------------------------------------*/
  30:Core/Src/main.c **** /* USER CODE BEGIN Includes */
  31:Core/Src/main.c **** 
  32:Core/Src/main.c **** /* USER CODE END Includes */
  33:Core/Src/main.c **** 
  34:Core/Src/main.c **** /* Private typedef -----------------------------------------------------------*/
  35:Core/Src/main.c **** /* USER CODE BEGIN PTD */
  36:Core/Src/main.c **** /* USER CODE END PTD */
  37:Core/Src/main.c **** 
  38:Core/Src/main.c **** /* Private define ------------------------------------------------------------*/
  39:Core/Src/main.c **** /* USER CODE BEGIN PD */
  40:Core/Src/main.c **** /* USER CODE END PD */
  41:Core/Src/main.c **** 
  42:Core/Src/main.c **** /* Private macro -------------------------------------------------------------*/
  43:Core/Src/main.c **** /* USER CODE BEGIN PM */
  44:Core/Src/main.c **** 
  45:Core/Src/main.c **** /* USER CODE END PM */
  46:Core/Src/main.c **** 
  47:Core/Src/main.c **** /* Private variables ---------------------------------------------------------*/
  48:Core/Src/main.c **** 
  49:Core/Src/main.c **** /* USER CODE BEGIN PV */
  50:Core/Src/main.c **** /* USER CODE END PV */
  51:Core/Src/main.c **** 
  52:Core/Src/main.c **** /* Private function prototypes -----------------------------------------------*/
  53:Core/Src/main.c **** void SystemClock_Config(void);
  54:Core/Src/main.c **** /* USER CODE BEGIN PFP */
  55:Core/Src/main.c **** 
  56:Core/Src/main.c **** /* USER CODE END PFP */
  57:Core/Src/main.c **** 
  58:Core/Src/main.c **** /* Private user code ---------------------------------------------------------*/
  59:Core/Src/main.c **** /* USER CODE BEGIN 0 */
  60:Core/Src/main.c **** #define Turn_Angle_Bias 10
  61:Core/Src/main.c **** #define PID_MAX 900
  62:Core/Src/main.c **** #define PID_MIN 0
  63:Core/Src/main.c **** #define GET_PACKAGE 0
  64:Core/Src/main.c **** #define PUT_PACKAGE 1
  65:Core/Src/main.c **** /*PID参数----------------------------------------------------------------------*/
  66:Core/Src/main.c **** float INTEGRAL[4] = {0, 0, 0, 0}, pre_err[4] = {0, 0, 0, 0};
  67:Core/Src/main.c **** const float Kp[4] = {40, 40, 40, 40}, Ki[4] = {0.2, 0.2, 0.2, 0.2}, Kd[4] = {100, 100, 100, 100};
  68:Core/Src/main.c **** float pid[4] = {0, 0, 0, 0};
  69:Core/Src/main.c **** float target[4] = {20, 20, 20, 20};
  70:Core/Src/main.c **** 
  71:Core/Src/main.c **** uint8_t STATE;
  72:Core/Src/main.c **** 
  73:Core/Src/main.c **** float angle0;
  74:Core/Src/main.c **** float absoluteAngle;
  75:Core/Src/main.c **** 
  76:Core/Src/main.c **** float PID(float in, float target, int i)
  77:Core/Src/main.c **** {
  34              		.loc 1 77 1 view -0
  35              		.cfi_startproc
  36              		@ args = 0, pretend = 0, frame = 0
  37              		@ frame_needed = 0, uses_anonymous_args = 0
  38              		.loc 1 77 1 is_stmt 0 view .LVU1
ARM GAS  C:\Users\86183\AppData\Local\Temp\ccxUIlJQ.s 			page 3


  39 0000 F8B5     		push	{r3, r4, r5, r6, r7, lr}
  40              	.LCFI0:
  41              		.cfi_def_cfa_offset 24
  42              		.cfi_offset 3, -24
  43              		.cfi_offset 4, -20
  44              		.cfi_offset 5, -16
  45              		.cfi_offset 6, -12
  46              		.cfi_offset 7, -8
  47              		.cfi_offset 14, -4
  48 0002 0B46     		mov	r3, r1
  49 0004 1446     		mov	r4, r2
  78:Core/Src/main.c ****   float err = target - in;
  50              		.loc 1 78 3 is_stmt 1 view .LVU2
  51              		.loc 1 78 9 is_stmt 0 view .LVU3
  52 0006 0146     		mov	r1, r0
  53              	.LVL1:
  54              		.loc 1 78 9 view .LVU4
  55 0008 1846     		mov	r0, r3
  56              	.LVL2:
  57              		.loc 1 78 9 view .LVU5
  58 000a FFF7FEFF 		bl	__aeabi_fsub
  59              	.LVL3:
  60              		.loc 1 78 9 view .LVU6
  61 000e 0546     		mov	r5, r0
  62              	.LVL4:
  79:Core/Src/main.c ****   INTEGRAL[i] += err * 20;
  63              		.loc 1 79 3 is_stmt 1 view .LVU7
  64              		.loc 1 79 22 is_stmt 0 view .LVU8
  65 0010 2649     		ldr	r1, .L10
  66 0012 FFF7FEFF 		bl	__aeabi_fmul
  67              	.LVL5:
  68              		.loc 1 79 15 view .LVU9
  69 0016 264E     		ldr	r6, .L10+4
  70 0018 56F82410 		ldr	r1, [r6, r4, lsl #2]	@ float
  71 001c FFF7FEFF 		bl	__aeabi_fadd
  72              	.LVL6:
  73 0020 46F82400 		str	r0, [r6, r4, lsl #2]	@ float
  80:Core/Src/main.c ****   if (INTEGRAL[i] > 8000)
  74              		.loc 1 80 3 is_stmt 1 view .LVU10
  75              		.loc 1 80 6 is_stmt 0 view .LVU11
  76 0024 2349     		ldr	r1, .L10+8
  77 0026 FFF7FEFF 		bl	__aeabi_fcmpgt
  78              	.LVL7:
  79 002a 10B1     		cbz	r0, .L2
  81:Core/Src/main.c ****     INTEGRAL[i] = 8000;
  80              		.loc 1 81 5 is_stmt 1 view .LVU12
  81              		.loc 1 81 17 is_stmt 0 view .LVU13
  82 002c 214A     		ldr	r2, .L10+8
  83 002e 46F82420 		str	r2, [r6, r4, lsl #2]	@ float
  84              	.L2:
  82:Core/Src/main.c ****   float derr = (err - pre_err[i]) / 20;
  85              		.loc 1 82 3 is_stmt 1 view .LVU14
  86              		.loc 1 82 30 is_stmt 0 view .LVU15
  87 0032 214F     		ldr	r7, .L10+12
  88              		.loc 1 82 21 view .LVU16
  89 0034 57F82410 		ldr	r1, [r7, r4, lsl #2]	@ float
  90 0038 2846     		mov	r0, r5
ARM GAS  C:\Users\86183\AppData\Local\Temp\ccxUIlJQ.s 			page 4


  91 003a FFF7FEFF 		bl	__aeabi_fsub
  92              	.LVL8:
  93              		.loc 1 82 9 view .LVU17
  94 003e 1B49     		ldr	r1, .L10
  95 0040 FFF7FEFF 		bl	__aeabi_fdiv
  96              	.LVL9:
  97 0044 0646     		mov	r6, r0
  98              	.LVL10:
  83:Core/Src/main.c ****   pre_err[i] = err;
  99              		.loc 1 83 3 is_stmt 1 view .LVU18
 100              		.loc 1 83 14 is_stmt 0 view .LVU19
 101 0046 47F82450 		str	r5, [r7, r4, lsl #2]	@ float
  84:Core/Src/main.c ****   pid[i] = (Kp[i] * err) + (Ki[i] * INTEGRAL[i]) + (Kd[i] * derr);
 102              		.loc 1 84 3 is_stmt 1 view .LVU20
 103              		.loc 1 84 19 is_stmt 0 view .LVU21
 104 004a 2946     		mov	r1, r5
 105 004c 1B4B     		ldr	r3, .L10+16
 106 004e 53F82400 		ldr	r0, [r3, r4, lsl #2]	@ float
 107              	.LVL11:
 108              		.loc 1 84 19 view .LVU22
 109 0052 FFF7FEFF 		bl	__aeabi_fmul
 110              	.LVL12:
 111 0056 0546     		mov	r5, r0
 112              	.LVL13:
 113              		.loc 1 84 35 view .LVU23
 114 0058 154B     		ldr	r3, .L10+4
 115 005a 53F82410 		ldr	r1, [r3, r4, lsl #2]	@ float
 116 005e 184B     		ldr	r3, .L10+20
 117 0060 53F82400 		ldr	r0, [r3, r4, lsl #2]	@ float
 118 0064 FFF7FEFF 		bl	__aeabi_fmul
 119              	.LVL14:
 120 0068 0146     		mov	r1, r0
 121              		.loc 1 84 26 view .LVU24
 122 006a 2846     		mov	r0, r5
 123 006c FFF7FEFF 		bl	__aeabi_fadd
 124              	.LVL15:
 125 0070 0546     		mov	r5, r0
 126              		.loc 1 84 59 view .LVU25
 127 0072 3146     		mov	r1, r6
 128 0074 134B     		ldr	r3, .L10+24
 129 0076 53F82400 		ldr	r0, [r3, r4, lsl #2]	@ float
 130 007a FFF7FEFF 		bl	__aeabi_fmul
 131              	.LVL16:
 132 007e 0146     		mov	r1, r0
 133              		.loc 1 84 50 view .LVU26
 134 0080 2846     		mov	r0, r5
 135 0082 FFF7FEFF 		bl	__aeabi_fadd
 136              	.LVL17:
 137 0086 0546     		mov	r5, r0
 138              		.loc 1 84 10 view .LVU27
 139 0088 0F4B     		ldr	r3, .L10+28
 140 008a 43F82400 		str	r0, [r3, r4, lsl #2]	@ float
  85:Core/Src/main.c ****   float output;
 141              		.loc 1 85 3 is_stmt 1 view .LVU28
  86:Core/Src/main.c ****   if (pid[i] < PID_MIN)
 142              		.loc 1 86 3 view .LVU29
 143              		.loc 1 86 6 is_stmt 0 view .LVU30
ARM GAS  C:\Users\86183\AppData\Local\Temp\ccxUIlJQ.s 			page 5


 144 008e 0021     		movs	r1, #0
 145 0090 FFF7FEFF 		bl	__aeabi_fcmplt
 146              	.LVL18:
 147 0094 30B9     		cbnz	r0, .L6
  87:Core/Src/main.c ****     output = PID_MIN;
  88:Core/Src/main.c ****   else if (pid[i] > PID_MAX)
 148              		.loc 1 88 8 is_stmt 1 view .LVU31
 149              		.loc 1 88 11 is_stmt 0 view .LVU32
 150 0096 0D49     		ldr	r1, .L10+32
 151 0098 2846     		mov	r0, r5
 152 009a FFF7FEFF 		bl	__aeabi_fcmpgt
 153              	.LVL19:
 154 009e 10B1     		cbz	r0, .L1
  89:Core/Src/main.c ****     output = PID_MAX;
 155              		.loc 1 89 12 view .LVU33
 156 00a0 0A4D     		ldr	r5, .L10+32
 157 00a2 00E0     		b	.L1
 158              	.L6:
  87:Core/Src/main.c ****     output = PID_MIN;
 159              		.loc 1 87 12 view .LVU34
 160 00a4 0025     		movs	r5, #0
 161              	.LVL20:
  90:Core/Src/main.c ****   else
  91:Core/Src/main.c ****     output = pid[i];
  92:Core/Src/main.c ****   return output;
 162              		.loc 1 92 3 is_stmt 1 view .LVU35
 163              	.L1:
  93:Core/Src/main.c **** }
 164              		.loc 1 93 1 is_stmt 0 view .LVU36
 165 00a6 2846     		mov	r0, r5
 166 00a8 F8BD     		pop	{r3, r4, r5, r6, r7, pc}
 167              	.LVL21:
 168              	.L11:
 169              		.loc 1 93 1 view .LVU37
 170 00aa 00BF     		.align	2
 171              	.L10:
 172 00ac 0000A041 		.word	1101004800
 173 00b0 00000000 		.word	.LANCHOR0
 174 00b4 0000FA45 		.word	1174011904
 175 00b8 00000000 		.word	.LANCHOR1
 176 00bc 00000000 		.word	.LANCHOR2
 177 00c0 00000000 		.word	.LANCHOR3
 178 00c4 00000000 		.word	.LANCHOR4
 179 00c8 00000000 		.word	.LANCHOR5
 180 00cc 00006144 		.word	1147207680
 181              		.cfi_endproc
 182              	.LFE65:
 184              		.section	.text.Calibrate_Angle,"ax",%progbits
 185              		.align	1
 186              		.global	Calibrate_Angle
 187              		.syntax unified
 188              		.thumb
 189              		.thumb_func
 190              		.fpu softvfp
 192              	Calibrate_Angle:
 193              	.LFB66:
  94:Core/Src/main.c **** 
ARM GAS  C:\Users\86183\AppData\Local\Temp\ccxUIlJQ.s 			page 6


  95:Core/Src/main.c **** void Calibrate_Angle()
  96:Core/Src/main.c **** {
 194              		.loc 1 96 1 is_stmt 1 view -0
 195              		.cfi_startproc
 196              		@ args = 0, pretend = 0, frame = 0
 197              		@ frame_needed = 0, uses_anonymous_args = 0
 198 0000 38B5     		push	{r3, r4, r5, lr}
 199              	.LCFI1:
 200              		.cfi_def_cfa_offset 16
 201              		.cfi_offset 3, -16
 202              		.cfi_offset 4, -12
 203              		.cfi_offset 5, -8
 204              		.cfi_offset 14, -4
  97:Core/Src/main.c ****   float temp = GetYaw();
 205              		.loc 1 97 3 view .LVU39
 206              		.loc 1 97 16 is_stmt 0 view .LVU40
 207 0002 FFF7FEFF 		bl	GetYaw
 208              	.LVL22:
 209 0006 0446     		mov	r4, r0
 210              	.LVL23:
  98:Core/Src/main.c ****   angle0 = temp / 20;
 211              		.loc 1 98 3 is_stmt 1 view .LVU41
 212              		.loc 1 98 17 is_stmt 0 view .LVU42
 213 0008 2F49     		ldr	r1, .L31
 214 000a FFF7FEFF 		bl	__aeabi_fdiv
 215              	.LVL24:
 216              		.loc 1 98 10 view .LVU43
 217 000e 2F4B     		ldr	r3, .L31+4
 218 0010 1860     		str	r0, [r3]	@ float
  99:Core/Src/main.c ****   if (temp < 60)
 219              		.loc 1 99 3 is_stmt 1 view .LVU44
 220              		.loc 1 99 6 is_stmt 0 view .LVU45
 221 0012 2F49     		ldr	r1, .L31+8
 222 0014 2046     		mov	r0, r4
 223 0016 FFF7FEFF 		bl	__aeabi_fcmplt
 224              	.LVL25:
 225 001a 0028     		cmp	r0, #0
 226 001c 30D1     		bne	.L25
 100:Core/Src/main.c ****     for (int i = 1; i < 20; i++)
 101:Core/Src/main.c ****     {
 102:Core/Src/main.c ****       if ((temp = GetYaw()) > 300)
 103:Core/Src/main.c ****         temp -= 360;
 104:Core/Src/main.c ****       angle0 += temp / 20;
 105:Core/Src/main.c ****     }
 106:Core/Src/main.c ****   else if (temp > 300)
 227              		.loc 1 106 8 is_stmt 1 view .LVU46
 228              		.loc 1 106 11 is_stmt 0 view .LVU47
 229 001e 2D49     		ldr	r1, .L31+12
 230 0020 2046     		mov	r0, r4
 231 0022 FFF7FEFF 		bl	__aeabi_fcmpgt
 232              	.LVL26:
 233 0026 0028     		cmp	r0, #0
 234 0028 47D1     		bne	.L26
 235              	.LBB4:
 107:Core/Src/main.c ****     for (int i = 1; i < 20; i++)
 108:Core/Src/main.c ****     {
 109:Core/Src/main.c ****       if ((temp = GetYaw()) < 60)
ARM GAS  C:\Users\86183\AppData\Local\Temp\ccxUIlJQ.s 			page 7


 110:Core/Src/main.c ****         temp += 360;
 111:Core/Src/main.c ****       angle0 += temp / 20;
 112:Core/Src/main.c ****     }
 113:Core/Src/main.c ****   else
 114:Core/Src/main.c ****     for (int i = 1; i < 20; i++)
 236              		.loc 1 114 14 view .LVU48
 237 002a 0124     		movs	r4, #1
 238              	.LVL27:
 239              	.L20:
 240              		.loc 1 114 21 is_stmt 1 discriminator 1 view .LVU49
 241              		.loc 1 114 5 is_stmt 0 discriminator 1 view .LVU50
 242 002c 132C     		cmp	r4, #19
 243 002e 46DC     		bgt	.L18
 115:Core/Src/main.c ****       angle0 += GetYaw() / 20;
 244              		.loc 1 115 7 is_stmt 1 discriminator 3 view .LVU51
 245              		.loc 1 115 17 is_stmt 0 discriminator 3 view .LVU52
 246 0030 FFF7FEFF 		bl	GetYaw
 247              	.LVL28:
 248              		.loc 1 115 26 discriminator 3 view .LVU53
 249 0034 2449     		ldr	r1, .L31
 250 0036 FFF7FEFF 		bl	__aeabi_fdiv
 251              	.LVL29:
 252 003a 0146     		mov	r1, r0
 253              		.loc 1 115 14 discriminator 3 view .LVU54
 254 003c 234D     		ldr	r5, .L31+4
 255 003e 2868     		ldr	r0, [r5]	@ float
 256 0040 FFF7FEFF 		bl	__aeabi_fadd
 257              	.LVL30:
 258 0044 2860     		str	r0, [r5]	@ float
 114:Core/Src/main.c ****       angle0 += GetYaw() / 20;
 259              		.loc 1 114 29 is_stmt 1 discriminator 3 view .LVU55
 114:Core/Src/main.c ****       angle0 += GetYaw() / 20;
 260              		.loc 1 114 30 is_stmt 0 discriminator 3 view .LVU56
 261 0046 0134     		adds	r4, r4, #1
 262              	.LVL31:
 114:Core/Src/main.c ****       angle0 += GetYaw() / 20;
 263              		.loc 1 114 30 discriminator 3 view .LVU57
 264 0048 F0E7     		b	.L20
 265              	.LVL32:
 266              	.L15:
 114:Core/Src/main.c ****       angle0 += GetYaw() / 20;
 267              		.loc 1 114 30 discriminator 3 view .LVU58
 268              	.LBE4:
 269              	.LBB5:
 104:Core/Src/main.c ****     }
 270              		.loc 1 104 7 is_stmt 1 discriminator 2 view .LVU59
 104:Core/Src/main.c ****     }
 271              		.loc 1 104 22 is_stmt 0 discriminator 2 view .LVU60
 272 004a 1F49     		ldr	r1, .L31
 273 004c 2046     		mov	r0, r4
 274 004e FFF7FEFF 		bl	__aeabi_fdiv
 275              	.LVL33:
 276 0052 0146     		mov	r1, r0
 104:Core/Src/main.c ****     }
 277              		.loc 1 104 14 discriminator 2 view .LVU61
 278 0054 1D4C     		ldr	r4, .L31+4
 279              	.LVL34:
ARM GAS  C:\Users\86183\AppData\Local\Temp\ccxUIlJQ.s 			page 8


 104:Core/Src/main.c ****     }
 280              		.loc 1 104 14 discriminator 2 view .LVU62
 281 0056 2068     		ldr	r0, [r4]	@ float
 282 0058 FFF7FEFF 		bl	__aeabi_fadd
 283              	.LVL35:
 284 005c 2060     		str	r0, [r4]	@ float
 100:Core/Src/main.c ****     {
 285              		.loc 1 100 29 is_stmt 1 discriminator 2 view .LVU63
 100:Core/Src/main.c ****     {
 286              		.loc 1 100 30 is_stmt 0 discriminator 2 view .LVU64
 287 005e 0135     		adds	r5, r5, #1
 288              	.LVL36:
 289              	.L13:
 100:Core/Src/main.c ****     {
 290              		.loc 1 100 21 is_stmt 1 discriminator 1 view .LVU65
 100:Core/Src/main.c ****     {
 291              		.loc 1 100 5 is_stmt 0 discriminator 1 view .LVU66
 292 0060 132D     		cmp	r5, #19
 293 0062 2CDC     		bgt	.L18
 102:Core/Src/main.c ****         temp -= 360;
 294              		.loc 1 102 7 is_stmt 1 view .LVU67
 102:Core/Src/main.c ****         temp -= 360;
 295              		.loc 1 102 19 is_stmt 0 view .LVU68
 296 0064 FFF7FEFF 		bl	GetYaw
 297              	.LVL37:
 298 0068 0446     		mov	r4, r0
 299              	.LVL38:
 102:Core/Src/main.c ****         temp -= 360;
 300              		.loc 1 102 10 view .LVU69
 301 006a 1A49     		ldr	r1, .L31+12
 302 006c FFF7FEFF 		bl	__aeabi_fcmpgt
 303              	.LVL39:
 102:Core/Src/main.c ****         temp -= 360;
 304              		.loc 1 102 10 view .LVU70
 305 0070 0028     		cmp	r0, #0
 306 0072 EAD0     		beq	.L15
 103:Core/Src/main.c ****       angle0 += temp / 20;
 307              		.loc 1 103 9 is_stmt 1 view .LVU71
 103:Core/Src/main.c ****       angle0 += temp / 20;
 308              		.loc 1 103 14 is_stmt 0 view .LVU72
 309 0074 1849     		ldr	r1, .L31+16
 310 0076 2046     		mov	r0, r4
 311 0078 FFF7FEFF 		bl	__aeabi_fsub
 312              	.LVL40:
 313 007c 0446     		mov	r4, r0
 314              	.LVL41:
 103:Core/Src/main.c ****       angle0 += temp / 20;
 315              		.loc 1 103 14 view .LVU73
 316 007e E4E7     		b	.L15
 317              	.LVL42:
 318              	.L25:
 100:Core/Src/main.c ****     {
 319              		.loc 1 100 14 view .LVU74
 320 0080 0125     		movs	r5, #1
 321 0082 EDE7     		b	.L13
 322              	.LVL43:
 323              	.L21:
ARM GAS  C:\Users\86183\AppData\Local\Temp\ccxUIlJQ.s 			page 9


 100:Core/Src/main.c ****     {
 324              		.loc 1 100 14 view .LVU75
 325              	.LBE5:
 326              	.LBB6:
 111:Core/Src/main.c ****     }
 327              		.loc 1 111 7 is_stmt 1 discriminator 2 view .LVU76
 111:Core/Src/main.c ****     }
 328              		.loc 1 111 22 is_stmt 0 discriminator 2 view .LVU77
 329 0084 1049     		ldr	r1, .L31
 330 0086 2046     		mov	r0, r4
 331 0088 FFF7FEFF 		bl	__aeabi_fdiv
 332              	.LVL44:
 333 008c 0146     		mov	r1, r0
 111:Core/Src/main.c ****     }
 334              		.loc 1 111 14 discriminator 2 view .LVU78
 335 008e 0F4C     		ldr	r4, .L31+4
 336              	.LVL45:
 111:Core/Src/main.c ****     }
 337              		.loc 1 111 14 discriminator 2 view .LVU79
 338 0090 2068     		ldr	r0, [r4]	@ float
 339 0092 FFF7FEFF 		bl	__aeabi_fadd
 340              	.LVL46:
 341 0096 2060     		str	r0, [r4]	@ float
 107:Core/Src/main.c ****     {
 342              		.loc 1 107 29 is_stmt 1 discriminator 2 view .LVU80
 107:Core/Src/main.c ****     {
 343              		.loc 1 107 30 is_stmt 0 discriminator 2 view .LVU81
 344 0098 0135     		adds	r5, r5, #1
 345              	.LVL47:
 346              	.L19:
 107:Core/Src/main.c ****     {
 347              		.loc 1 107 21 is_stmt 1 discriminator 1 view .LVU82
 107:Core/Src/main.c ****     {
 348              		.loc 1 107 5 is_stmt 0 discriminator 1 view .LVU83
 349 009a 132D     		cmp	r5, #19
 350 009c 0FDC     		bgt	.L18
 109:Core/Src/main.c ****         temp += 360;
 351              		.loc 1 109 7 is_stmt 1 view .LVU84
 109:Core/Src/main.c ****         temp += 360;
 352              		.loc 1 109 19 is_stmt 0 view .LVU85
 353 009e FFF7FEFF 		bl	GetYaw
 354              	.LVL48:
 355 00a2 0446     		mov	r4, r0
 356              	.LVL49:
 109:Core/Src/main.c ****         temp += 360;
 357              		.loc 1 109 10 view .LVU86
 358 00a4 0A49     		ldr	r1, .L31+8
 359 00a6 FFF7FEFF 		bl	__aeabi_fcmplt
 360              	.LVL50:
 109:Core/Src/main.c ****         temp += 360;
 361              		.loc 1 109 10 view .LVU87
 362 00aa 0028     		cmp	r0, #0
 363 00ac EAD0     		beq	.L21
 110:Core/Src/main.c ****       angle0 += temp / 20;
 364              		.loc 1 110 9 is_stmt 1 view .LVU88
 110:Core/Src/main.c ****       angle0 += temp / 20;
 365              		.loc 1 110 14 is_stmt 0 view .LVU89
ARM GAS  C:\Users\86183\AppData\Local\Temp\ccxUIlJQ.s 			page 10


 366 00ae 0A49     		ldr	r1, .L31+16
 367 00b0 2046     		mov	r0, r4
 368 00b2 FFF7FEFF 		bl	__aeabi_fadd
 369              	.LVL51:
 370 00b6 0446     		mov	r4, r0
 371              	.LVL52:
 110:Core/Src/main.c ****       angle0 += temp / 20;
 372              		.loc 1 110 14 view .LVU90
 373 00b8 E4E7     		b	.L21
 374              	.LVL53:
 375              	.L26:
 107:Core/Src/main.c ****     {
 376              		.loc 1 107 14 view .LVU91
 377 00ba 0125     		movs	r5, #1
 378 00bc EDE7     		b	.L19
 379              	.LVL54:
 380              	.L18:
 107:Core/Src/main.c ****     {
 381              		.loc 1 107 14 view .LVU92
 382              	.LBE6:
 116:Core/Src/main.c ****   absoluteAngle = angle0;
 383              		.loc 1 116 3 is_stmt 1 view .LVU93
 384              		.loc 1 116 17 is_stmt 0 view .LVU94
 385 00be 034B     		ldr	r3, .L31+4
 386 00c0 1A68     		ldr	r2, [r3]	@ float
 387 00c2 064B     		ldr	r3, .L31+20
 388 00c4 1A60     		str	r2, [r3]	@ float
 117:Core/Src/main.c **** }
 389              		.loc 1 117 1 view .LVU95
 390 00c6 38BD     		pop	{r3, r4, r5, pc}
 391              	.L32:
 392              		.align	2
 393              	.L31:
 394 00c8 0000A041 		.word	1101004800
 395 00cc 00000000 		.word	.LANCHOR6
 396 00d0 00007042 		.word	1114636288
 397 00d4 00009643 		.word	1133903872
 398 00d8 0000B443 		.word	1135869952
 399 00dc 00000000 		.word	.LANCHOR7
 400              		.cfi_endproc
 401              	.LFE66:
 403              		.section	.text.getAngle,"ax",%progbits
 404              		.align	1
 405              		.global	getAngle
 406              		.syntax unified
 407              		.thumb
 408              		.thumb_func
 409              		.fpu softvfp
 411              	getAngle:
 412              	.LFB67:
 118:Core/Src/main.c **** 
 119:Core/Src/main.c **** float getAngle()
 120:Core/Src/main.c **** {
 413              		.loc 1 120 1 is_stmt 1 view -0
 414              		.cfi_startproc
 415              		@ args = 0, pretend = 0, frame = 0
 416              		@ frame_needed = 0, uses_anonymous_args = 0
ARM GAS  C:\Users\86183\AppData\Local\Temp\ccxUIlJQ.s 			page 11


 417 0000 10B5     		push	{r4, lr}
 418              	.LCFI2:
 419              		.cfi_def_cfa_offset 8
 420              		.cfi_offset 4, -8
 421              		.cfi_offset 14, -4
 121:Core/Src/main.c ****   float temp = GetYaw() - angle0;
 422              		.loc 1 121 3 view .LVU97
 423              		.loc 1 121 16 is_stmt 0 view .LVU98
 424 0002 FFF7FEFF 		bl	GetYaw
 425              	.LVL55:
 426              		.loc 1 121 9 view .LVU99
 427 0006 0E4B     		ldr	r3, .L42
 428 0008 1968     		ldr	r1, [r3]	@ float
 429 000a FFF7FEFF 		bl	__aeabi_fsub
 430              	.LVL56:
 431 000e 0446     		mov	r4, r0
 432              	.LVL57:
 122:Core/Src/main.c ****   return temp > 180 ? temp - 360 : temp < -180 ? temp + 360
 433              		.loc 1 122 3 is_stmt 1 view .LVU100
 434              		.loc 1 122 34 is_stmt 0 view .LVU101
 435 0010 0C49     		ldr	r1, .L42+4
 436 0012 FFF7FEFF 		bl	__aeabi_fcmpgt
 437              	.LVL58:
 438              		.loc 1 122 34 view .LVU102
 439 0016 30B1     		cbz	r0, .L40
 440              		.loc 1 122 34 discriminator 1 view .LVU103
 441 0018 0B49     		ldr	r1, .L42+8
 442 001a 2046     		mov	r0, r4
 443 001c FFF7FEFF 		bl	__aeabi_fsub
 444              	.LVL59:
 445 0020 0446     		mov	r4, r0
 446              	.LVL60:
 447              	.L33:
 123:Core/Src/main.c ****                                                : temp;
 124:Core/Src/main.c **** }
 448              		.loc 1 124 1 view .LVU104
 449 0022 2046     		mov	r0, r4
 450 0024 10BD     		pop	{r4, pc}
 451              	.LVL61:
 452              	.L40:
 123:Core/Src/main.c ****                                                : temp;
 453              		.loc 1 123 48 view .LVU105
 454 0026 0949     		ldr	r1, .L42+12
 455 0028 2046     		mov	r0, r4
 456 002a FFF7FEFF 		bl	__aeabi_fcmplt
 457              	.LVL62:
 458 002e 0028     		cmp	r0, #0
 459 0030 F7D0     		beq	.L33
 123:Core/Src/main.c ****                                                : temp;
 460              		.loc 1 123 48 discriminator 1 view .LVU106
 461 0032 0549     		ldr	r1, .L42+8
 462 0034 2046     		mov	r0, r4
 463 0036 FFF7FEFF 		bl	__aeabi_fadd
 464              	.LVL63:
 465 003a 0446     		mov	r4, r0
 466              	.LVL64:
 122:Core/Src/main.c ****   return temp > 180 ? temp - 360 : temp < -180 ? temp + 360
ARM GAS  C:\Users\86183\AppData\Local\Temp\ccxUIlJQ.s 			page 12


 467              		.loc 1 122 34 discriminator 1 view .LVU107
 468 003c F1E7     		b	.L33
 469              	.L43:
 470 003e 00BF     		.align	2
 471              	.L42:
 472 0040 00000000 		.word	.LANCHOR6
 473 0044 00003443 		.word	1127481344
 474 0048 0000B443 		.word	1135869952
 475 004c 000034C3 		.word	-1020002304
 476              		.cfi_endproc
 477              	.LFE67:
 479              		.section	.text.Set_Left_Direction,"ax",%progbits
 480              		.align	1
 481              		.global	Set_Left_Direction
 482              		.syntax unified
 483              		.thumb
 484              		.thumb_func
 485              		.fpu softvfp
 487              	Set_Left_Direction:
 488              	.LVL65:
 489              	.LFB68:
 125:Core/Src/main.c **** 
 126:Core/Src/main.c **** void Set_Left_Direction(int direction)
 127:Core/Src/main.c **** {
 490              		.loc 1 127 1 is_stmt 1 view -0
 491              		.cfi_startproc
 492              		@ args = 0, pretend = 0, frame = 0
 493              		@ frame_needed = 0, uses_anonymous_args = 0
 494              		.loc 1 127 1 is_stmt 0 view .LVU109
 495 0000 38B5     		push	{r3, r4, r5, lr}
 496              	.LCFI3:
 497              		.cfi_def_cfa_offset 16
 498              		.cfi_offset 3, -16
 499              		.cfi_offset 4, -12
 500              		.cfi_offset 5, -8
 501              		.cfi_offset 14, -4
 502 0002 0446     		mov	r4, r0
 128:Core/Src/main.c ****   HAL_GPIO_WritePin(IN1A_GPIO_Port, IN1A_Pin, RESET);
 503              		.loc 1 128 3 is_stmt 1 view .LVU110
 504 0004 1B4D     		ldr	r5, .L50
 505 0006 0022     		movs	r2, #0
 506 0008 4FF48051 		mov	r1, #4096
 507 000c 2846     		mov	r0, r5
 508              	.LVL66:
 509              		.loc 1 128 3 is_stmt 0 view .LVU111
 510 000e FFF7FEFF 		bl	HAL_GPIO_WritePin
 511              	.LVL67:
 129:Core/Src/main.c ****   HAL_GPIO_WritePin(IN1B_GPIO_Port, IN1B_Pin, RESET);
 512              		.loc 1 129 3 is_stmt 1 view .LVU112
 513 0012 0022     		movs	r2, #0
 514 0014 4FF40061 		mov	r1, #2048
 515 0018 2846     		mov	r0, r5
 516 001a FFF7FEFF 		bl	HAL_GPIO_WritePin
 517              	.LVL68:
 130:Core/Src/main.c ****   HAL_GPIO_WritePin(IN2A_GPIO_Port, IN2A_Pin, RESET);
 518              		.loc 1 130 3 view .LVU113
 519 001e A5F58065 		sub	r5, r5, #1024
ARM GAS  C:\Users\86183\AppData\Local\Temp\ccxUIlJQ.s 			page 13


 520 0022 0022     		movs	r2, #0
 521 0024 0121     		movs	r1, #1
 522 0026 2846     		mov	r0, r5
 523 0028 FFF7FEFF 		bl	HAL_GPIO_WritePin
 524              	.LVL69:
 131:Core/Src/main.c ****   HAL_GPIO_WritePin(IN2B_GPIO_Port, IN2B_Pin, RESET);
 525              		.loc 1 131 3 view .LVU114
 526 002c 0022     		movs	r2, #0
 527 002e 0221     		movs	r1, #2
 528 0030 2846     		mov	r0, r5
 529 0032 FFF7FEFF 		bl	HAL_GPIO_WritePin
 530              	.LVL70:
 132:Core/Src/main.c ****   if (direction == 1)
 531              		.loc 1 132 3 view .LVU115
 532              		.loc 1 132 6 is_stmt 0 view .LVU116
 533 0036 012C     		cmp	r4, #1
 534 0038 03D0     		beq	.L48
 133:Core/Src/main.c ****   {
 134:Core/Src/main.c ****     HAL_GPIO_WritePin(IN1A_GPIO_Port, IN1A_Pin, SET);
 135:Core/Src/main.c ****     HAL_GPIO_WritePin(IN2B_GPIO_Port, IN2B_Pin, SET);
 136:Core/Src/main.c ****   }
 137:Core/Src/main.c ****   else if (direction == -1)
 535              		.loc 1 137 8 is_stmt 1 view .LVU117
 536              		.loc 1 137 11 is_stmt 0 view .LVU118
 537 003a B4F1FF3F 		cmp	r4, #-1
 538 003e 0CD0     		beq	.L49
 539              	.L44:
 138:Core/Src/main.c ****   {
 139:Core/Src/main.c ****     HAL_GPIO_WritePin(IN1B_GPIO_Port, IN1B_Pin, SET);
 140:Core/Src/main.c ****     HAL_GPIO_WritePin(IN2A_GPIO_Port, IN2A_Pin, SET);
 141:Core/Src/main.c ****   }
 142:Core/Src/main.c **** }
 540              		.loc 1 142 1 view .LVU119
 541 0040 38BD     		pop	{r3, r4, r5, pc}
 542              	.LVL71:
 543              	.L48:
 134:Core/Src/main.c ****     HAL_GPIO_WritePin(IN2B_GPIO_Port, IN2B_Pin, SET);
 544              		.loc 1 134 5 is_stmt 1 view .LVU120
 545 0042 0122     		movs	r2, #1
 546 0044 4FF48051 		mov	r1, #4096
 547 0048 0A48     		ldr	r0, .L50
 548 004a FFF7FEFF 		bl	HAL_GPIO_WritePin
 549              	.LVL72:
 135:Core/Src/main.c ****   }
 550              		.loc 1 135 5 view .LVU121
 551 004e 0122     		movs	r2, #1
 552 0050 0221     		movs	r1, #2
 553 0052 2846     		mov	r0, r5
 554 0054 FFF7FEFF 		bl	HAL_GPIO_WritePin
 555              	.LVL73:
 556 0058 F2E7     		b	.L44
 557              	.L49:
 139:Core/Src/main.c ****     HAL_GPIO_WritePin(IN2A_GPIO_Port, IN2A_Pin, SET);
 558              		.loc 1 139 5 view .LVU122
 559 005a 0122     		movs	r2, #1
 560 005c 4FF40061 		mov	r1, #2048
 561 0060 0448     		ldr	r0, .L50
ARM GAS  C:\Users\86183\AppData\Local\Temp\ccxUIlJQ.s 			page 14


 562 0062 FFF7FEFF 		bl	HAL_GPIO_WritePin
 563              	.LVL74:
 140:Core/Src/main.c ****   }
 564              		.loc 1 140 5 view .LVU123
 565 0066 0122     		movs	r2, #1
 566 0068 1146     		mov	r1, r2
 567 006a 0348     		ldr	r0, .L50+4
 568 006c FFF7FEFF 		bl	HAL_GPIO_WritePin
 569              	.LVL75:
 570              		.loc 1 142 1 is_stmt 0 view .LVU124
 571 0070 E6E7     		b	.L44
 572              	.L51:
 573 0072 00BF     		.align	2
 574              	.L50:
 575 0074 00100140 		.word	1073811456
 576 0078 000C0140 		.word	1073810432
 577              		.cfi_endproc
 578              	.LFE68:
 580              		.section	.text.Set_Right_Direction,"ax",%progbits
 581              		.align	1
 582              		.global	Set_Right_Direction
 583              		.syntax unified
 584              		.thumb
 585              		.thumb_func
 586              		.fpu softvfp
 588              	Set_Right_Direction:
 589              	.LVL76:
 590              	.LFB69:
 143:Core/Src/main.c **** 
 144:Core/Src/main.c **** void Set_Right_Direction(int direction)
 145:Core/Src/main.c **** {
 591              		.loc 1 145 1 is_stmt 1 view -0
 592              		.cfi_startproc
 593              		@ args = 0, pretend = 0, frame = 0
 594              		@ frame_needed = 0, uses_anonymous_args = 0
 595              		.loc 1 145 1 is_stmt 0 view .LVU126
 596 0000 38B5     		push	{r3, r4, r5, lr}
 597              	.LCFI4:
 598              		.cfi_def_cfa_offset 16
 599              		.cfi_offset 3, -16
 600              		.cfi_offset 4, -12
 601              		.cfi_offset 5, -8
 602              		.cfi_offset 14, -4
 603 0002 0446     		mov	r4, r0
 146:Core/Src/main.c ****   HAL_GPIO_WritePin(IN3A_GPIO_Port, IN3A_Pin, RESET);
 604              		.loc 1 146 3 is_stmt 1 view .LVU127
 605 0004 1C4D     		ldr	r5, .L58
 606 0006 0022     		movs	r2, #0
 607 0008 4FF40051 		mov	r1, #8192
 608 000c 2846     		mov	r0, r5
 609              	.LVL77:
 610              		.loc 1 146 3 is_stmt 0 view .LVU128
 611 000e FFF7FEFF 		bl	HAL_GPIO_WritePin
 612              	.LVL78:
 147:Core/Src/main.c ****   HAL_GPIO_WritePin(IN3B_GPIO_Port, IN3B_Pin, RESET);
 613              		.loc 1 147 3 is_stmt 1 view .LVU129
 614 0012 0022     		movs	r2, #0
ARM GAS  C:\Users\86183\AppData\Local\Temp\ccxUIlJQ.s 			page 15


 615 0014 4FF48041 		mov	r1, #16384
 616 0018 2846     		mov	r0, r5
 617 001a FFF7FEFF 		bl	HAL_GPIO_WritePin
 618              	.LVL79:
 148:Core/Src/main.c ****   HAL_GPIO_WritePin(IN4A_GPIO_Port, IN4A_Pin, RESET);
 619              		.loc 1 148 3 view .LVU130
 620 001e 0022     		movs	r2, #0
 621 0020 4FF48061 		mov	r1, #1024
 622 0024 1548     		ldr	r0, .L58+4
 623 0026 FFF7FEFF 		bl	HAL_GPIO_WritePin
 624              	.LVL80:
 149:Core/Src/main.c ****   HAL_GPIO_WritePin(IN4B_GPIO_Port, IN4B_Pin, RESET);
 625              		.loc 1 149 3 view .LVU131
 626 002a 0022     		movs	r2, #0
 627 002c 4FF40041 		mov	r1, #32768
 628 0030 1348     		ldr	r0, .L58+8
 629 0032 FFF7FEFF 		bl	HAL_GPIO_WritePin
 630              	.LVL81:
 150:Core/Src/main.c ****   if (direction == 1)
 631              		.loc 1 150 3 view .LVU132
 632              		.loc 1 150 6 is_stmt 0 view .LVU133
 633 0036 012C     		cmp	r4, #1
 634 0038 03D0     		beq	.L56
 151:Core/Src/main.c ****   {
 152:Core/Src/main.c ****     HAL_GPIO_WritePin(IN3A_GPIO_Port, IN3A_Pin, SET);
 153:Core/Src/main.c ****     HAL_GPIO_WritePin(IN4B_GPIO_Port, IN4B_Pin, SET);
 154:Core/Src/main.c ****   }
 155:Core/Src/main.c ****   else if (direction == -1)
 635              		.loc 1 155 8 is_stmt 1 view .LVU134
 636              		.loc 1 155 11 is_stmt 0 view .LVU135
 637 003a B4F1FF3F 		cmp	r4, #-1
 638 003e 0DD0     		beq	.L57
 639              	.L52:
 156:Core/Src/main.c ****   {
 157:Core/Src/main.c ****     HAL_GPIO_WritePin(IN3B_GPIO_Port, IN3B_Pin, SET);
 158:Core/Src/main.c ****     HAL_GPIO_WritePin(IN4A_GPIO_Port, IN4A_Pin, SET);
 159:Core/Src/main.c ****   }
 160:Core/Src/main.c **** }
 640              		.loc 1 160 1 view .LVU136
 641 0040 38BD     		pop	{r3, r4, r5, pc}
 642              	.LVL82:
 643              	.L56:
 152:Core/Src/main.c ****     HAL_GPIO_WritePin(IN4B_GPIO_Port, IN4B_Pin, SET);
 644              		.loc 1 152 5 is_stmt 1 view .LVU137
 645 0042 0122     		movs	r2, #1
 646 0044 4FF40051 		mov	r1, #8192
 647 0048 2846     		mov	r0, r5
 648 004a FFF7FEFF 		bl	HAL_GPIO_WritePin
 649              	.LVL83:
 153:Core/Src/main.c ****   }
 650              		.loc 1 153 5 view .LVU138
 651 004e 0122     		movs	r2, #1
 652 0050 4FF40041 		mov	r1, #32768
 653 0054 0A48     		ldr	r0, .L58+8
 654 0056 FFF7FEFF 		bl	HAL_GPIO_WritePin
 655              	.LVL84:
 656 005a F1E7     		b	.L52
ARM GAS  C:\Users\86183\AppData\Local\Temp\ccxUIlJQ.s 			page 16


 657              	.L57:
 157:Core/Src/main.c ****     HAL_GPIO_WritePin(IN4A_GPIO_Port, IN4A_Pin, SET);
 658              		.loc 1 157 5 view .LVU139
 659 005c 0122     		movs	r2, #1
 660 005e 4FF48041 		mov	r1, #16384
 661 0062 0548     		ldr	r0, .L58
 662 0064 FFF7FEFF 		bl	HAL_GPIO_WritePin
 663              	.LVL85:
 158:Core/Src/main.c ****   }
 664              		.loc 1 158 5 view .LVU140
 665 0068 0122     		movs	r2, #1
 666 006a 4FF48061 		mov	r1, #1024
 667 006e 0348     		ldr	r0, .L58+4
 668 0070 FFF7FEFF 		bl	HAL_GPIO_WritePin
 669              	.LVL86:
 670              		.loc 1 160 1 is_stmt 0 view .LVU141
 671 0074 E4E7     		b	.L52
 672              	.L59:
 673 0076 00BF     		.align	2
 674              	.L58:
 675 0078 000C0140 		.word	1073810432
 676 007c 00100140 		.word	1073811456
 677 0080 00080140 		.word	1073809408
 678              		.cfi_endproc
 679              	.LFE69:
 681              		.section	.text.Set_Speed,"ax",%progbits
 682              		.align	1
 683              		.global	Set_Speed
 684              		.syntax unified
 685              		.thumb
 686              		.thumb_func
 687              		.fpu softvfp
 689              	Set_Speed:
 690              	.LVL87:
 691              	.LFB70:
 161:Core/Src/main.c **** 
 162:Core/Src/main.c **** void Set_Speed(float speed, int i) { target[i] = speed; }
 692              		.loc 1 162 36 is_stmt 1 view -0
 693              		.cfi_startproc
 694              		@ args = 0, pretend = 0, frame = 0
 695              		@ frame_needed = 0, uses_anonymous_args = 0
 696              		@ link register save eliminated.
 697              		.loc 1 162 38 view .LVU143
 698              		.loc 1 162 48 is_stmt 0 view .LVU144
 699 0000 014B     		ldr	r3, .L61
 700 0002 43F82100 		str	r0, [r3, r1, lsl #2]	@ float
 701              		.loc 1 162 57 view .LVU145
 702 0006 7047     		bx	lr
 703              	.L62:
 704              		.align	2
 705              	.L61:
 706 0008 00000000 		.word	.LANCHOR8
 707              		.cfi_endproc
 708              	.LFE70:
 710              		.section	.text.Add_Angle,"ax",%progbits
 711              		.align	1
 712              		.global	Add_Angle
ARM GAS  C:\Users\86183\AppData\Local\Temp\ccxUIlJQ.s 			page 17


 713              		.syntax unified
 714              		.thumb
 715              		.thumb_func
 716              		.fpu softvfp
 718              	Add_Angle:
 719              	.LVL88:
 720              	.LFB71:
 163:Core/Src/main.c **** 
 164:Core/Src/main.c **** float Add_Angle(float angleA, float angleB)
 165:Core/Src/main.c **** {
 721              		.loc 1 165 1 is_stmt 1 view -0
 722              		.cfi_startproc
 723              		@ args = 0, pretend = 0, frame = 0
 724              		@ frame_needed = 0, uses_anonymous_args = 0
 725              		.loc 1 165 1 is_stmt 0 view .LVU147
 726 0000 10B5     		push	{r4, lr}
 727              	.LCFI5:
 728              		.cfi_def_cfa_offset 8
 729              		.cfi_offset 4, -8
 730              		.cfi_offset 14, -4
 166:Core/Src/main.c ****   float result = angleA + angleB;
 731              		.loc 1 166 3 is_stmt 1 view .LVU148
 732              		.loc 1 166 9 is_stmt 0 view .LVU149
 733 0002 FFF7FEFF 		bl	__aeabi_fadd
 734              	.LVL89:
 735              		.loc 1 166 9 view .LVU150
 736 0006 0446     		mov	r4, r0
 737              	.LVL90:
 167:Core/Src/main.c ****   return result < -180 ? result + 360 : result > 180 ? result - 360
 738              		.loc 1 167 3 is_stmt 1 view .LVU151
 739              		.loc 1 167 39 is_stmt 0 view .LVU152
 740 0008 0B49     		ldr	r1, .L72
 741 000a FFF7FEFF 		bl	__aeabi_fcmplt
 742              	.LVL91:
 743              		.loc 1 167 39 view .LVU153
 744 000e 30B1     		cbz	r0, .L70
 745              		.loc 1 167 39 discriminator 1 view .LVU154
 746 0010 0A49     		ldr	r1, .L72+4
 747 0012 2046     		mov	r0, r4
 748 0014 FFF7FEFF 		bl	__aeabi_fadd
 749              	.LVL92:
 750 0018 0446     		mov	r4, r0
 751              	.LVL93:
 752              	.L63:
 168:Core/Src/main.c ****                                                      : result;
 169:Core/Src/main.c **** }
 753              		.loc 1 169 1 view .LVU155
 754 001a 2046     		mov	r0, r4
 755 001c 10BD     		pop	{r4, pc}
 756              	.LVL94:
 757              	.L70:
 168:Core/Src/main.c ****                                                      : result;
 758              		.loc 1 168 54 view .LVU156
 759 001e 0849     		ldr	r1, .L72+8
 760 0020 2046     		mov	r0, r4
 761 0022 FFF7FEFF 		bl	__aeabi_fcmpgt
 762              	.LVL95:
ARM GAS  C:\Users\86183\AppData\Local\Temp\ccxUIlJQ.s 			page 18


 763 0026 0028     		cmp	r0, #0
 764 0028 F7D0     		beq	.L63
 168:Core/Src/main.c ****                                                      : result;
 765              		.loc 1 168 54 discriminator 1 view .LVU157
 766 002a 0449     		ldr	r1, .L72+4
 767 002c 2046     		mov	r0, r4
 768 002e FFF7FEFF 		bl	__aeabi_fsub
 769              	.LVL96:
 770 0032 0446     		mov	r4, r0
 771              	.LVL97:
 167:Core/Src/main.c ****   return result < -180 ? result + 360 : result > 180 ? result - 360
 772              		.loc 1 167 39 discriminator 1 view .LVU158
 773 0034 F1E7     		b	.L63
 774              	.L73:
 775 0036 00BF     		.align	2
 776              	.L72:
 777 0038 000034C3 		.word	-1020002304
 778 003c 0000B443 		.word	1135869952
 779 0040 00003443 		.word	1127481344
 780              		.cfi_endproc
 781              	.LFE71:
 783              		.section	.text.Turn,"ax",%progbits
 784              		.align	1
 785              		.global	Turn
 786              		.syntax unified
 787              		.thumb
 788              		.thumb_func
 789              		.fpu softvfp
 791              	Turn:
 792              	.LVL98:
 793              	.LFB72:
 170:Core/Src/main.c **** 
 171:Core/Src/main.c **** void Turn(float angle)
 172:Core/Src/main.c **** {
 794              		.loc 1 172 1 is_stmt 1 view -0
 795              		.cfi_startproc
 796              		@ args = 0, pretend = 0, frame = 0
 797              		@ frame_needed = 0, uses_anonymous_args = 0
 798              		.loc 1 172 1 is_stmt 0 view .LVU160
 799 0000 38B5     		push	{r3, r4, r5, lr}
 800              	.LCFI6:
 801              		.cfi_def_cfa_offset 16
 802              		.cfi_offset 3, -16
 803              		.cfi_offset 4, -12
 804              		.cfi_offset 5, -8
 805              		.cfi_offset 14, -4
 806 0002 0446     		mov	r4, r0
 173:Core/Src/main.c ****   Set_Right_Direction(0);
 807              		.loc 1 173 3 is_stmt 1 view .LVU161
 808 0004 0020     		movs	r0, #0
 809              	.LVL99:
 810              		.loc 1 173 3 is_stmt 0 view .LVU162
 811 0006 FFF7FEFF 		bl	Set_Right_Direction
 812              	.LVL100:
 174:Core/Src/main.c ****   Set_Left_Direction(0);
 813              		.loc 1 174 3 is_stmt 1 view .LVU163
 814 000a 0020     		movs	r0, #0
ARM GAS  C:\Users\86183\AppData\Local\Temp\ccxUIlJQ.s 			page 19


 815 000c FFF7FEFF 		bl	Set_Left_Direction
 816              	.LVL101:
 175:Core/Src/main.c ****   HAL_Delay(500);
 817              		.loc 1 175 3 view .LVU164
 818 0010 4FF4FA70 		mov	r0, #500
 819 0014 FFF7FEFF 		bl	HAL_Delay
 820              	.LVL102:
 176:Core/Src/main.c ****   angle0 = Add_Angle(angle0, angle);
 821              		.loc 1 176 3 view .LVU165
 822              		.loc 1 176 12 is_stmt 0 view .LVU166
 823 0018 294D     		ldr	r5, .L89
 824 001a 2146     		mov	r1, r4
 825 001c 2868     		ldr	r0, [r5]	@ float
 826 001e FFF7FEFF 		bl	Add_Angle
 827              	.LVL103:
 828              		.loc 1 176 10 view .LVU167
 829 0022 2860     		str	r0, [r5]	@ float
 177:Core/Src/main.c ****   if (angle > 0)
 830              		.loc 1 177 3 is_stmt 1 view .LVU168
 831              		.loc 1 177 6 is_stmt 0 view .LVU169
 832 0024 0021     		movs	r1, #0
 833 0026 2046     		mov	r0, r4
 834 0028 FFF7FEFF 		bl	__aeabi_fcmpgt
 835              	.LVL104:
 836 002c 40B3     		cbz	r0, .L87
 178:Core/Src/main.c ****   {
 179:Core/Src/main.c ****     Set_Left_Direction(-1);
 837              		.loc 1 179 5 is_stmt 1 view .LVU170
 838 002e 4FF0FF30 		mov	r0, #-1
 839 0032 FFF7FEFF 		bl	Set_Left_Direction
 840              	.LVL105:
 180:Core/Src/main.c ****     Set_Right_Direction(1);
 841              		.loc 1 180 5 view .LVU171
 842 0036 0120     		movs	r0, #1
 843 0038 FFF7FEFF 		bl	Set_Right_Direction
 844              	.LVL106:
 181:Core/Src/main.c ****     for (int i = 0; i < 4; i++)
 845              		.loc 1 181 5 view .LVU172
 846              	.LBB7:
 847              		.loc 1 181 10 view .LVU173
 848              		.loc 1 181 14 is_stmt 0 view .LVU174
 849 003c 0024     		movs	r4, #0
 850              	.LVL107:
 851              	.L77:
 852              		.loc 1 181 21 is_stmt 1 discriminator 1 view .LVU175
 853              		.loc 1 181 5 is_stmt 0 discriminator 1 view .LVU176
 854 003e 032C     		cmp	r4, #3
 855 0040 05DC     		bgt	.L79
 182:Core/Src/main.c ****       Set_Speed(15, i);
 856              		.loc 1 182 7 is_stmt 1 discriminator 3 view .LVU177
 857 0042 2146     		mov	r1, r4
 858 0044 1F48     		ldr	r0, .L89+4
 859 0046 FFF7FEFF 		bl	Set_Speed
 860              	.LVL108:
 181:Core/Src/main.c ****     for (int i = 0; i < 4; i++)
 861              		.loc 1 181 28 discriminator 3 view .LVU178
 181:Core/Src/main.c ****     for (int i = 0; i < 4; i++)
ARM GAS  C:\Users\86183\AppData\Local\Temp\ccxUIlJQ.s 			page 20


 862              		.loc 1 181 29 is_stmt 0 discriminator 3 view .LVU179
 863 004a 0134     		adds	r4, r4, #1
 864              	.LVL109:
 181:Core/Src/main.c ****     for (int i = 0; i < 4; i++)
 865              		.loc 1 181 29 discriminator 3 view .LVU180
 866 004c F7E7     		b	.L77
 867              	.L79:
 181:Core/Src/main.c ****     for (int i = 0; i < 4; i++)
 868              		.loc 1 181 29 discriminator 3 view .LVU181
 869              	.LBE7:
 183:Core/Src/main.c ****     while (getAngle() < -Turn_Angle_Bias)
 184:Core/Src/main.c ****       ;
 870              		.loc 1 184 7 is_stmt 1 discriminator 1 view .LVU182
 183:Core/Src/main.c ****     while (getAngle() < -Turn_Angle_Bias)
 871              		.loc 1 183 11 discriminator 1 view .LVU183
 183:Core/Src/main.c ****     while (getAngle() < -Turn_Angle_Bias)
 872              		.loc 1 183 12 is_stmt 0 discriminator 1 view .LVU184
 873 004e FFF7FEFF 		bl	getAngle
 874              	.LVL110:
 183:Core/Src/main.c ****     while (getAngle() < -Turn_Angle_Bias)
 875              		.loc 1 183 11 discriminator 1 view .LVU185
 876 0052 1D49     		ldr	r1, .L89+8
 877 0054 FFF7FEFF 		bl	__aeabi_fcmplt
 878              	.LVL111:
 879 0058 0028     		cmp	r0, #0
 880 005a F8D1     		bne	.L79
 881              	.LVL112:
 882              	.L80:
 185:Core/Src/main.c ****   }
 186:Core/Src/main.c ****   else
 187:Core/Src/main.c ****   {
 188:Core/Src/main.c ****     Set_Left_Direction(1);
 189:Core/Src/main.c ****     Set_Right_Direction(-1);
 190:Core/Src/main.c ****     for (int i = 0; i < 4; i++)
 191:Core/Src/main.c ****       Set_Speed(15, i);
 192:Core/Src/main.c ****     while (getAngle() > Turn_Angle_Bias)
 193:Core/Src/main.c ****       ;
 194:Core/Src/main.c ****   }
 195:Core/Src/main.c ****   Set_Right_Direction(0);
 883              		.loc 1 195 3 is_stmt 1 view .LVU186
 884 005c 0020     		movs	r0, #0
 885 005e FFF7FEFF 		bl	Set_Right_Direction
 886              	.LVL113:
 196:Core/Src/main.c ****   Set_Left_Direction(0);
 887              		.loc 1 196 3 view .LVU187
 888 0062 0020     		movs	r0, #0
 889 0064 FFF7FEFF 		bl	Set_Left_Direction
 890              	.LVL114:
 197:Core/Src/main.c ****   HAL_Delay(500);
 891              		.loc 1 197 3 view .LVU188
 892 0068 4FF4FA70 		mov	r0, #500
 893 006c FFF7FEFF 		bl	HAL_Delay
 894              	.LVL115:
 198:Core/Src/main.c ****   Set_Left_Direction(1);
 895              		.loc 1 198 3 view .LVU189
 896 0070 0120     		movs	r0, #1
 897 0072 FFF7FEFF 		bl	Set_Left_Direction
ARM GAS  C:\Users\86183\AppData\Local\Temp\ccxUIlJQ.s 			page 21


 898              	.LVL116:
 199:Core/Src/main.c ****   Set_Right_Direction(1);
 899              		.loc 1 199 3 view .LVU190
 900 0076 0120     		movs	r0, #1
 901 0078 FFF7FEFF 		bl	Set_Right_Direction
 902              	.LVL117:
 200:Core/Src/main.c ****   for (int i = 0; i < 4; i++)
 903              		.loc 1 200 3 view .LVU191
 904              	.LBB8:
 905              		.loc 1 200 8 view .LVU192
 906              		.loc 1 200 12 is_stmt 0 view .LVU193
 907 007c 0024     		movs	r4, #0
 908              		.loc 1 200 3 view .LVU194
 909 007e 1CE0     		b	.L84
 910              	.LVL118:
 911              	.L87:
 912              		.loc 1 200 3 view .LVU195
 913              	.LBE8:
 188:Core/Src/main.c ****     Set_Right_Direction(-1);
 914              		.loc 1 188 5 is_stmt 1 view .LVU196
 915 0080 0120     		movs	r0, #1
 916 0082 FFF7FEFF 		bl	Set_Left_Direction
 917              	.LVL119:
 189:Core/Src/main.c ****     for (int i = 0; i < 4; i++)
 918              		.loc 1 189 5 view .LVU197
 919 0086 4FF0FF30 		mov	r0, #-1
 920 008a FFF7FEFF 		bl	Set_Right_Direction
 921              	.LVL120:
 190:Core/Src/main.c ****       Set_Speed(15, i);
 922              		.loc 1 190 5 view .LVU198
 923              	.LBB9:
 190:Core/Src/main.c ****       Set_Speed(15, i);
 924              		.loc 1 190 10 view .LVU199
 190:Core/Src/main.c ****       Set_Speed(15, i);
 925              		.loc 1 190 14 is_stmt 0 view .LVU200
 926 008e 0024     		movs	r4, #0
 927              	.LVL121:
 928              	.L81:
 190:Core/Src/main.c ****       Set_Speed(15, i);
 929              		.loc 1 190 21 is_stmt 1 discriminator 1 view .LVU201
 190:Core/Src/main.c ****       Set_Speed(15, i);
 930              		.loc 1 190 5 is_stmt 0 discriminator 1 view .LVU202
 931 0090 032C     		cmp	r4, #3
 932 0092 05DC     		bgt	.L83
 191:Core/Src/main.c ****     while (getAngle() > Turn_Angle_Bias)
 933              		.loc 1 191 7 is_stmt 1 discriminator 3 view .LVU203
 934 0094 2146     		mov	r1, r4
 935 0096 0B48     		ldr	r0, .L89+4
 936 0098 FFF7FEFF 		bl	Set_Speed
 937              	.LVL122:
 190:Core/Src/main.c ****       Set_Speed(15, i);
 938              		.loc 1 190 28 discriminator 3 view .LVU204
 190:Core/Src/main.c ****       Set_Speed(15, i);
 939              		.loc 1 190 29 is_stmt 0 discriminator 3 view .LVU205
 940 009c 0134     		adds	r4, r4, #1
 941              	.LVL123:
 190:Core/Src/main.c ****       Set_Speed(15, i);
ARM GAS  C:\Users\86183\AppData\Local\Temp\ccxUIlJQ.s 			page 22


 942              		.loc 1 190 29 discriminator 3 view .LVU206
 943 009e F7E7     		b	.L81
 944              	.L83:
 190:Core/Src/main.c ****       Set_Speed(15, i);
 945              		.loc 1 190 29 discriminator 3 view .LVU207
 946              	.LBE9:
 193:Core/Src/main.c ****   }
 947              		.loc 1 193 7 is_stmt 1 discriminator 1 view .LVU208
 192:Core/Src/main.c ****       ;
 948              		.loc 1 192 11 discriminator 1 view .LVU209
 192:Core/Src/main.c ****       ;
 949              		.loc 1 192 12 is_stmt 0 discriminator 1 view .LVU210
 950 00a0 FFF7FEFF 		bl	getAngle
 951              	.LVL124:
 192:Core/Src/main.c ****       ;
 952              		.loc 1 192 11 discriminator 1 view .LVU211
 953 00a4 0949     		ldr	r1, .L89+12
 954 00a6 FFF7FEFF 		bl	__aeabi_fcmpgt
 955              	.LVL125:
 956 00aa 0028     		cmp	r0, #0
 957 00ac F8D1     		bne	.L83
 958 00ae D5E7     		b	.L80
 959              	.LVL126:
 960              	.L85:
 961              	.LBB10:
 201:Core/Src/main.c ****     Set_Speed(20, i);
 962              		.loc 1 201 5 is_stmt 1 discriminator 3 view .LVU212
 963 00b0 2146     		mov	r1, r4
 964 00b2 0748     		ldr	r0, .L89+16
 965 00b4 FFF7FEFF 		bl	Set_Speed
 966              	.LVL127:
 200:Core/Src/main.c ****     Set_Speed(20, i);
 967              		.loc 1 200 26 discriminator 3 view .LVU213
 200:Core/Src/main.c ****     Set_Speed(20, i);
 968              		.loc 1 200 27 is_stmt 0 discriminator 3 view .LVU214
 969 00b8 0134     		adds	r4, r4, #1
 970              	.LVL128:
 971              	.L84:
 200:Core/Src/main.c ****     Set_Speed(20, i);
 972              		.loc 1 200 19 is_stmt 1 discriminator 1 view .LVU215
 200:Core/Src/main.c ****     Set_Speed(20, i);
 973              		.loc 1 200 3 is_stmt 0 discriminator 1 view .LVU216
 974 00ba 032C     		cmp	r4, #3
 975 00bc F8DD     		ble	.L85
 976              	.LBE10:
 202:Core/Src/main.c **** }
 977              		.loc 1 202 1 view .LVU217
 978 00be 38BD     		pop	{r3, r4, r5, pc}
 979              	.LVL129:
 980              	.L90:
 981              		.loc 1 202 1 view .LVU218
 982              		.align	2
 983              	.L89:
 984 00c0 00000000 		.word	.LANCHOR6
 985 00c4 00007041 		.word	1097859072
 986 00c8 000020C1 		.word	-1054867456
 987 00cc 00002041 		.word	1092616192
ARM GAS  C:\Users\86183\AppData\Local\Temp\ccxUIlJQ.s 			page 23


 988 00d0 0000A041 		.word	1101004800
 989              		.cfi_endproc
 990              	.LFE72:
 992              		.global	__aeabi_ui2f
 993              		.global	__aeabi_f2d
 994              		.global	__aeabi_dmul
 995              		.global	__aeabi_d2f
 996              		.global	__aeabi_f2iz
 997              		.section	.text.HAL_TIM_PeriodElapsedCallback,"ax",%progbits
 998              		.align	1
 999              		.global	HAL_TIM_PeriodElapsedCallback
 1000              		.syntax unified
 1001              		.thumb
 1002              		.thumb_func
 1003              		.fpu softvfp
 1005              	HAL_TIM_PeriodElapsedCallback:
 1006              	.LVL130:
 1007              	.LFB73:
 203:Core/Src/main.c **** 
 204:Core/Src/main.c **** void HAL_TIM_PeriodElapsedCallback(TIM_HandleTypeDef *htim)
 205:Core/Src/main.c **** {
 1008              		.loc 1 205 1 is_stmt 1 view -0
 1009              		.cfi_startproc
 1010              		@ args = 0, pretend = 0, frame = 0
 1011              		@ frame_needed = 0, uses_anonymous_args = 0
 206:Core/Src/main.c ****   if (htim->Instance == TIM2)
 1012              		.loc 1 206 3 view .LVU220
 1013              		.loc 1 206 11 is_stmt 0 view .LVU221
 1014 0000 0368     		ldr	r3, [r0]
 1015              		.loc 1 206 6 view .LVU222
 1016 0002 B3F1804F 		cmp	r3, #1073741824
 1017 0006 00D0     		beq	.L101
 1018 0008 7047     		bx	lr
 1019              	.L101:
 205:Core/Src/main.c ****   if (htim->Instance == TIM2)
 1020              		.loc 1 205 1 view .LVU223
 1021 000a 2DE9F047 		push	{r4, r5, r6, r7, r8, r9, r10, lr}
 1022              	.LCFI7:
 1023              		.cfi_def_cfa_offset 32
 1024              		.cfi_offset 4, -32
 1025              		.cfi_offset 5, -28
 1026              		.cfi_offset 6, -24
 1027              		.cfi_offset 7, -20
 1028              		.cfi_offset 8, -16
 1029              		.cfi_offset 9, -12
 1030              		.cfi_offset 10, -8
 1031              		.cfi_offset 14, -4
 1032              	.LBB11:
 207:Core/Src/main.c ****   {
 208:Core/Src/main.c ****     unsigned int cnt0 = __HAL_TIM_GetCounter(&htim3);
 1033              		.loc 1 208 5 is_stmt 1 view .LVU224
 1034              		.loc 1 208 25 is_stmt 0 view .LVU225
 1035 000e 544B     		ldr	r3, .L102+8
 1036 0010 D3F800C0 		ldr	ip, [r3]
 1037              		.loc 1 208 18 view .LVU226
 1038 0014 DCF82400 		ldr	r0, [ip, #36]
 1039              	.LVL131:
ARM GAS  C:\Users\86183\AppData\Local\Temp\ccxUIlJQ.s 			page 24


 209:Core/Src/main.c ****     unsigned int cnt1 = __HAL_TIM_GetCounter(&htim4);
 1040              		.loc 1 209 5 is_stmt 1 view .LVU227
 1041              		.loc 1 209 25 is_stmt 0 view .LVU228
 1042 0018 524B     		ldr	r3, .L102+12
 1043 001a 1968     		ldr	r1, [r3]
 1044              		.loc 1 209 18 view .LVU229
 1045 001c 4F6A     		ldr	r7, [r1, #36]
 1046              	.LVL132:
 210:Core/Src/main.c ****     unsigned int cnt2 = __HAL_TIM_GetCounter(&htim5);
 1047              		.loc 1 210 5 is_stmt 1 view .LVU230
 1048              		.loc 1 210 25 is_stmt 0 view .LVU231
 1049 001e 524B     		ldr	r3, .L102+16
 1050 0020 1A68     		ldr	r2, [r3]
 1051              		.loc 1 210 18 view .LVU232
 1052 0022 566A     		ldr	r6, [r2, #36]
 1053              	.LVL133:
 211:Core/Src/main.c ****     unsigned int cnt3 = __HAL_TIM_GetCounter(&htim8);
 1054              		.loc 1 211 5 is_stmt 1 view .LVU233
 1055              		.loc 1 211 25 is_stmt 0 view .LVU234
 1056 0024 514B     		ldr	r3, .L102+20
 1057 0026 1B68     		ldr	r3, [r3]
 1058              		.loc 1 211 18 view .LVU235
 1059 0028 5D6A     		ldr	r5, [r3, #36]
 1060              	.LVL134:
 212:Core/Src/main.c **** 
 213:Core/Src/main.c ****     if (cnt0 > 32676)
 1061              		.loc 1 213 5 is_stmt 1 view .LVU236
 1062              		.loc 1 213 8 is_stmt 0 view .LVU237
 1063 002a 47F6A474 		movw	r4, #32676
 1064 002e A042     		cmp	r0, r4
 1065 0030 02D9     		bls	.L93
 214:Core/Src/main.c ****       cnt0 = 65535 - cnt0;
 1066              		.loc 1 214 7 is_stmt 1 view .LVU238
 1067              		.loc 1 214 12 is_stmt 0 view .LVU239
 1068 0032 C0F57F40 		rsb	r0, r0, #65280
 1069              	.LVL135:
 1070              		.loc 1 214 12 view .LVU240
 1071 0036 FF30     		adds	r0, r0, #255
 1072              	.LVL136:
 1073              	.L93:
 215:Core/Src/main.c ****     if (cnt1 > 32676)
 1074              		.loc 1 215 5 is_stmt 1 view .LVU241
 1075              		.loc 1 215 8 is_stmt 0 view .LVU242
 1076 0038 47F6A474 		movw	r4, #32676
 1077 003c A742     		cmp	r7, r4
 1078 003e 02D9     		bls	.L94
 216:Core/Src/main.c ****       cnt1 = 65535 - cnt1;
 1079              		.loc 1 216 7 is_stmt 1 view .LVU243
 1080              		.loc 1 216 12 is_stmt 0 view .LVU244
 1081 0040 C7F57F47 		rsb	r7, r7, #65280
 1082              	.LVL137:
 1083              		.loc 1 216 12 view .LVU245
 1084 0044 FF37     		adds	r7, r7, #255
 1085              	.LVL138:
 1086              	.L94:
 217:Core/Src/main.c ****     if (cnt2 > 32676)
 1087              		.loc 1 217 5 is_stmt 1 view .LVU246
ARM GAS  C:\Users\86183\AppData\Local\Temp\ccxUIlJQ.s 			page 25


 1088              		.loc 1 217 8 is_stmt 0 view .LVU247
 1089 0046 47F6A474 		movw	r4, #32676
 1090 004a A642     		cmp	r6, r4
 1091 004c 02D9     		bls	.L95
 218:Core/Src/main.c ****       cnt2 = 65535 - cnt2;
 1092              		.loc 1 218 7 is_stmt 1 view .LVU248
 1093              		.loc 1 218 12 is_stmt 0 view .LVU249
 1094 004e C6F57F46 		rsb	r6, r6, #65280
 1095              	.LVL139:
 1096              		.loc 1 218 12 view .LVU250
 1097 0052 FF36     		adds	r6, r6, #255
 1098              	.LVL140:
 1099              	.L95:
 219:Core/Src/main.c ****     if (cnt3 > 32676)
 1100              		.loc 1 219 5 is_stmt 1 view .LVU251
 1101              		.loc 1 219 8 is_stmt 0 view .LVU252
 1102 0054 47F6A474 		movw	r4, #32676
 1103 0058 A542     		cmp	r5, r4
 1104 005a 02D9     		bls	.L96
 220:Core/Src/main.c ****       cnt3 = 65535 - cnt3;
 1105              		.loc 1 220 7 is_stmt 1 view .LVU253
 1106              		.loc 1 220 12 is_stmt 0 view .LVU254
 1107 005c C5F57F45 		rsb	r5, r5, #65280
 1108              	.LVL141:
 1109              		.loc 1 220 12 view .LVU255
 1110 0060 FF35     		adds	r5, r5, #255
 1111              	.LVL142:
 1112              	.L96:
 221:Core/Src/main.c **** 
 222:Core/Src/main.c ****     __HAL_TIM_SetCounter(&htim3, 0);
 1113              		.loc 1 222 5 is_stmt 1 view .LVU256
 1114 0062 0024     		movs	r4, #0
 1115 0064 CCF82440 		str	r4, [ip, #36]
 223:Core/Src/main.c ****     __HAL_TIM_SetCounter(&htim4, 0);
 1116              		.loc 1 223 5 view .LVU257
 1117 0068 4C62     		str	r4, [r1, #36]
 224:Core/Src/main.c ****     __HAL_TIM_SetCounter(&htim5, 0);
 1118              		.loc 1 224 5 view .LVU258
 1119 006a 5462     		str	r4, [r2, #36]
 225:Core/Src/main.c ****     __HAL_TIM_SetCounter(&htim8, 0);
 1120              		.loc 1 225 5 view .LVU259
 1121 006c 5C62     		str	r4, [r3, #36]
 226:Core/Src/main.c **** 
 227:Core/Src/main.c ****     float speed0 = (float)cnt0 * 20 / 532 * 20.4;
 1122              		.loc 1 227 5 view .LVU260
 1123              		.loc 1 227 20 is_stmt 0 view .LVU261
 1124 006e FFF7FEFF 		bl	__aeabi_ui2f
 1125              	.LVL143:
 1126              		.loc 1 227 32 view .LVU262
 1127 0072 3F49     		ldr	r1, .L102+24
 1128 0074 FFF7FEFF 		bl	__aeabi_fmul
 1129              	.LVL144:
 1130              		.loc 1 227 37 view .LVU263
 1131 0078 3E49     		ldr	r1, .L102+28
 1132 007a FFF7FEFF 		bl	__aeabi_fdiv
 1133              	.LVL145:
 1134 007e FFF7FEFF 		bl	__aeabi_f2d
ARM GAS  C:\Users\86183\AppData\Local\Temp\ccxUIlJQ.s 			page 26


 1135              	.LVL146:
 1136              		.loc 1 227 43 view .LVU264
 1137 0082 35A3     		adr	r3, .L102
 1138 0084 D3E90023 		ldrd	r2, [r3]
 1139 0088 FFF7FEFF 		bl	__aeabi_dmul
 1140              	.LVL147:
 1141              		.loc 1 227 11 view .LVU265
 1142 008c FFF7FEFF 		bl	__aeabi_d2f
 1143              	.LVL148:
 1144 0090 8146     		mov	r9, r0
 1145              	.LVL149:
 228:Core/Src/main.c ****     float speed1 = (float)cnt1 * 20 / 531 * 20.4;
 1146              		.loc 1 228 5 is_stmt 1 view .LVU266
 1147              		.loc 1 228 20 is_stmt 0 view .LVU267
 1148 0092 3846     		mov	r0, r7
 1149              	.LVL150:
 1150              		.loc 1 228 20 view .LVU268
 1151 0094 FFF7FEFF 		bl	__aeabi_ui2f
 1152              	.LVL151:
 1153              		.loc 1 228 32 view .LVU269
 1154 0098 3549     		ldr	r1, .L102+24
 1155 009a FFF7FEFF 		bl	__aeabi_fmul
 1156              	.LVL152:
 1157              		.loc 1 228 37 view .LVU270
 1158 009e 3649     		ldr	r1, .L102+32
 1159 00a0 FFF7FEFF 		bl	__aeabi_fdiv
 1160              	.LVL153:
 1161 00a4 FFF7FEFF 		bl	__aeabi_f2d
 1162              	.LVL154:
 1163              		.loc 1 228 43 view .LVU271
 1164 00a8 2BA3     		adr	r3, .L102
 1165 00aa D3E90023 		ldrd	r2, [r3]
 1166 00ae FFF7FEFF 		bl	__aeabi_dmul
 1167              	.LVL155:
 1168              		.loc 1 228 11 view .LVU272
 1169 00b2 FFF7FEFF 		bl	__aeabi_d2f
 1170              	.LVL156:
 1171 00b6 8046     		mov	r8, r0
 1172              	.LVL157:
 229:Core/Src/main.c ****     float speed2 = (float)cnt2 * 20 / 531 * 20.4;
 1173              		.loc 1 229 5 is_stmt 1 view .LVU273
 1174              		.loc 1 229 20 is_stmt 0 view .LVU274
 1175 00b8 3046     		mov	r0, r6
 1176              	.LVL158:
 1177              		.loc 1 229 20 view .LVU275
 1178 00ba FFF7FEFF 		bl	__aeabi_ui2f
 1179              	.LVL159:
 1180              		.loc 1 229 32 view .LVU276
 1181 00be 2C49     		ldr	r1, .L102+24
 1182 00c0 FFF7FEFF 		bl	__aeabi_fmul
 1183              	.LVL160:
 1184              		.loc 1 229 37 view .LVU277
 1185 00c4 2C49     		ldr	r1, .L102+32
 1186 00c6 FFF7FEFF 		bl	__aeabi_fdiv
 1187              	.LVL161:
 1188 00ca FFF7FEFF 		bl	__aeabi_f2d
 1189              	.LVL162:
ARM GAS  C:\Users\86183\AppData\Local\Temp\ccxUIlJQ.s 			page 27


 1190              		.loc 1 229 43 view .LVU278
 1191 00ce 22A3     		adr	r3, .L102
 1192 00d0 D3E90023 		ldrd	r2, [r3]
 1193 00d4 FFF7FEFF 		bl	__aeabi_dmul
 1194              	.LVL163:
 1195              		.loc 1 229 11 view .LVU279
 1196 00d8 FFF7FEFF 		bl	__aeabi_d2f
 1197              	.LVL164:
 1198 00dc 0746     		mov	r7, r0
 1199              	.LVL165:
 230:Core/Src/main.c ****     float speed3 = (float)cnt3 * 20 / 530 * 20.4;
 1200              		.loc 1 230 5 is_stmt 1 view .LVU280
 1201              		.loc 1 230 20 is_stmt 0 view .LVU281
 1202 00de 2846     		mov	r0, r5
 1203              	.LVL166:
 1204              		.loc 1 230 20 view .LVU282
 1205 00e0 FFF7FEFF 		bl	__aeabi_ui2f
 1206              	.LVL167:
 1207              		.loc 1 230 32 view .LVU283
 1208 00e4 2249     		ldr	r1, .L102+24
 1209 00e6 FFF7FEFF 		bl	__aeabi_fmul
 1210              	.LVL168:
 1211              		.loc 1 230 37 view .LVU284
 1212 00ea 2449     		ldr	r1, .L102+36
 1213 00ec FFF7FEFF 		bl	__aeabi_fdiv
 1214              	.LVL169:
 1215 00f0 FFF7FEFF 		bl	__aeabi_f2d
 1216              	.LVL170:
 1217              		.loc 1 230 43 view .LVU285
 1218 00f4 18A3     		adr	r3, .L102
 1219 00f6 D3E90023 		ldrd	r2, [r3]
 1220 00fa FFF7FEFF 		bl	__aeabi_dmul
 1221              	.LVL171:
 1222              		.loc 1 230 11 view .LVU286
 1223 00fe FFF7FEFF 		bl	__aeabi_d2f
 1224              	.LVL172:
 1225 0102 8246     		mov	r10, r0
 1226              	.LVL173:
 231:Core/Src/main.c **** 
 232:Core/Src/main.c ****     int pwm0 = (int)PID(speed0, target[0], 0);
 1227              		.loc 1 232 5 is_stmt 1 view .LVU287
 1228              		.loc 1 232 21 is_stmt 0 view .LVU288
 1229 0104 1E4D     		ldr	r5, .L102+40
 1230              	.LVL174:
 1231              		.loc 1 232 21 view .LVU289
 1232 0106 2246     		mov	r2, r4
 1233 0108 2968     		ldr	r1, [r5]	@ float
 1234 010a 4846     		mov	r0, r9
 1235              	.LVL175:
 1236              		.loc 1 232 21 view .LVU290
 1237 010c FFF7FEFF 		bl	PID
 1238              	.LVL176:
 1239              		.loc 1 232 9 view .LVU291
 1240 0110 FFF7FEFF 		bl	__aeabi_f2iz
 1241              	.LVL177:
 1242 0114 0646     		mov	r6, r0
 1243              	.LVL178:
ARM GAS  C:\Users\86183\AppData\Local\Temp\ccxUIlJQ.s 			page 28


 233:Core/Src/main.c ****     int pwm1 = (int)PID(speed1, target[1], 1);
 1244              		.loc 1 233 5 is_stmt 1 view .LVU292
 1245              		.loc 1 233 21 is_stmt 0 view .LVU293
 1246 0116 0122     		movs	r2, #1
 1247 0118 6968     		ldr	r1, [r5, #4]	@ float
 1248 011a 4046     		mov	r0, r8
 1249              	.LVL179:
 1250              		.loc 1 233 21 view .LVU294
 1251 011c FFF7FEFF 		bl	PID
 1252              	.LVL180:
 1253              		.loc 1 233 9 view .LVU295
 1254 0120 FFF7FEFF 		bl	__aeabi_f2iz
 1255              	.LVL181:
 1256 0124 0446     		mov	r4, r0
 1257              	.LVL182:
 234:Core/Src/main.c ****     int pwm2 = (int)PID(speed2, target[2], 2);
 1258              		.loc 1 234 5 is_stmt 1 view .LVU296
 1259              		.loc 1 234 21 is_stmt 0 view .LVU297
 1260 0126 0222     		movs	r2, #2
 1261 0128 A968     		ldr	r1, [r5, #8]	@ float
 1262 012a 3846     		mov	r0, r7
 1263              	.LVL183:
 1264              		.loc 1 234 21 view .LVU298
 1265 012c FFF7FEFF 		bl	PID
 1266              	.LVL184:
 1267              		.loc 1 234 9 view .LVU299
 1268 0130 FFF7FEFF 		bl	__aeabi_f2iz
 1269              	.LVL185:
 1270 0134 0746     		mov	r7, r0
 1271              	.LVL186:
 235:Core/Src/main.c ****     int pwm3 = (int)PID(speed3, target[3], 3);
 1272              		.loc 1 235 5 is_stmt 1 view .LVU300
 1273              		.loc 1 235 21 is_stmt 0 view .LVU301
 1274 0136 0322     		movs	r2, #3
 1275 0138 E968     		ldr	r1, [r5, #12]	@ float
 1276 013a 5046     		mov	r0, r10
 1277              	.LVL187:
 1278              		.loc 1 235 21 view .LVU302
 1279 013c FFF7FEFF 		bl	PID
 1280              	.LVL188:
 1281              		.loc 1 235 9 view .LVU303
 1282 0140 FFF7FEFF 		bl	__aeabi_f2iz
 1283              	.LVL189:
 236:Core/Src/main.c **** 
 237:Core/Src/main.c ****     __HAL_TIM_SetCompare(&htim1, TIM_CHANNEL_1, pwm0);
 1284              		.loc 1 237 5 is_stmt 1 view .LVU304
 1285 0144 0F4B     		ldr	r3, .L102+44
 1286 0146 1B68     		ldr	r3, [r3]
 1287 0148 5E63     		str	r6, [r3, #52]
 238:Core/Src/main.c ****     __HAL_TIM_SetCompare(&htim1, TIM_CHANNEL_2, pwm1);
 1288              		.loc 1 238 5 view .LVU305
 1289 014a 9C63     		str	r4, [r3, #56]
 239:Core/Src/main.c ****     __HAL_TIM_SetCompare(&htim1, TIM_CHANNEL_3, pwm2);
 1290              		.loc 1 239 5 view .LVU306
 1291 014c DF63     		str	r7, [r3, #60]
 240:Core/Src/main.c ****     __HAL_TIM_SetCompare(&htim1, TIM_CHANNEL_4, pwm3);
 1292              		.loc 1 240 5 view .LVU307
ARM GAS  C:\Users\86183\AppData\Local\Temp\ccxUIlJQ.s 			page 29


 1293 014e 1864     		str	r0, [r3, #64]
 1294              	.LBE11:
 241:Core/Src/main.c ****   }
 242:Core/Src/main.c **** }
 1295              		.loc 1 242 1 is_stmt 0 view .LVU308
 1296 0150 BDE8F087 		pop	{r4, r5, r6, r7, r8, r9, r10, pc}
 1297              	.LVL190:
 1298              	.L103:
 1299              		.loc 1 242 1 view .LVU309
 1300 0154 AFF30080 		.align	3
 1301              	.L102:
 1302 0158 66666666 		.word	1717986918
 1303 015c 66663440 		.word	1077175910
 1304 0160 00000000 		.word	htim3
 1305 0164 00000000 		.word	htim4
 1306 0168 00000000 		.word	htim5
 1307 016c 00000000 		.word	htim8
 1308 0170 0000A041 		.word	1101004800
 1309 0174 00000544 		.word	1141178368
 1310 0178 00C00444 		.word	1141161984
 1311 017c 00800444 		.word	1141145600
 1312 0180 00000000 		.word	.LANCHOR8
 1313 0184 00000000 		.word	htim1
 1314              		.cfi_endproc
 1315              	.LFE73:
 1317              		.global	__aeabi_i2d
 1318              		.section	.text.MoveTo,"ax",%progbits
 1319              		.align	1
 1320              		.global	MoveTo
 1321              		.syntax unified
 1322              		.thumb
 1323              		.thumb_func
 1324              		.fpu softvfp
 1326              	MoveTo:
 1327              	.LVL191:
 1328              	.LFB74:
 243:Core/Src/main.c **** 
 244:Core/Src/main.c **** void MoveTo(uint16_t x, uint16_t y)
 245:Core/Src/main.c **** {
 1329              		.loc 1 245 1 is_stmt 1 view -0
 1330              		.cfi_startproc
 1331              		@ args = 0, pretend = 0, frame = 0
 1332              		@ frame_needed = 0, uses_anonymous_args = 0
 1333              		.loc 1 245 1 is_stmt 0 view .LVU311
 1334 0000 2DE9F041 		push	{r4, r5, r6, r7, r8, lr}
 1335              	.LCFI8:
 1336              		.cfi_def_cfa_offset 24
 1337              		.cfi_offset 4, -24
 1338              		.cfi_offset 5, -20
 1339              		.cfi_offset 6, -16
 1340              		.cfi_offset 7, -12
 1341              		.cfi_offset 8, -8
 1342              		.cfi_offset 14, -4
 1343 0004 0746     		mov	r7, r0
 1344 0006 0E46     		mov	r6, r1
 1345              	.LVL192:
 1346              	.L105:
ARM GAS  C:\Users\86183\AppData\Local\Temp\ccxUIlJQ.s 			page 30


 246:Core/Src/main.c ****   while (1)
 1347              		.loc 1 246 3 is_stmt 1 discriminator 1 view .LVU312
 1348              	.LBB12:
 247:Core/Src/main.c ****   {
 248:Core/Src/main.c ****     uint16_t CurX = getCarPosX();
 1349              		.loc 1 248 5 discriminator 1 view .LVU313
 1350              		.loc 1 248 21 is_stmt 0 discriminator 1 view .LVU314
 1351 0008 FFF7FEFF 		bl	getCarPosX
 1352              	.LVL193:
 1353 000c 0446     		mov	r4, r0
 1354              	.LVL194:
 249:Core/Src/main.c ****     uint16_t CurY = getCarPosY();
 1355              		.loc 1 249 5 is_stmt 1 discriminator 1 view .LVU315
 1356              		.loc 1 249 21 is_stmt 0 discriminator 1 view .LVU316
 1357 000e FFF7FEFF 		bl	getCarPosY
 1358              	.LVL195:
 250:Core/Src/main.c ****     float targetAngle = (float)atan2(y - CurY, x - CurX) * 57.296;
 1359              		.loc 1 250 5 is_stmt 1 discriminator 1 view .LVU317
 1360              		.loc 1 250 40 is_stmt 0 discriminator 1 view .LVU318
 1361 0012 A6EB0008 		sub	r8, r6, r0
 1362              		.loc 1 250 32 discriminator 1 view .LVU319
 1363 0016 381B     		subs	r0, r7, r4
 1364              	.LVL196:
 1365              		.loc 1 250 32 discriminator 1 view .LVU320
 1366 0018 FFF7FEFF 		bl	__aeabi_i2d
 1367              	.LVL197:
 1368 001c 0446     		mov	r4, r0
 1369              	.LVL198:
 1370              		.loc 1 250 32 discriminator 1 view .LVU321
 1371 001e 0D46     		mov	r5, r1
 1372 0020 4046     		mov	r0, r8
 1373 0022 FFF7FEFF 		bl	__aeabi_i2d
 1374              	.LVL199:
 1375 0026 2246     		mov	r2, r4
 1376 0028 2B46     		mov	r3, r5
 1377 002a FFF7FEFF 		bl	atan2
 1378              	.LVL200:
 1379              		.loc 1 250 25 discriminator 1 view .LVU322
 1380 002e FFF7FEFF 		bl	__aeabi_d2f
 1381              	.LVL201:
 1382 0032 FFF7FEFF 		bl	__aeabi_f2d
 1383              	.LVL202:
 1384              		.loc 1 250 58 discriminator 1 view .LVU323
 1385 0036 0CA3     		adr	r3, .L107
 1386 0038 D3E90023 		ldrd	r2, [r3]
 1387 003c FFF7FEFF 		bl	__aeabi_dmul
 1388              	.LVL203:
 1389              		.loc 1 250 11 discriminator 1 view .LVU324
 1390 0040 FFF7FEFF 		bl	__aeabi_d2f
 1391              	.LVL204:
 1392 0044 0446     		mov	r4, r0
 1393              	.LVL205:
 251:Core/Src/main.c ****     targetAngle = Add_Angle(targetAngle, absoluteAngle - angle0);
 1394              		.loc 1 251 5 is_stmt 1 discriminator 1 view .LVU325
 1395              		.loc 1 251 19 is_stmt 0 discriminator 1 view .LVU326
 1396 0046 0A4B     		ldr	r3, .L107+8
 1397 0048 1968     		ldr	r1, [r3]	@ float
ARM GAS  C:\Users\86183\AppData\Local\Temp\ccxUIlJQ.s 			page 31


 1398 004a 0A4B     		ldr	r3, .L107+12
 1399 004c 1868     		ldr	r0, [r3]	@ float
 1400              	.LVL206:
 1401              		.loc 1 251 19 discriminator 1 view .LVU327
 1402 004e FFF7FEFF 		bl	__aeabi_fsub
 1403              	.LVL207:
 1404 0052 0146     		mov	r1, r0
 1405 0054 2046     		mov	r0, r4
 1406 0056 FFF7FEFF 		bl	Add_Angle
 1407              	.LVL208:
 252:Core/Src/main.c **** 
 253:Core/Src/main.c ****     Turn(targetAngle);
 1408              		.loc 1 253 5 is_stmt 1 discriminator 1 view .LVU328
 1409 005a FFF7FEFF 		bl	Turn
 1410              	.LVL209:
 254:Core/Src/main.c ****     HAL_Delay(500);
 1411              		.loc 1 254 5 discriminator 1 view .LVU329
 1412 005e 4FF4FA70 		mov	r0, #500
 1413 0062 FFF7FEFF 		bl	HAL_Delay
 1414              	.LVL210:
 1415              	.LBE12:
 246:Core/Src/main.c ****   {
 1416              		.loc 1 246 9 discriminator 1 view .LVU330
 1417 0066 CFE7     		b	.L105
 1418              	.L108:
 1419              		.align	3
 1420              	.L107:
 1421 0068 D9CEF753 		.word	1408749273
 1422 006c E3A54C40 		.word	1078765027
 1423 0070 00000000 		.word	.LANCHOR6
 1424 0074 00000000 		.word	.LANCHOR7
 1425              		.cfi_endproc
 1426              	.LFE74:
 1428              		.section	.text.Init,"ax",%progbits
 1429              		.align	1
 1430              		.global	Init
 1431              		.syntax unified
 1432              		.thumb
 1433              		.thumb_func
 1434              		.fpu softvfp
 1436              	Init:
 1437              	.LFB75:
 255:Core/Src/main.c ****   }
 256:Core/Src/main.c **** }
 257:Core/Src/main.c **** 
 258:Core/Src/main.c **** void Init()
 259:Core/Src/main.c **** {
 1438              		.loc 1 259 1 view -0
 1439              		.cfi_startproc
 1440              		@ Volatile: function does not return.
 1441              		@ args = 0, pretend = 0, frame = 0
 1442              		@ frame_needed = 0, uses_anonymous_args = 0
 1443 0000 08B5     		push	{r3, lr}
 1444              	.LCFI9:
 1445              		.cfi_def_cfa_offset 8
 1446              		.cfi_offset 3, -8
 1447              		.cfi_offset 14, -4
ARM GAS  C:\Users\86183\AppData\Local\Temp\ccxUIlJQ.s 			page 32


 1448              	.L110:
 260:Core/Src/main.c ****   while (getGameState() == 0)
 261:Core/Src/main.c ****     ;
 1449              		.loc 1 261 5 discriminator 1 view .LVU332
 260:Core/Src/main.c ****   while (getGameState() == 0)
 1450              		.loc 1 260 9 discriminator 1 view .LVU333
 260:Core/Src/main.c ****   while (getGameState() == 0)
 1451              		.loc 1 260 10 is_stmt 0 discriminator 1 view .LVU334
 1452 0002 FFF7FEFF 		bl	getGameState
 1453              	.LVL211:
 260:Core/Src/main.c ****   while (getGameState() == 0)
 1454              		.loc 1 260 9 discriminator 1 view .LVU335
 1455 0006 0028     		cmp	r0, #0
 1456 0008 FBD0     		beq	.L110
 262:Core/Src/main.c ****   HAL_Delay(100);
 1457              		.loc 1 262 3 is_stmt 1 view .LVU336
 1458 000a 6420     		movs	r0, #100
 1459 000c FFF7FEFF 		bl	HAL_Delay
 1460              	.LVL212:
 263:Core/Src/main.c ****   MoveTo(127, 127);
 1461              		.loc 1 263 3 view .LVU337
 1462 0010 7F21     		movs	r1, #127
 1463 0012 0846     		mov	r0, r1
 1464 0014 FFF7FEFF 		bl	MoveTo
 1465              	.LVL213:
 1466              		.cfi_endproc
 1467              	.LFE75:
 1469              		.section	.text.Error_Handler,"ax",%progbits
 1470              		.align	1
 1471              		.global	Error_Handler
 1472              		.syntax unified
 1473              		.thumb
 1474              		.thumb_func
 1475              		.fpu softvfp
 1477              	Error_Handler:
 1478              	.LFB78:
 264:Core/Src/main.c **** }
 265:Core/Src/main.c **** 
 266:Core/Src/main.c **** /* USER CODE END 0 */
 267:Core/Src/main.c **** 
 268:Core/Src/main.c **** /**
 269:Core/Src/main.c ****   * @brief  The application entry point.
 270:Core/Src/main.c ****   * @retval int
 271:Core/Src/main.c ****   */
 272:Core/Src/main.c **** int main(void)
 273:Core/Src/main.c **** {
 274:Core/Src/main.c ****   /* USER CODE BEGIN 1 */
 275:Core/Src/main.c **** 
 276:Core/Src/main.c ****   /* USER CODE END 1 */
 277:Core/Src/main.c **** 
 278:Core/Src/main.c ****   /* MCU Configuration--------------------------------------------------------*/
 279:Core/Src/main.c **** 
 280:Core/Src/main.c ****   /* Reset of all peripherals, Initializes the Flash interface and the Systick. */
 281:Core/Src/main.c ****   HAL_Init();
 282:Core/Src/main.c **** 
 283:Core/Src/main.c ****   /* USER CODE BEGIN Init */
 284:Core/Src/main.c **** 
ARM GAS  C:\Users\86183\AppData\Local\Temp\ccxUIlJQ.s 			page 33


 285:Core/Src/main.c ****   /* USER CODE END Init */
 286:Core/Src/main.c **** 
 287:Core/Src/main.c ****   /* Configure the system clock */
 288:Core/Src/main.c ****   SystemClock_Config();
 289:Core/Src/main.c **** 
 290:Core/Src/main.c ****   /* USER CODE BEGIN SysInit */
 291:Core/Src/main.c **** 
 292:Core/Src/main.c ****   /* USER CODE END SysInit */
 293:Core/Src/main.c **** 
 294:Core/Src/main.c ****   /* Initialize all configured peripherals */
 295:Core/Src/main.c ****   MX_GPIO_Init();
 296:Core/Src/main.c ****   MX_TIM1_Init();
 297:Core/Src/main.c ****   MX_TIM2_Init();
 298:Core/Src/main.c ****   MX_TIM3_Init();
 299:Core/Src/main.c ****   MX_TIM4_Init();
 300:Core/Src/main.c ****   MX_TIM5_Init();
 301:Core/Src/main.c ****   MX_TIM8_Init();
 302:Core/Src/main.c ****   MX_USART3_UART_Init();
 303:Core/Src/main.c ****   MX_DMA_Init();
 304:Core/Src/main.c ****   MX_USART2_UART_Init();
 305:Core/Src/main.c ****   /* USER CODE BEGIN 2 */
 306:Core/Src/main.c ****   jy62_Init(&huart2);
 307:Core/Src/main.c ****   zigbee_Init(&huart3);
 308:Core/Src/main.c ****   HAL_TIM_Base_Start_IT(&htim2);
 309:Core/Src/main.c ****   HAL_TIM_PWM_Start(&htim1, TIM_CHANNEL_1);
 310:Core/Src/main.c ****   HAL_TIM_PWM_Start(&htim1, TIM_CHANNEL_2);
 311:Core/Src/main.c ****   HAL_TIM_PWM_Start(&htim1, TIM_CHANNEL_3);
 312:Core/Src/main.c ****   HAL_TIM_PWM_Start(&htim1, TIM_CHANNEL_4);
 313:Core/Src/main.c ****   HAL_TIM_Encoder_Start(&htim3, TIM_CHANNEL_ALL);
 314:Core/Src/main.c ****   HAL_TIM_Encoder_Start(&htim4, TIM_CHANNEL_ALL);
 315:Core/Src/main.c ****   HAL_TIM_Encoder_Start(&htim5, TIM_CHANNEL_ALL);
 316:Core/Src/main.c ****   HAL_TIM_Encoder_Start(&htim8, TIM_CHANNEL_ALL);
 317:Core/Src/main.c ****   HAL_Delay(100);
 318:Core/Src/main.c ****   HAL_GPIO_WritePin(IN1A_GPIO_Port, IN1A_Pin, SET);
 319:Core/Src/main.c ****   HAL_GPIO_WritePin(IN2B_GPIO_Port, IN2B_Pin, SET);
 320:Core/Src/main.c ****   HAL_GPIO_WritePin(IN3A_GPIO_Port, IN3A_Pin, SET);
 321:Core/Src/main.c ****   HAL_GPIO_WritePin(IN4B_GPIO_Port, IN4B_Pin, SET);
 322:Core/Src/main.c ****   Calibrate_Angle();
 323:Core/Src/main.c ****   HAL_Delay(100);
 324:Core/Src/main.c ****   Init();
 325:Core/Src/main.c ****   /* USER CODE END 2 */
 326:Core/Src/main.c **** 
 327:Core/Src/main.c ****   /* Infinite loop */
 328:Core/Src/main.c ****   /* USER CODE BEGIN WHILE */
 329:Core/Src/main.c ****   // Turn(60);
 330:Core/Src/main.c ****   while (1)
 331:Core/Src/main.c ****   {
 332:Core/Src/main.c ****     /* USER CODE END WHILE */
 333:Core/Src/main.c **** 
 334:Core/Src/main.c ****     /* USER CODE BEGIN 3 */
 335:Core/Src/main.c ****     // switch (STATE)
 336:Core/Src/main.c ****     // {
 337:Core/Src/main.c ****     // case 
 338:Core/Src/main.c ****     //   break;
 339:Core/Src/main.c **** 
 340:Core/Src/main.c ****     //     default:
 341:Core/Src/main.c ****     //   break;
ARM GAS  C:\Users\86183\AppData\Local\Temp\ccxUIlJQ.s 			page 34


 342:Core/Src/main.c ****     // }
 343:Core/Src/main.c ****   }
 344:Core/Src/main.c ****   /* USER CODE END 3 */
 345:Core/Src/main.c **** }
 346:Core/Src/main.c **** 
 347:Core/Src/main.c **** /**
 348:Core/Src/main.c ****   * @brief System Clock Configuration
 349:Core/Src/main.c ****   * @retval None
 350:Core/Src/main.c ****   */
 351:Core/Src/main.c **** void SystemClock_Config(void)
 352:Core/Src/main.c **** {
 353:Core/Src/main.c ****   RCC_OscInitTypeDef RCC_OscInitStruct = {0};
 354:Core/Src/main.c ****   RCC_ClkInitTypeDef RCC_ClkInitStruct = {0};
 355:Core/Src/main.c **** 
 356:Core/Src/main.c ****   /** Initializes the RCC Oscillators according to the specified parameters
 357:Core/Src/main.c ****   * in the RCC_OscInitTypeDef structure.
 358:Core/Src/main.c ****   */
 359:Core/Src/main.c ****   RCC_OscInitStruct.OscillatorType = RCC_OSCILLATORTYPE_HSE;
 360:Core/Src/main.c ****   RCC_OscInitStruct.HSEState = RCC_HSE_ON;
 361:Core/Src/main.c ****   RCC_OscInitStruct.HSEPredivValue = RCC_HSE_PREDIV_DIV1;
 362:Core/Src/main.c ****   RCC_OscInitStruct.HSIState = RCC_HSI_ON;
 363:Core/Src/main.c ****   RCC_OscInitStruct.PLL.PLLState = RCC_PLL_ON;
 364:Core/Src/main.c ****   RCC_OscInitStruct.PLL.PLLSource = RCC_PLLSOURCE_HSE;
 365:Core/Src/main.c ****   RCC_OscInitStruct.PLL.PLLMUL = RCC_PLL_MUL9;
 366:Core/Src/main.c ****   if (HAL_RCC_OscConfig(&RCC_OscInitStruct) != HAL_OK)
 367:Core/Src/main.c ****   {
 368:Core/Src/main.c ****     Error_Handler();
 369:Core/Src/main.c ****   }
 370:Core/Src/main.c ****   /** Initializes the CPU, AHB and APB buses clocks
 371:Core/Src/main.c ****   */
 372:Core/Src/main.c ****   RCC_ClkInitStruct.ClockType = RCC_CLOCKTYPE_HCLK|RCC_CLOCKTYPE_SYSCLK
 373:Core/Src/main.c ****                               |RCC_CLOCKTYPE_PCLK1|RCC_CLOCKTYPE_PCLK2;
 374:Core/Src/main.c ****   RCC_ClkInitStruct.SYSCLKSource = RCC_SYSCLKSOURCE_PLLCLK;
 375:Core/Src/main.c ****   RCC_ClkInitStruct.AHBCLKDivider = RCC_SYSCLK_DIV1;
 376:Core/Src/main.c ****   RCC_ClkInitStruct.APB1CLKDivider = RCC_HCLK_DIV2;
 377:Core/Src/main.c ****   RCC_ClkInitStruct.APB2CLKDivider = RCC_HCLK_DIV1;
 378:Core/Src/main.c **** 
 379:Core/Src/main.c ****   if (HAL_RCC_ClockConfig(&RCC_ClkInitStruct, FLASH_LATENCY_2) != HAL_OK)
 380:Core/Src/main.c ****   {
 381:Core/Src/main.c ****     Error_Handler();
 382:Core/Src/main.c ****   }
 383:Core/Src/main.c **** }
 384:Core/Src/main.c **** 
 385:Core/Src/main.c **** /* USER CODE BEGIN 4 */
 386:Core/Src/main.c **** 
 387:Core/Src/main.c **** /* USER CODE END 4 */
 388:Core/Src/main.c **** 
 389:Core/Src/main.c **** /**
 390:Core/Src/main.c ****   * @brief  This function is executed in case of error occurrence.
 391:Core/Src/main.c ****   * @retval None
 392:Core/Src/main.c ****   */
 393:Core/Src/main.c **** void Error_Handler(void)
 394:Core/Src/main.c **** {
 1479              		.loc 1 394 1 view -0
 1480              		.cfi_startproc
 1481              		@ Volatile: function does not return.
 1482              		@ args = 0, pretend = 0, frame = 0
ARM GAS  C:\Users\86183\AppData\Local\Temp\ccxUIlJQ.s 			page 35


 1483              		@ frame_needed = 0, uses_anonymous_args = 0
 1484              		@ link register save eliminated.
 395:Core/Src/main.c ****   /* USER CODE BEGIN Error_Handler_Debug */
 396:Core/Src/main.c ****   /* User can add his own implementation to report the HAL error return state */
 397:Core/Src/main.c ****   __disable_irq();
 1485              		.loc 1 397 3 view .LVU339
 1486              	.LBB13:
 1487              	.LBI13:
 1488              		.file 2 "Drivers/CMSIS/Include/cmsis_gcc.h"
   1:Drivers/CMSIS/Include/cmsis_gcc.h **** /**************************************************************************//**
   2:Drivers/CMSIS/Include/cmsis_gcc.h ****  * @file     cmsis_gcc.h
   3:Drivers/CMSIS/Include/cmsis_gcc.h ****  * @brief    CMSIS compiler GCC header file
   4:Drivers/CMSIS/Include/cmsis_gcc.h ****  * @version  V5.0.4
   5:Drivers/CMSIS/Include/cmsis_gcc.h ****  * @date     09. April 2018
   6:Drivers/CMSIS/Include/cmsis_gcc.h ****  ******************************************************************************/
   7:Drivers/CMSIS/Include/cmsis_gcc.h **** /*
   8:Drivers/CMSIS/Include/cmsis_gcc.h ****  * Copyright (c) 2009-2018 Arm Limited. All rights reserved.
   9:Drivers/CMSIS/Include/cmsis_gcc.h ****  *
  10:Drivers/CMSIS/Include/cmsis_gcc.h ****  * SPDX-License-Identifier: Apache-2.0
  11:Drivers/CMSIS/Include/cmsis_gcc.h ****  *
  12:Drivers/CMSIS/Include/cmsis_gcc.h ****  * Licensed under the Apache License, Version 2.0 (the License); you may
  13:Drivers/CMSIS/Include/cmsis_gcc.h ****  * not use this file except in compliance with the License.
  14:Drivers/CMSIS/Include/cmsis_gcc.h ****  * You may obtain a copy of the License at
  15:Drivers/CMSIS/Include/cmsis_gcc.h ****  *
  16:Drivers/CMSIS/Include/cmsis_gcc.h ****  * www.apache.org/licenses/LICENSE-2.0
  17:Drivers/CMSIS/Include/cmsis_gcc.h ****  *
  18:Drivers/CMSIS/Include/cmsis_gcc.h ****  * Unless required by applicable law or agreed to in writing, software
  19:Drivers/CMSIS/Include/cmsis_gcc.h ****  * distributed under the License is distributed on an AS IS BASIS, WITHOUT
  20:Drivers/CMSIS/Include/cmsis_gcc.h ****  * WARRANTIES OR CONDITIONS OF ANY KIND, either express or implied.
  21:Drivers/CMSIS/Include/cmsis_gcc.h ****  * See the License for the specific language governing permissions and
  22:Drivers/CMSIS/Include/cmsis_gcc.h ****  * limitations under the License.
  23:Drivers/CMSIS/Include/cmsis_gcc.h ****  */
  24:Drivers/CMSIS/Include/cmsis_gcc.h **** 
  25:Drivers/CMSIS/Include/cmsis_gcc.h **** #ifndef __CMSIS_GCC_H
  26:Drivers/CMSIS/Include/cmsis_gcc.h **** #define __CMSIS_GCC_H
  27:Drivers/CMSIS/Include/cmsis_gcc.h **** 
  28:Drivers/CMSIS/Include/cmsis_gcc.h **** /* ignore some GCC warnings */
  29:Drivers/CMSIS/Include/cmsis_gcc.h **** #pragma GCC diagnostic push
  30:Drivers/CMSIS/Include/cmsis_gcc.h **** #pragma GCC diagnostic ignored "-Wsign-conversion"
  31:Drivers/CMSIS/Include/cmsis_gcc.h **** #pragma GCC diagnostic ignored "-Wconversion"
  32:Drivers/CMSIS/Include/cmsis_gcc.h **** #pragma GCC diagnostic ignored "-Wunused-parameter"
  33:Drivers/CMSIS/Include/cmsis_gcc.h **** 
  34:Drivers/CMSIS/Include/cmsis_gcc.h **** /* Fallback for __has_builtin */
  35:Drivers/CMSIS/Include/cmsis_gcc.h **** #ifndef __has_builtin
  36:Drivers/CMSIS/Include/cmsis_gcc.h ****   #define __has_builtin(x) (0)
  37:Drivers/CMSIS/Include/cmsis_gcc.h **** #endif
  38:Drivers/CMSIS/Include/cmsis_gcc.h **** 
  39:Drivers/CMSIS/Include/cmsis_gcc.h **** /* CMSIS compiler specific defines */
  40:Drivers/CMSIS/Include/cmsis_gcc.h **** #ifndef   __ASM
  41:Drivers/CMSIS/Include/cmsis_gcc.h ****   #define __ASM                                  __asm
  42:Drivers/CMSIS/Include/cmsis_gcc.h **** #endif
  43:Drivers/CMSIS/Include/cmsis_gcc.h **** #ifndef   __INLINE
  44:Drivers/CMSIS/Include/cmsis_gcc.h ****   #define __INLINE                               inline
  45:Drivers/CMSIS/Include/cmsis_gcc.h **** #endif
  46:Drivers/CMSIS/Include/cmsis_gcc.h **** #ifndef   __STATIC_INLINE
  47:Drivers/CMSIS/Include/cmsis_gcc.h ****   #define __STATIC_INLINE                        static inline
  48:Drivers/CMSIS/Include/cmsis_gcc.h **** #endif
ARM GAS  C:\Users\86183\AppData\Local\Temp\ccxUIlJQ.s 			page 36


  49:Drivers/CMSIS/Include/cmsis_gcc.h **** #ifndef   __STATIC_FORCEINLINE                 
  50:Drivers/CMSIS/Include/cmsis_gcc.h ****   #define __STATIC_FORCEINLINE                   __attribute__((always_inline)) static inline
  51:Drivers/CMSIS/Include/cmsis_gcc.h **** #endif                                           
  52:Drivers/CMSIS/Include/cmsis_gcc.h **** #ifndef   __NO_RETURN
  53:Drivers/CMSIS/Include/cmsis_gcc.h ****   #define __NO_RETURN                            __attribute__((__noreturn__))
  54:Drivers/CMSIS/Include/cmsis_gcc.h **** #endif
  55:Drivers/CMSIS/Include/cmsis_gcc.h **** #ifndef   __USED
  56:Drivers/CMSIS/Include/cmsis_gcc.h ****   #define __USED                                 __attribute__((used))
  57:Drivers/CMSIS/Include/cmsis_gcc.h **** #endif
  58:Drivers/CMSIS/Include/cmsis_gcc.h **** #ifndef   __WEAK
  59:Drivers/CMSIS/Include/cmsis_gcc.h ****   #define __WEAK                                 __attribute__((weak))
  60:Drivers/CMSIS/Include/cmsis_gcc.h **** #endif
  61:Drivers/CMSIS/Include/cmsis_gcc.h **** #ifndef   __PACKED
  62:Drivers/CMSIS/Include/cmsis_gcc.h ****   #define __PACKED                               __attribute__((packed, aligned(1)))
  63:Drivers/CMSIS/Include/cmsis_gcc.h **** #endif
  64:Drivers/CMSIS/Include/cmsis_gcc.h **** #ifndef   __PACKED_STRUCT
  65:Drivers/CMSIS/Include/cmsis_gcc.h ****   #define __PACKED_STRUCT                        struct __attribute__((packed, aligned(1)))
  66:Drivers/CMSIS/Include/cmsis_gcc.h **** #endif
  67:Drivers/CMSIS/Include/cmsis_gcc.h **** #ifndef   __PACKED_UNION
  68:Drivers/CMSIS/Include/cmsis_gcc.h ****   #define __PACKED_UNION                         union __attribute__((packed, aligned(1)))
  69:Drivers/CMSIS/Include/cmsis_gcc.h **** #endif
  70:Drivers/CMSIS/Include/cmsis_gcc.h **** #ifndef   __UNALIGNED_UINT32        /* deprecated */
  71:Drivers/CMSIS/Include/cmsis_gcc.h ****   #pragma GCC diagnostic push
  72:Drivers/CMSIS/Include/cmsis_gcc.h ****   #pragma GCC diagnostic ignored "-Wpacked"
  73:Drivers/CMSIS/Include/cmsis_gcc.h ****   #pragma GCC diagnostic ignored "-Wattributes"
  74:Drivers/CMSIS/Include/cmsis_gcc.h ****   struct __attribute__((packed)) T_UINT32 { uint32_t v; };
  75:Drivers/CMSIS/Include/cmsis_gcc.h ****   #pragma GCC diagnostic pop
  76:Drivers/CMSIS/Include/cmsis_gcc.h ****   #define __UNALIGNED_UINT32(x)                  (((struct T_UINT32 *)(x))->v)
  77:Drivers/CMSIS/Include/cmsis_gcc.h **** #endif
  78:Drivers/CMSIS/Include/cmsis_gcc.h **** #ifndef   __UNALIGNED_UINT16_WRITE
  79:Drivers/CMSIS/Include/cmsis_gcc.h ****   #pragma GCC diagnostic push
  80:Drivers/CMSIS/Include/cmsis_gcc.h ****   #pragma GCC diagnostic ignored "-Wpacked"
  81:Drivers/CMSIS/Include/cmsis_gcc.h ****   #pragma GCC diagnostic ignored "-Wattributes"
  82:Drivers/CMSIS/Include/cmsis_gcc.h ****   __PACKED_STRUCT T_UINT16_WRITE { uint16_t v; };
  83:Drivers/CMSIS/Include/cmsis_gcc.h ****   #pragma GCC diagnostic pop
  84:Drivers/CMSIS/Include/cmsis_gcc.h ****   #define __UNALIGNED_UINT16_WRITE(addr, val)    (void)((((struct T_UINT16_WRITE *)(void *)(addr))-
  85:Drivers/CMSIS/Include/cmsis_gcc.h **** #endif
  86:Drivers/CMSIS/Include/cmsis_gcc.h **** #ifndef   __UNALIGNED_UINT16_READ
  87:Drivers/CMSIS/Include/cmsis_gcc.h ****   #pragma GCC diagnostic push
  88:Drivers/CMSIS/Include/cmsis_gcc.h ****   #pragma GCC diagnostic ignored "-Wpacked"
  89:Drivers/CMSIS/Include/cmsis_gcc.h ****   #pragma GCC diagnostic ignored "-Wattributes"
  90:Drivers/CMSIS/Include/cmsis_gcc.h ****   __PACKED_STRUCT T_UINT16_READ { uint16_t v; };
  91:Drivers/CMSIS/Include/cmsis_gcc.h ****   #pragma GCC diagnostic pop
  92:Drivers/CMSIS/Include/cmsis_gcc.h ****   #define __UNALIGNED_UINT16_READ(addr)          (((const struct T_UINT16_READ *)(const void *)(add
  93:Drivers/CMSIS/Include/cmsis_gcc.h **** #endif
  94:Drivers/CMSIS/Include/cmsis_gcc.h **** #ifndef   __UNALIGNED_UINT32_WRITE
  95:Drivers/CMSIS/Include/cmsis_gcc.h ****   #pragma GCC diagnostic push
  96:Drivers/CMSIS/Include/cmsis_gcc.h ****   #pragma GCC diagnostic ignored "-Wpacked"
  97:Drivers/CMSIS/Include/cmsis_gcc.h ****   #pragma GCC diagnostic ignored "-Wattributes"
  98:Drivers/CMSIS/Include/cmsis_gcc.h ****   __PACKED_STRUCT T_UINT32_WRITE { uint32_t v; };
  99:Drivers/CMSIS/Include/cmsis_gcc.h ****   #pragma GCC diagnostic pop
 100:Drivers/CMSIS/Include/cmsis_gcc.h ****   #define __UNALIGNED_UINT32_WRITE(addr, val)    (void)((((struct T_UINT32_WRITE *)(void *)(addr))-
 101:Drivers/CMSIS/Include/cmsis_gcc.h **** #endif
 102:Drivers/CMSIS/Include/cmsis_gcc.h **** #ifndef   __UNALIGNED_UINT32_READ
 103:Drivers/CMSIS/Include/cmsis_gcc.h ****   #pragma GCC diagnostic push
 104:Drivers/CMSIS/Include/cmsis_gcc.h ****   #pragma GCC diagnostic ignored "-Wpacked"
 105:Drivers/CMSIS/Include/cmsis_gcc.h ****   #pragma GCC diagnostic ignored "-Wattributes"
ARM GAS  C:\Users\86183\AppData\Local\Temp\ccxUIlJQ.s 			page 37


 106:Drivers/CMSIS/Include/cmsis_gcc.h ****   __PACKED_STRUCT T_UINT32_READ { uint32_t v; };
 107:Drivers/CMSIS/Include/cmsis_gcc.h ****   #pragma GCC diagnostic pop
 108:Drivers/CMSIS/Include/cmsis_gcc.h ****   #define __UNALIGNED_UINT32_READ(addr)          (((const struct T_UINT32_READ *)(const void *)(add
 109:Drivers/CMSIS/Include/cmsis_gcc.h **** #endif
 110:Drivers/CMSIS/Include/cmsis_gcc.h **** #ifndef   __ALIGNED
 111:Drivers/CMSIS/Include/cmsis_gcc.h ****   #define __ALIGNED(x)                           __attribute__((aligned(x)))
 112:Drivers/CMSIS/Include/cmsis_gcc.h **** #endif
 113:Drivers/CMSIS/Include/cmsis_gcc.h **** #ifndef   __RESTRICT
 114:Drivers/CMSIS/Include/cmsis_gcc.h ****   #define __RESTRICT                             __restrict
 115:Drivers/CMSIS/Include/cmsis_gcc.h **** #endif
 116:Drivers/CMSIS/Include/cmsis_gcc.h **** 
 117:Drivers/CMSIS/Include/cmsis_gcc.h **** 
 118:Drivers/CMSIS/Include/cmsis_gcc.h **** /* ###########################  Core Function Access  ########################### */
 119:Drivers/CMSIS/Include/cmsis_gcc.h **** /** \ingroup  CMSIS_Core_FunctionInterface
 120:Drivers/CMSIS/Include/cmsis_gcc.h ****     \defgroup CMSIS_Core_RegAccFunctions CMSIS Core Register Access Functions
 121:Drivers/CMSIS/Include/cmsis_gcc.h ****   @{
 122:Drivers/CMSIS/Include/cmsis_gcc.h ****  */
 123:Drivers/CMSIS/Include/cmsis_gcc.h **** 
 124:Drivers/CMSIS/Include/cmsis_gcc.h **** /**
 125:Drivers/CMSIS/Include/cmsis_gcc.h ****   \brief   Enable IRQ Interrupts
 126:Drivers/CMSIS/Include/cmsis_gcc.h ****   \details Enables IRQ interrupts by clearing the I-bit in the CPSR.
 127:Drivers/CMSIS/Include/cmsis_gcc.h ****            Can only be executed in Privileged modes.
 128:Drivers/CMSIS/Include/cmsis_gcc.h ****  */
 129:Drivers/CMSIS/Include/cmsis_gcc.h **** __STATIC_FORCEINLINE void __enable_irq(void)
 130:Drivers/CMSIS/Include/cmsis_gcc.h **** {
 131:Drivers/CMSIS/Include/cmsis_gcc.h ****   __ASM volatile ("cpsie i" : : : "memory");
 132:Drivers/CMSIS/Include/cmsis_gcc.h **** }
 133:Drivers/CMSIS/Include/cmsis_gcc.h **** 
 134:Drivers/CMSIS/Include/cmsis_gcc.h **** 
 135:Drivers/CMSIS/Include/cmsis_gcc.h **** /**
 136:Drivers/CMSIS/Include/cmsis_gcc.h ****   \brief   Disable IRQ Interrupts
 137:Drivers/CMSIS/Include/cmsis_gcc.h ****   \details Disables IRQ interrupts by setting the I-bit in the CPSR.
 138:Drivers/CMSIS/Include/cmsis_gcc.h ****            Can only be executed in Privileged modes.
 139:Drivers/CMSIS/Include/cmsis_gcc.h ****  */
 140:Drivers/CMSIS/Include/cmsis_gcc.h **** __STATIC_FORCEINLINE void __disable_irq(void)
 1489              		.loc 2 140 27 view .LVU340
 1490              	.LBB14:
 141:Drivers/CMSIS/Include/cmsis_gcc.h **** {
 142:Drivers/CMSIS/Include/cmsis_gcc.h ****   __ASM volatile ("cpsid i" : : : "memory");
 1491              		.loc 2 142 3 view .LVU341
 1492              		.syntax unified
 1493              	@ 142 "Drivers/CMSIS/Include/cmsis_gcc.h" 1
 1494 0000 72B6     		cpsid i
 1495              	@ 0 "" 2
 1496              		.thumb
 1497              		.syntax unified
 1498              	.L113:
 1499              	.LBE14:
 1500              	.LBE13:
 398:Core/Src/main.c ****   while (1)
 1501              		.loc 1 398 3 discriminator 1 view .LVU342
 399:Core/Src/main.c ****   {
 400:Core/Src/main.c ****   }
 1502              		.loc 1 400 3 discriminator 1 view .LVU343
 398:Core/Src/main.c ****   while (1)
 1503              		.loc 1 398 9 discriminator 1 view .LVU344
 1504 0002 FEE7     		b	.L113
ARM GAS  C:\Users\86183\AppData\Local\Temp\ccxUIlJQ.s 			page 38


 1505              		.cfi_endproc
 1506              	.LFE78:
 1508              		.section	.text.SystemClock_Config,"ax",%progbits
 1509              		.align	1
 1510              		.global	SystemClock_Config
 1511              		.syntax unified
 1512              		.thumb
 1513              		.thumb_func
 1514              		.fpu softvfp
 1516              	SystemClock_Config:
 1517              	.LFB77:
 352:Core/Src/main.c ****   RCC_OscInitTypeDef RCC_OscInitStruct = {0};
 1518              		.loc 1 352 1 view -0
 1519              		.cfi_startproc
 1520              		@ args = 0, pretend = 0, frame = 64
 1521              		@ frame_needed = 0, uses_anonymous_args = 0
 1522 0000 00B5     		push	{lr}
 1523              	.LCFI10:
 1524              		.cfi_def_cfa_offset 4
 1525              		.cfi_offset 14, -4
 1526 0002 91B0     		sub	sp, sp, #68
 1527              	.LCFI11:
 1528              		.cfi_def_cfa_offset 72
 353:Core/Src/main.c ****   RCC_ClkInitTypeDef RCC_ClkInitStruct = {0};
 1529              		.loc 1 353 3 view .LVU346
 353:Core/Src/main.c ****   RCC_ClkInitTypeDef RCC_ClkInitStruct = {0};
 1530              		.loc 1 353 22 is_stmt 0 view .LVU347
 1531 0004 2822     		movs	r2, #40
 1532 0006 0021     		movs	r1, #0
 1533 0008 06A8     		add	r0, sp, #24
 1534 000a FFF7FEFF 		bl	memset
 1535              	.LVL214:
 354:Core/Src/main.c **** 
 1536              		.loc 1 354 3 is_stmt 1 view .LVU348
 354:Core/Src/main.c **** 
 1537              		.loc 1 354 22 is_stmt 0 view .LVU349
 1538 000e 0023     		movs	r3, #0
 1539 0010 0193     		str	r3, [sp, #4]
 1540 0012 0293     		str	r3, [sp, #8]
 1541 0014 0393     		str	r3, [sp, #12]
 1542 0016 0493     		str	r3, [sp, #16]
 1543 0018 0593     		str	r3, [sp, #20]
 359:Core/Src/main.c ****   RCC_OscInitStruct.HSEState = RCC_HSE_ON;
 1544              		.loc 1 359 3 is_stmt 1 view .LVU350
 359:Core/Src/main.c ****   RCC_OscInitStruct.HSEState = RCC_HSE_ON;
 1545              		.loc 1 359 36 is_stmt 0 view .LVU351
 1546 001a 0122     		movs	r2, #1
 1547 001c 0692     		str	r2, [sp, #24]
 360:Core/Src/main.c ****   RCC_OscInitStruct.HSEPredivValue = RCC_HSE_PREDIV_DIV1;
 1548              		.loc 1 360 3 is_stmt 1 view .LVU352
 360:Core/Src/main.c ****   RCC_OscInitStruct.HSEPredivValue = RCC_HSE_PREDIV_DIV1;
 1549              		.loc 1 360 30 is_stmt 0 view .LVU353
 1550 001e 4FF48033 		mov	r3, #65536
 1551 0022 0793     		str	r3, [sp, #28]
 361:Core/Src/main.c ****   RCC_OscInitStruct.HSIState = RCC_HSI_ON;
 1552              		.loc 1 361 3 is_stmt 1 view .LVU354
 362:Core/Src/main.c ****   RCC_OscInitStruct.PLL.PLLState = RCC_PLL_ON;
ARM GAS  C:\Users\86183\AppData\Local\Temp\ccxUIlJQ.s 			page 39


 1553              		.loc 1 362 3 view .LVU355
 362:Core/Src/main.c ****   RCC_OscInitStruct.PLL.PLLState = RCC_PLL_ON;
 1554              		.loc 1 362 30 is_stmt 0 view .LVU356
 1555 0024 0A92     		str	r2, [sp, #40]
 363:Core/Src/main.c ****   RCC_OscInitStruct.PLL.PLLSource = RCC_PLLSOURCE_HSE;
 1556              		.loc 1 363 3 is_stmt 1 view .LVU357
 363:Core/Src/main.c ****   RCC_OscInitStruct.PLL.PLLSource = RCC_PLLSOURCE_HSE;
 1557              		.loc 1 363 34 is_stmt 0 view .LVU358
 1558 0026 0222     		movs	r2, #2
 1559 0028 0D92     		str	r2, [sp, #52]
 364:Core/Src/main.c ****   RCC_OscInitStruct.PLL.PLLMUL = RCC_PLL_MUL9;
 1560              		.loc 1 364 3 is_stmt 1 view .LVU359
 364:Core/Src/main.c ****   RCC_OscInitStruct.PLL.PLLMUL = RCC_PLL_MUL9;
 1561              		.loc 1 364 35 is_stmt 0 view .LVU360
 1562 002a 0E93     		str	r3, [sp, #56]
 365:Core/Src/main.c ****   if (HAL_RCC_OscConfig(&RCC_OscInitStruct) != HAL_OK)
 1563              		.loc 1 365 3 is_stmt 1 view .LVU361
 365:Core/Src/main.c ****   if (HAL_RCC_OscConfig(&RCC_OscInitStruct) != HAL_OK)
 1564              		.loc 1 365 32 is_stmt 0 view .LVU362
 1565 002c 4FF4E013 		mov	r3, #1835008
 1566 0030 0F93     		str	r3, [sp, #60]
 366:Core/Src/main.c ****   {
 1567              		.loc 1 366 3 is_stmt 1 view .LVU363
 366:Core/Src/main.c ****   {
 1568              		.loc 1 366 7 is_stmt 0 view .LVU364
 1569 0032 06A8     		add	r0, sp, #24
 1570 0034 FFF7FEFF 		bl	HAL_RCC_OscConfig
 1571              	.LVL215:
 366:Core/Src/main.c ****   {
 1572              		.loc 1 366 6 view .LVU365
 1573 0038 80B9     		cbnz	r0, .L118
 372:Core/Src/main.c ****                               |RCC_CLOCKTYPE_PCLK1|RCC_CLOCKTYPE_PCLK2;
 1574              		.loc 1 372 3 is_stmt 1 view .LVU366
 372:Core/Src/main.c ****                               |RCC_CLOCKTYPE_PCLK1|RCC_CLOCKTYPE_PCLK2;
 1575              		.loc 1 372 31 is_stmt 0 view .LVU367
 1576 003a 0F23     		movs	r3, #15
 1577 003c 0193     		str	r3, [sp, #4]
 374:Core/Src/main.c ****   RCC_ClkInitStruct.AHBCLKDivider = RCC_SYSCLK_DIV1;
 1578              		.loc 1 374 3 is_stmt 1 view .LVU368
 374:Core/Src/main.c ****   RCC_ClkInitStruct.AHBCLKDivider = RCC_SYSCLK_DIV1;
 1579              		.loc 1 374 34 is_stmt 0 view .LVU369
 1580 003e 0221     		movs	r1, #2
 1581 0040 0291     		str	r1, [sp, #8]
 375:Core/Src/main.c ****   RCC_ClkInitStruct.APB1CLKDivider = RCC_HCLK_DIV2;
 1582              		.loc 1 375 3 is_stmt 1 view .LVU370
 375:Core/Src/main.c ****   RCC_ClkInitStruct.APB1CLKDivider = RCC_HCLK_DIV2;
 1583              		.loc 1 375 35 is_stmt 0 view .LVU371
 1584 0042 0023     		movs	r3, #0
 1585 0044 0393     		str	r3, [sp, #12]
 376:Core/Src/main.c ****   RCC_ClkInitStruct.APB2CLKDivider = RCC_HCLK_DIV1;
 1586              		.loc 1 376 3 is_stmt 1 view .LVU372
 376:Core/Src/main.c ****   RCC_ClkInitStruct.APB2CLKDivider = RCC_HCLK_DIV1;
 1587              		.loc 1 376 36 is_stmt 0 view .LVU373
 1588 0046 4FF48062 		mov	r2, #1024
 1589 004a 0492     		str	r2, [sp, #16]
 377:Core/Src/main.c **** 
 1590              		.loc 1 377 3 is_stmt 1 view .LVU374
ARM GAS  C:\Users\86183\AppData\Local\Temp\ccxUIlJQ.s 			page 40


 377:Core/Src/main.c **** 
 1591              		.loc 1 377 36 is_stmt 0 view .LVU375
 1592 004c 0593     		str	r3, [sp, #20]
 379:Core/Src/main.c ****   {
 1593              		.loc 1 379 3 is_stmt 1 view .LVU376
 379:Core/Src/main.c ****   {
 1594              		.loc 1 379 7 is_stmt 0 view .LVU377
 1595 004e 01A8     		add	r0, sp, #4
 1596 0050 FFF7FEFF 		bl	HAL_RCC_ClockConfig
 1597              	.LVL216:
 379:Core/Src/main.c ****   {
 1598              		.loc 1 379 6 view .LVU378
 1599 0054 20B9     		cbnz	r0, .L119
 383:Core/Src/main.c **** 
 1600              		.loc 1 383 1 view .LVU379
 1601 0056 11B0     		add	sp, sp, #68
 1602              	.LCFI12:
 1603              		.cfi_remember_state
 1604              		.cfi_def_cfa_offset 4
 1605              		@ sp needed
 1606 0058 5DF804FB 		ldr	pc, [sp], #4
 1607              	.L118:
 1608              	.LCFI13:
 1609              		.cfi_restore_state
 368:Core/Src/main.c ****   }
 1610              		.loc 1 368 5 is_stmt 1 view .LVU380
 1611 005c FFF7FEFF 		bl	Error_Handler
 1612              	.LVL217:
 1613              	.L119:
 381:Core/Src/main.c ****   }
 1614              		.loc 1 381 5 view .LVU381
 1615 0060 FFF7FEFF 		bl	Error_Handler
 1616              	.LVL218:
 1617              		.cfi_endproc
 1618              	.LFE77:
 1620              		.section	.text.main,"ax",%progbits
 1621              		.align	1
 1622              		.global	main
 1623              		.syntax unified
 1624              		.thumb
 1625              		.thumb_func
 1626              		.fpu softvfp
 1628              	main:
 1629              	.LFB76:
 273:Core/Src/main.c ****   /* USER CODE BEGIN 1 */
 1630              		.loc 1 273 1 view -0
 1631              		.cfi_startproc
 1632              		@ Volatile: function does not return.
 1633              		@ args = 0, pretend = 0, frame = 0
 1634              		@ frame_needed = 0, uses_anonymous_args = 0
 1635 0000 08B5     		push	{r3, lr}
 1636              	.LCFI14:
 1637              		.cfi_def_cfa_offset 8
 1638              		.cfi_offset 3, -8
 1639              		.cfi_offset 14, -4
 281:Core/Src/main.c **** 
 1640              		.loc 1 281 3 view .LVU383
ARM GAS  C:\Users\86183\AppData\Local\Temp\ccxUIlJQ.s 			page 41


 1641 0002 FFF7FEFF 		bl	HAL_Init
 1642              	.LVL219:
 288:Core/Src/main.c **** 
 1643              		.loc 1 288 3 view .LVU384
 1644 0006 FFF7FEFF 		bl	SystemClock_Config
 1645              	.LVL220:
 295:Core/Src/main.c ****   MX_TIM1_Init();
 1646              		.loc 1 295 3 view .LVU385
 1647 000a FFF7FEFF 		bl	MX_GPIO_Init
 1648              	.LVL221:
 296:Core/Src/main.c ****   MX_TIM2_Init();
 1649              		.loc 1 296 3 view .LVU386
 1650 000e FFF7FEFF 		bl	MX_TIM1_Init
 1651              	.LVL222:
 297:Core/Src/main.c ****   MX_TIM3_Init();
 1652              		.loc 1 297 3 view .LVU387
 1653 0012 FFF7FEFF 		bl	MX_TIM2_Init
 1654              	.LVL223:
 298:Core/Src/main.c ****   MX_TIM4_Init();
 1655              		.loc 1 298 3 view .LVU388
 1656 0016 FFF7FEFF 		bl	MX_TIM3_Init
 1657              	.LVL224:
 299:Core/Src/main.c ****   MX_TIM5_Init();
 1658              		.loc 1 299 3 view .LVU389
 1659 001a FFF7FEFF 		bl	MX_TIM4_Init
 1660              	.LVL225:
 300:Core/Src/main.c ****   MX_TIM8_Init();
 1661              		.loc 1 300 3 view .LVU390
 1662 001e FFF7FEFF 		bl	MX_TIM5_Init
 1663              	.LVL226:
 301:Core/Src/main.c ****   MX_USART3_UART_Init();
 1664              		.loc 1 301 3 view .LVU391
 1665 0022 FFF7FEFF 		bl	MX_TIM8_Init
 1666              	.LVL227:
 302:Core/Src/main.c ****   MX_DMA_Init();
 1667              		.loc 1 302 3 view .LVU392
 1668 0026 FFF7FEFF 		bl	MX_USART3_UART_Init
 1669              	.LVL228:
 303:Core/Src/main.c ****   MX_USART2_UART_Init();
 1670              		.loc 1 303 3 view .LVU393
 1671 002a FFF7FEFF 		bl	MX_DMA_Init
 1672              	.LVL229:
 304:Core/Src/main.c ****   /* USER CODE BEGIN 2 */
 1673              		.loc 1 304 3 view .LVU394
 1674 002e FFF7FEFF 		bl	MX_USART2_UART_Init
 1675              	.LVL230:
 306:Core/Src/main.c ****   zigbee_Init(&huart3);
 1676              		.loc 1 306 3 view .LVU395
 1677 0032 2648     		ldr	r0, .L122
 1678 0034 FFF7FEFF 		bl	jy62_Init
 1679              	.LVL231:
 307:Core/Src/main.c ****   HAL_TIM_Base_Start_IT(&htim2);
 1680              		.loc 1 307 3 view .LVU396
 1681 0038 2548     		ldr	r0, .L122+4
 1682 003a FFF7FEFF 		bl	zigbee_Init
 1683              	.LVL232:
 308:Core/Src/main.c ****   HAL_TIM_PWM_Start(&htim1, TIM_CHANNEL_1);
ARM GAS  C:\Users\86183\AppData\Local\Temp\ccxUIlJQ.s 			page 42


 1684              		.loc 1 308 3 view .LVU397
 1685 003e 2548     		ldr	r0, .L122+8
 1686 0040 FFF7FEFF 		bl	HAL_TIM_Base_Start_IT
 1687              	.LVL233:
 309:Core/Src/main.c ****   HAL_TIM_PWM_Start(&htim1, TIM_CHANNEL_2);
 1688              		.loc 1 309 3 view .LVU398
 1689 0044 244C     		ldr	r4, .L122+12
 1690 0046 0021     		movs	r1, #0
 1691 0048 2046     		mov	r0, r4
 1692 004a FFF7FEFF 		bl	HAL_TIM_PWM_Start
 1693              	.LVL234:
 310:Core/Src/main.c ****   HAL_TIM_PWM_Start(&htim1, TIM_CHANNEL_3);
 1694              		.loc 1 310 3 view .LVU399
 1695 004e 0421     		movs	r1, #4
 1696 0050 2046     		mov	r0, r4
 1697 0052 FFF7FEFF 		bl	HAL_TIM_PWM_Start
 1698              	.LVL235:
 311:Core/Src/main.c ****   HAL_TIM_PWM_Start(&htim1, TIM_CHANNEL_4);
 1699              		.loc 1 311 3 view .LVU400
 1700 0056 0821     		movs	r1, #8
 1701 0058 2046     		mov	r0, r4
 1702 005a FFF7FEFF 		bl	HAL_TIM_PWM_Start
 1703              	.LVL236:
 312:Core/Src/main.c ****   HAL_TIM_Encoder_Start(&htim3, TIM_CHANNEL_ALL);
 1704              		.loc 1 312 3 view .LVU401
 1705 005e 0C21     		movs	r1, #12
 1706 0060 2046     		mov	r0, r4
 1707 0062 FFF7FEFF 		bl	HAL_TIM_PWM_Start
 1708              	.LVL237:
 313:Core/Src/main.c ****   HAL_TIM_Encoder_Start(&htim4, TIM_CHANNEL_ALL);
 1709              		.loc 1 313 3 view .LVU402
 1710 0066 3C21     		movs	r1, #60
 1711 0068 1C48     		ldr	r0, .L122+16
 1712 006a FFF7FEFF 		bl	HAL_TIM_Encoder_Start
 1713              	.LVL238:
 314:Core/Src/main.c ****   HAL_TIM_Encoder_Start(&htim5, TIM_CHANNEL_ALL);
 1714              		.loc 1 314 3 view .LVU403
 1715 006e 3C21     		movs	r1, #60
 1716 0070 1B48     		ldr	r0, .L122+20
 1717 0072 FFF7FEFF 		bl	HAL_TIM_Encoder_Start
 1718              	.LVL239:
 315:Core/Src/main.c ****   HAL_TIM_Encoder_Start(&htim8, TIM_CHANNEL_ALL);
 1719              		.loc 1 315 3 view .LVU404
 1720 0076 3C21     		movs	r1, #60
 1721 0078 1A48     		ldr	r0, .L122+24
 1722 007a FFF7FEFF 		bl	HAL_TIM_Encoder_Start
 1723              	.LVL240:
 316:Core/Src/main.c ****   HAL_Delay(100);
 1724              		.loc 1 316 3 view .LVU405
 1725 007e 3C21     		movs	r1, #60
 1726 0080 1948     		ldr	r0, .L122+28
 1727 0082 FFF7FEFF 		bl	HAL_TIM_Encoder_Start
 1728              	.LVL241:
 317:Core/Src/main.c ****   HAL_GPIO_WritePin(IN1A_GPIO_Port, IN1A_Pin, SET);
 1729              		.loc 1 317 3 view .LVU406
 1730 0086 6420     		movs	r0, #100
 1731 0088 FFF7FEFF 		bl	HAL_Delay
ARM GAS  C:\Users\86183\AppData\Local\Temp\ccxUIlJQ.s 			page 43


 1732              	.LVL242:
 318:Core/Src/main.c ****   HAL_GPIO_WritePin(IN2B_GPIO_Port, IN2B_Pin, SET);
 1733              		.loc 1 318 3 view .LVU407
 1734 008c 0122     		movs	r2, #1
 1735 008e 4FF48051 		mov	r1, #4096
 1736 0092 1648     		ldr	r0, .L122+32
 1737 0094 FFF7FEFF 		bl	HAL_GPIO_WritePin
 1738              	.LVL243:
 319:Core/Src/main.c ****   HAL_GPIO_WritePin(IN3A_GPIO_Port, IN3A_Pin, SET);
 1739              		.loc 1 319 3 view .LVU408
 1740 0098 154C     		ldr	r4, .L122+36
 1741 009a 0122     		movs	r2, #1
 1742 009c 0221     		movs	r1, #2
 1743 009e 2046     		mov	r0, r4
 1744 00a0 FFF7FEFF 		bl	HAL_GPIO_WritePin
 1745              	.LVL244:
 320:Core/Src/main.c ****   HAL_GPIO_WritePin(IN4B_GPIO_Port, IN4B_Pin, SET);
 1746              		.loc 1 320 3 view .LVU409
 1747 00a4 0122     		movs	r2, #1
 1748 00a6 4FF40051 		mov	r1, #8192
 1749 00aa 2046     		mov	r0, r4
 1750 00ac FFF7FEFF 		bl	HAL_GPIO_WritePin
 1751              	.LVL245:
 321:Core/Src/main.c ****   Calibrate_Angle();
 1752              		.loc 1 321 3 view .LVU410
 1753 00b0 0122     		movs	r2, #1
 1754 00b2 4FF40041 		mov	r1, #32768
 1755 00b6 0F48     		ldr	r0, .L122+40
 1756 00b8 FFF7FEFF 		bl	HAL_GPIO_WritePin
 1757              	.LVL246:
 322:Core/Src/main.c ****   HAL_Delay(100);
 1758              		.loc 1 322 3 view .LVU411
 1759 00bc FFF7FEFF 		bl	Calibrate_Angle
 1760              	.LVL247:
 323:Core/Src/main.c ****   Init();
 1761              		.loc 1 323 3 view .LVU412
 1762 00c0 6420     		movs	r0, #100
 1763 00c2 FFF7FEFF 		bl	HAL_Delay
 1764              	.LVL248:
 324:Core/Src/main.c ****   /* USER CODE END 2 */
 1765              		.loc 1 324 3 view .LVU413
 1766 00c6 FFF7FEFF 		bl	Init
 1767              	.LVL249:
 1768              	.L123:
 1769 00ca 00BF     		.align	2
 1770              	.L122:
 1771 00cc 00000000 		.word	huart2
 1772 00d0 00000000 		.word	huart3
 1773 00d4 00000000 		.word	htim2
 1774 00d8 00000000 		.word	htim1
 1775 00dc 00000000 		.word	htim3
 1776 00e0 00000000 		.word	htim4
 1777 00e4 00000000 		.word	htim5
 1778 00e8 00000000 		.word	htim8
 1779 00ec 00100140 		.word	1073811456
 1780 00f0 000C0140 		.word	1073810432
 1781 00f4 00080140 		.word	1073809408
ARM GAS  C:\Users\86183\AppData\Local\Temp\ccxUIlJQ.s 			page 44


 1782              		.cfi_endproc
 1783              	.LFE76:
 1785              		.global	absoluteAngle
 1786              		.global	angle0
 1787              		.global	STATE
 1788              		.global	target
 1789              		.global	pid
 1790              		.global	Kd
 1791              		.global	Ki
 1792              		.global	Kp
 1793              		.global	pre_err
 1794              		.global	INTEGRAL
 1795              		.section	.bss.INTEGRAL,"aw",%nobits
 1796              		.align	2
 1797              		.set	.LANCHOR0,. + 0
 1800              	INTEGRAL:
 1801 0000 00000000 		.space	16
 1801      00000000 
 1801      00000000 
 1801      00000000 
 1802              		.section	.bss.STATE,"aw",%nobits
 1805              	STATE:
 1806 0000 00       		.space	1
 1807              		.section	.bss.absoluteAngle,"aw",%nobits
 1808              		.align	2
 1809              		.set	.LANCHOR7,. + 0
 1812              	absoluteAngle:
 1813 0000 00000000 		.space	4
 1814              		.section	.bss.angle0,"aw",%nobits
 1815              		.align	2
 1816              		.set	.LANCHOR6,. + 0
 1819              	angle0:
 1820 0000 00000000 		.space	4
 1821              		.section	.bss.pid,"aw",%nobits
 1822              		.align	2
 1823              		.set	.LANCHOR5,. + 0
 1826              	pid:
 1827 0000 00000000 		.space	16
 1827      00000000 
 1827      00000000 
 1827      00000000 
 1828              		.section	.bss.pre_err,"aw",%nobits
 1829              		.align	2
 1830              		.set	.LANCHOR1,. + 0
 1833              	pre_err:
 1834 0000 00000000 		.space	16
 1834      00000000 
 1834      00000000 
 1834      00000000 
 1835              		.section	.data.target,"aw"
 1836              		.align	2
 1837              		.set	.LANCHOR8,. + 0
 1840              	target:
 1841 0000 0000A041 		.word	1101004800
 1842 0004 0000A041 		.word	1101004800
 1843 0008 0000A041 		.word	1101004800
 1844 000c 0000A041 		.word	1101004800
ARM GAS  C:\Users\86183\AppData\Local\Temp\ccxUIlJQ.s 			page 45


 1845              		.section	.rodata.Kd,"a"
 1846              		.align	2
 1847              		.set	.LANCHOR4,. + 0
 1850              	Kd:
 1851 0000 0000C842 		.word	1120403456
 1852 0004 0000C842 		.word	1120403456
 1853 0008 0000C842 		.word	1120403456
 1854 000c 0000C842 		.word	1120403456
 1855              		.section	.rodata.Ki,"a"
 1856              		.align	2
 1857              		.set	.LANCHOR3,. + 0
 1860              	Ki:
 1861 0000 CDCC4C3E 		.word	1045220557
 1862 0004 CDCC4C3E 		.word	1045220557
 1863 0008 CDCC4C3E 		.word	1045220557
 1864 000c CDCC4C3E 		.word	1045220557
 1865              		.section	.rodata.Kp,"a"
 1866              		.align	2
 1867              		.set	.LANCHOR2,. + 0
 1870              	Kp:
 1871 0000 00002042 		.word	1109393408
 1872 0004 00002042 		.word	1109393408
 1873 0008 00002042 		.word	1109393408
 1874 000c 00002042 		.word	1109393408
 1875              		.text
 1876              	.Letext0:
 1877              		.file 3 "d:\\gnu arm embedded toolchain10\\10 2021.07\\arm-none-eabi\\include\\machine\\_default_t
 1878              		.file 4 "d:\\gnu arm embedded toolchain10\\10 2021.07\\arm-none-eabi\\include\\sys\\_stdint.h"
 1879              		.file 5 "Drivers/CMSIS/Device/ST/STM32F1xx/Include/stm32f103xe.h"
 1880              		.file 6 "Drivers/CMSIS/Device/ST/STM32F1xx/Include/stm32f1xx.h"
 1881              		.file 7 "Drivers/STM32F1xx_HAL_Driver/Inc/stm32f1xx_hal_def.h"
 1882              		.file 8 "Drivers/STM32F1xx_HAL_Driver/Inc/stm32f1xx_hal_rcc.h"
 1883              		.file 9 "Drivers/STM32F1xx_HAL_Driver/Inc/stm32f1xx_hal_rcc_ex.h"
 1884              		.file 10 "Drivers/STM32F1xx_HAL_Driver/Inc/stm32f1xx_hal_dma.h"
 1885              		.file 11 "Drivers/STM32F1xx_HAL_Driver/Inc/stm32f1xx_hal_tim.h"
 1886              		.file 12 "Drivers/STM32F1xx_HAL_Driver/Inc/stm32f1xx_hal_uart.h"
 1887              		.file 13 "Core/Inc/tim.h"
 1888              		.file 14 "Core/Inc/usart.h"
 1889              		.file 15 "Drivers/STM32F1xx_HAL_Driver/Inc/stm32f1xx_hal.h"
 1890              		.file 16 "Core/Inc/gpio.h"
 1891              		.file 17 "Core/Inc/dma.h"
 1892              		.file 18 "Core/Inc/jy62.h"
 1893              		.file 19 "Core/Inc/zigbee.h"
 1894              		.file 20 "Drivers/STM32F1xx_HAL_Driver/Inc/stm32f1xx_hal_gpio.h"
 1895              		.file 21 "d:\\gnu arm embedded toolchain10\\10 2021.07\\arm-none-eabi\\include\\math.h"
 1896              		.file 22 "<built-in>"
ARM GAS  C:\Users\86183\AppData\Local\Temp\ccxUIlJQ.s 			page 46


DEFINED SYMBOLS
                            *ABS*:00000000 main.c
C:\Users\86183\AppData\Local\Temp\ccxUIlJQ.s:22     .text.PID:00000000 $t
C:\Users\86183\AppData\Local\Temp\ccxUIlJQ.s:30     .text.PID:00000000 PID
C:\Users\86183\AppData\Local\Temp\ccxUIlJQ.s:172    .text.PID:000000ac $d
C:\Users\86183\AppData\Local\Temp\ccxUIlJQ.s:185    .text.Calibrate_Angle:00000000 $t
C:\Users\86183\AppData\Local\Temp\ccxUIlJQ.s:192    .text.Calibrate_Angle:00000000 Calibrate_Angle
C:\Users\86183\AppData\Local\Temp\ccxUIlJQ.s:394    .text.Calibrate_Angle:000000c8 $d
C:\Users\86183\AppData\Local\Temp\ccxUIlJQ.s:404    .text.getAngle:00000000 $t
C:\Users\86183\AppData\Local\Temp\ccxUIlJQ.s:411    .text.getAngle:00000000 getAngle
C:\Users\86183\AppData\Local\Temp\ccxUIlJQ.s:472    .text.getAngle:00000040 $d
C:\Users\86183\AppData\Local\Temp\ccxUIlJQ.s:480    .text.Set_Left_Direction:00000000 $t
C:\Users\86183\AppData\Local\Temp\ccxUIlJQ.s:487    .text.Set_Left_Direction:00000000 Set_Left_Direction
C:\Users\86183\AppData\Local\Temp\ccxUIlJQ.s:575    .text.Set_Left_Direction:00000074 $d
C:\Users\86183\AppData\Local\Temp\ccxUIlJQ.s:581    .text.Set_Right_Direction:00000000 $t
C:\Users\86183\AppData\Local\Temp\ccxUIlJQ.s:588    .text.Set_Right_Direction:00000000 Set_Right_Direction
C:\Users\86183\AppData\Local\Temp\ccxUIlJQ.s:675    .text.Set_Right_Direction:00000078 $d
C:\Users\86183\AppData\Local\Temp\ccxUIlJQ.s:682    .text.Set_Speed:00000000 $t
C:\Users\86183\AppData\Local\Temp\ccxUIlJQ.s:689    .text.Set_Speed:00000000 Set_Speed
C:\Users\86183\AppData\Local\Temp\ccxUIlJQ.s:706    .text.Set_Speed:00000008 $d
C:\Users\86183\AppData\Local\Temp\ccxUIlJQ.s:711    .text.Add_Angle:00000000 $t
C:\Users\86183\AppData\Local\Temp\ccxUIlJQ.s:718    .text.Add_Angle:00000000 Add_Angle
C:\Users\86183\AppData\Local\Temp\ccxUIlJQ.s:777    .text.Add_Angle:00000038 $d
C:\Users\86183\AppData\Local\Temp\ccxUIlJQ.s:784    .text.Turn:00000000 $t
C:\Users\86183\AppData\Local\Temp\ccxUIlJQ.s:791    .text.Turn:00000000 Turn
C:\Users\86183\AppData\Local\Temp\ccxUIlJQ.s:984    .text.Turn:000000c0 $d
C:\Users\86183\AppData\Local\Temp\ccxUIlJQ.s:998    .text.HAL_TIM_PeriodElapsedCallback:00000000 $t
C:\Users\86183\AppData\Local\Temp\ccxUIlJQ.s:1005   .text.HAL_TIM_PeriodElapsedCallback:00000000 HAL_TIM_PeriodElapsedCallback
C:\Users\86183\AppData\Local\Temp\ccxUIlJQ.s:1302   .text.HAL_TIM_PeriodElapsedCallback:00000158 $d
C:\Users\86183\AppData\Local\Temp\ccxUIlJQ.s:1319   .text.MoveTo:00000000 $t
C:\Users\86183\AppData\Local\Temp\ccxUIlJQ.s:1326   .text.MoveTo:00000000 MoveTo
C:\Users\86183\AppData\Local\Temp\ccxUIlJQ.s:1421   .text.MoveTo:00000068 $d
C:\Users\86183\AppData\Local\Temp\ccxUIlJQ.s:1429   .text.Init:00000000 $t
C:\Users\86183\AppData\Local\Temp\ccxUIlJQ.s:1436   .text.Init:00000000 Init
C:\Users\86183\AppData\Local\Temp\ccxUIlJQ.s:1470   .text.Error_Handler:00000000 $t
C:\Users\86183\AppData\Local\Temp\ccxUIlJQ.s:1477   .text.Error_Handler:00000000 Error_Handler
C:\Users\86183\AppData\Local\Temp\ccxUIlJQ.s:1509   .text.SystemClock_Config:00000000 $t
C:\Users\86183\AppData\Local\Temp\ccxUIlJQ.s:1516   .text.SystemClock_Config:00000000 SystemClock_Config
C:\Users\86183\AppData\Local\Temp\ccxUIlJQ.s:1621   .text.main:00000000 $t
C:\Users\86183\AppData\Local\Temp\ccxUIlJQ.s:1628   .text.main:00000000 main
C:\Users\86183\AppData\Local\Temp\ccxUIlJQ.s:1771   .text.main:000000cc $d
C:\Users\86183\AppData\Local\Temp\ccxUIlJQ.s:1812   .bss.absoluteAngle:00000000 absoluteAngle
C:\Users\86183\AppData\Local\Temp\ccxUIlJQ.s:1819   .bss.angle0:00000000 angle0
C:\Users\86183\AppData\Local\Temp\ccxUIlJQ.s:1805   .bss.STATE:00000000 STATE
C:\Users\86183\AppData\Local\Temp\ccxUIlJQ.s:1840   .data.target:00000000 target
C:\Users\86183\AppData\Local\Temp\ccxUIlJQ.s:1826   .bss.pid:00000000 pid
C:\Users\86183\AppData\Local\Temp\ccxUIlJQ.s:1850   .rodata.Kd:00000000 Kd
C:\Users\86183\AppData\Local\Temp\ccxUIlJQ.s:1860   .rodata.Ki:00000000 Ki
C:\Users\86183\AppData\Local\Temp\ccxUIlJQ.s:1870   .rodata.Kp:00000000 Kp
C:\Users\86183\AppData\Local\Temp\ccxUIlJQ.s:1833   .bss.pre_err:00000000 pre_err
C:\Users\86183\AppData\Local\Temp\ccxUIlJQ.s:1800   .bss.INTEGRAL:00000000 INTEGRAL
C:\Users\86183\AppData\Local\Temp\ccxUIlJQ.s:1796   .bss.INTEGRAL:00000000 $d
C:\Users\86183\AppData\Local\Temp\ccxUIlJQ.s:1806   .bss.STATE:00000000 $d
C:\Users\86183\AppData\Local\Temp\ccxUIlJQ.s:1808   .bss.absoluteAngle:00000000 $d
C:\Users\86183\AppData\Local\Temp\ccxUIlJQ.s:1815   .bss.angle0:00000000 $d
C:\Users\86183\AppData\Local\Temp\ccxUIlJQ.s:1822   .bss.pid:00000000 $d
C:\Users\86183\AppData\Local\Temp\ccxUIlJQ.s:1829   .bss.pre_err:00000000 $d
ARM GAS  C:\Users\86183\AppData\Local\Temp\ccxUIlJQ.s 			page 47


C:\Users\86183\AppData\Local\Temp\ccxUIlJQ.s:1836   .data.target:00000000 $d
C:\Users\86183\AppData\Local\Temp\ccxUIlJQ.s:1846   .rodata.Kd:00000000 $d
C:\Users\86183\AppData\Local\Temp\ccxUIlJQ.s:1856   .rodata.Ki:00000000 $d
C:\Users\86183\AppData\Local\Temp\ccxUIlJQ.s:1866   .rodata.Kp:00000000 $d

UNDEFINED SYMBOLS
__aeabi_fsub
__aeabi_fmul
__aeabi_fadd
__aeabi_fcmpgt
__aeabi_fdiv
__aeabi_fcmplt
GetYaw
HAL_GPIO_WritePin
HAL_Delay
__aeabi_ui2f
__aeabi_f2d
__aeabi_dmul
__aeabi_d2f
__aeabi_f2iz
htim3
htim4
htim5
htim8
htim1
__aeabi_i2d
getCarPosX
getCarPosY
atan2
getGameState
memset
HAL_RCC_OscConfig
HAL_RCC_ClockConfig
HAL_Init
MX_GPIO_Init
MX_TIM1_Init
MX_TIM2_Init
MX_TIM3_Init
MX_TIM4_Init
MX_TIM5_Init
MX_TIM8_Init
MX_USART3_UART_Init
MX_DMA_Init
MX_USART2_UART_Init
jy62_Init
zigbee_Init
HAL_TIM_Base_Start_IT
HAL_TIM_PWM_Start
HAL_TIM_Encoder_Start
huart2
huart3
htim2
