ARM GAS  C:\Users\86183\AppData\Local\Temp\ccdSsS0f.s 			page 1


   1              		.cpu cortex-m3
   2              		.eabi_attribute 20, 1
   3              		.eabi_attribute 21, 1
   4              		.eabi_attribute 23, 3
   5              		.eabi_attribute 24, 1
   6              		.eabi_attribute 25, 1
   7              		.eabi_attribute 26, 1
   8              		.eabi_attribute 30, 1
   9              		.eabi_attribute 34, 1
  10              		.eabi_attribute 18, 4
  11              		.file	"main.c"
  12              		.text
  13              	.Ltext0:
  14              		.cfi_sections	.debug_frame
  15              		.section	.text.userGetMineNum,"ax",%progbits
  16              		.align	1
  17              		.global	userGetMineNum
  18              		.arch armv7-m
  19              		.syntax unified
  20              		.thumb
  21              		.thumb_func
  22              		.fpu softvfp
  24              	userGetMineNum:
  25              	.LVL0:
  26              	.LFB65:
  27              		.file 1 "Core/Src/main.c"
   1:Core/Src/main.c **** /* USER CODE BEGIN Header */
   2:Core/Src/main.c **** /**
   3:Core/Src/main.c ****  ******************************************************************************
   4:Core/Src/main.c ****  * @file           : main.c
   5:Core/Src/main.c ****  * @brief          : Main program body
   6:Core/Src/main.c ****  ******************************************************************************
   7:Core/Src/main.c ****  * @attention
   8:Core/Src/main.c ****  *
   9:Core/Src/main.c ****  * <h2><center>&copy; Copyright (c) 2021 STMicroelectronics.
  10:Core/Src/main.c ****  * All rights reserved.</center></h2>
  11:Core/Src/main.c ****  *
  12:Core/Src/main.c ****  * This software component is licensed by ST under BSD 3-Clause license,
  13:Core/Src/main.c ****  * the "License"; You may not use this file except in compliance with the
  14:Core/Src/main.c ****  * License. You may obtain a copy of the License at:
  15:Core/Src/main.c ****  *                        opensource.org/licenses/BSD-3-Clause
  16:Core/Src/main.c ****  *
  17:Core/Src/main.c ****  ******************************************************************************
  18:Core/Src/main.c ****  */
  19:Core/Src/main.c **** /* USER CODE END Header */
  20:Core/Src/main.c **** /* Includes ------------------------------------------------------------------*/
  21:Core/Src/main.c **** #include "main.h"
  22:Core/Src/main.c **** #include "dma.h"
  23:Core/Src/main.c **** #include "tim.h"
  24:Core/Src/main.c **** #include "usart.h"
  25:Core/Src/main.c **** #include "gpio.h"
  26:Core/Src/main.c **** 
  27:Core/Src/main.c **** /* Private includes ----------------------------------------------------------*/
  28:Core/Src/main.c **** /* USER CODE BEGIN Includes */
  29:Core/Src/main.c **** #include <math.h>
  30:Core/Src/main.c **** #include "jy62.h"
  31:Core/Src/main.c **** #include "zigbee.h"
ARM GAS  C:\Users\86183\AppData\Local\Temp\ccdSsS0f.s 			page 2


  32:Core/Src/main.c **** /* USER CODE END Includes */
  33:Core/Src/main.c **** 
  34:Core/Src/main.c **** /* Private typedef -----------------------------------------------------------*/
  35:Core/Src/main.c **** /* USER CODE BEGIN PTD */
  36:Core/Src/main.c **** /* USER CODE END PTD */
  37:Core/Src/main.c **** 
  38:Core/Src/main.c **** /* Private define ------------------------------------------------------------*/
  39:Core/Src/main.c **** /* USER CODE BEGIN PD */
  40:Core/Src/main.c **** /* USER CODE END PD */
  41:Core/Src/main.c **** 
  42:Core/Src/main.c **** /* Private macro -------------------------------------------------------------*/
  43:Core/Src/main.c **** /* USER CODE BEGIN PM */
  44:Core/Src/main.c **** 
  45:Core/Src/main.c **** /* USER CODE END PM */
  46:Core/Src/main.c **** 
  47:Core/Src/main.c **** /* Private variables ---------------------------------------------------------*/
  48:Core/Src/main.c **** 
  49:Core/Src/main.c **** /* USER CODE BEGIN PV */
  50:Core/Src/main.c **** /* USER CODE END PV */
  51:Core/Src/main.c **** 
  52:Core/Src/main.c **** /* Private function prototypes -----------------------------------------------*/
  53:Core/Src/main.c **** void SystemClock_Config(void);
  54:Core/Src/main.c **** /* USER CODE BEGIN PFP */
  55:Core/Src/main.c **** 
  56:Core/Src/main.c **** /* USER CODE END PFP */
  57:Core/Src/main.c **** 
  58:Core/Src/main.c **** /* Private user code ---------------------------------------------------------*/
  59:Core/Src/main.c **** /* USER CODE BEGIN 0 */
  60:Core/Src/main.c **** #define Turn_Angle_Bias 10
  61:Core/Src/main.c **** #define PID_MAX 900
  62:Core/Src/main.c **** #define PID_MIN 0
  63:Core/Src/main.c **** #define GET_PACKAGE 0
  64:Core/Src/main.c **** #define PUT_PACKAGE 1
  65:Core/Src/main.c **** #define SET_BEACON 2
  66:Core/Src/main.c **** #define EMPTY_STATE 3
  67:Core/Src/main.c **** #define TIME_UP 4
  68:Core/Src/main.c **** #define sq(x) ((x) * (x))
  69:Core/Src/main.c **** 
  70:Core/Src/main.c **** float packageX[2], packageY[2];
  71:Core/Src/main.c **** /*PID参数----------------------------------------------------------------------*/
  72:Core/Src/main.c **** float INTEGRAL[4] = {0, 0, 0, 0}, pre_err[4] = {0, 0, 0, 0};
  73:Core/Src/main.c **** const float Kp[4] = {40, 40, 40, 40}, Ki[4] = {0.2, 0.2, 0.2, 0.2}, Kd[4] = {100, 100, 100, 100};
  74:Core/Src/main.c **** float pid[4] = {0, 0, 0, 0};
  75:Core/Src/main.c **** float target[4] = {0, 0, 0, 0};
  76:Core/Src/main.c **** 
  77:Core/Src/main.c **** float distance;
  78:Core/Src/main.c **** float BeaconDir[3][2] = {{64, 64}, {192, 64}, {128, 190}}; // 信标坐标
  79:Core/Src/main.c **** uint8_t STATE;
  80:Core/Src/main.c **** uint8_t isInitialMinePark = 0;
  81:Core/Src/main.c **** float angle0;
  82:Core/Src/main.c **** float absoluteAngle;
  83:Core/Src/main.c **** 
  84:Core/Src/main.c **** struct MYCOORD
  85:Core/Src/main.c **** {
  86:Core/Src/main.c ****   float x, y;
  87:Core/Src/main.c ****   float I; //矿物强度
  88:Core/Src/main.c **** };
ARM GAS  C:\Users\86183\AppData\Local\Temp\ccdSsS0f.s 			page 3


  89:Core/Src/main.c **** 
  90:Core/Src/main.c **** struct MYCOORD surveyData[2][3];
  91:Core/Src/main.c **** int surveyDataCount[2]; // 0 ~ 4 4 代表坐标已经计算完成.
  92:Core/Src/main.c **** 
  93:Core/Src/main.c **** struct PARK
  94:Core/Src/main.c **** {
  95:Core/Src/main.c ****   float x, y;
  96:Core/Src/main.c ****   uint16_t mineType;
  97:Core/Src/main.c **** };
  98:Core/Src/main.c **** 
  99:Core/Src/main.c **** struct RIVALBEACON
 100:Core/Src/main.c **** {
 101:Core/Src/main.c ****   float x, y;
 102:Core/Src/main.c **** };
 103:Core/Src/main.c **** 
 104:Core/Src/main.c **** struct PARK Park[15] = {{15, 15, 0}, {127, 15, 0}, {239, 15, 0}, {239, 127, 0}, {239, 239, 0}, {127
 105:Core/Src/main.c **** struct RIVALBEACON RivalBeacon[3] = {{0, 0}, {0, 0}, {0, 0}};
 106:Core/Src/main.c **** 
 107:Core/Src/main.c **** uint16_t userGetMineNum(uint16_t _mineType)
 108:Core/Src/main.c **** {
  28              		.loc 1 108 1 view -0
  29              		.cfi_startproc
  30              		@ args = 0, pretend = 0, frame = 0
  31              		@ frame_needed = 0, uses_anonymous_args = 0
  32              		.loc 1 108 1 is_stmt 0 view .LVU1
  33 0000 08B5     		push	{r3, lr}
  34              	.LCFI0:
  35              		.cfi_def_cfa_offset 8
  36              		.cfi_offset 3, -8
  37              		.cfi_offset 14, -4
 109:Core/Src/main.c ****   if (_mineType == 0)
  38              		.loc 1 109 3 is_stmt 1 view .LVU2
  39              		.loc 1 109 6 is_stmt 0 view .LVU3
  40 0002 38B1     		cbz	r0, .L8
 110:Core/Src/main.c ****     return getCarMineANum();
 111:Core/Src/main.c ****   if (_mineType == 1)
  41              		.loc 1 111 3 is_stmt 1 view .LVU4
  42              		.loc 1 111 6 is_stmt 0 view .LVU5
  43 0004 0128     		cmp	r0, #1
  44 0006 08D0     		beq	.L9
 112:Core/Src/main.c ****     return getCarMineBNum();
 113:Core/Src/main.c ****   if (_mineType == 2)
  45              		.loc 1 113 3 is_stmt 1 view .LVU6
  46              		.loc 1 113 6 is_stmt 0 view .LVU7
  47 0008 0228     		cmp	r0, #2
  48 000a 09D0     		beq	.L10
 114:Core/Src/main.c ****     return getCarMineCNum();
 115:Core/Src/main.c ****   if (_mineType == 3)
  49              		.loc 1 115 3 is_stmt 1 view .LVU8
  50              		.loc 1 115 6 is_stmt 0 view .LVU9
  51 000c 0328     		cmp	r0, #3
  52 000e 0AD0     		beq	.L11
 116:Core/Src/main.c ****     return getCarMineDNum();
 117:Core/Src/main.c ****   return 0;
  53              		.loc 1 117 10 view .LVU10
  54 0010 0020     		movs	r0, #0
  55              	.LVL1:
ARM GAS  C:\Users\86183\AppData\Local\Temp\ccdSsS0f.s 			page 4


  56              	.L3:
 118:Core/Src/main.c **** }
  57              		.loc 1 118 1 view .LVU11
  58 0012 08BD     		pop	{r3, pc}
  59              	.LVL2:
  60              	.L8:
 110:Core/Src/main.c ****   if (_mineType == 1)
  61              		.loc 1 110 5 is_stmt 1 view .LVU12
 110:Core/Src/main.c ****   if (_mineType == 1)
  62              		.loc 1 110 12 is_stmt 0 view .LVU13
  63 0014 FFF7FEFF 		bl	getCarMineANum
  64              	.LVL3:
 110:Core/Src/main.c ****   if (_mineType == 1)
  65              		.loc 1 110 12 view .LVU14
  66 0018 FBE7     		b	.L3
  67              	.LVL4:
  68              	.L9:
 112:Core/Src/main.c ****   if (_mineType == 2)
  69              		.loc 1 112 5 is_stmt 1 view .LVU15
 112:Core/Src/main.c ****   if (_mineType == 2)
  70              		.loc 1 112 12 is_stmt 0 view .LVU16
  71 001a FFF7FEFF 		bl	getCarMineBNum
  72              	.LVL5:
 112:Core/Src/main.c ****   if (_mineType == 2)
  73              		.loc 1 112 12 view .LVU17
  74 001e F8E7     		b	.L3
  75              	.LVL6:
  76              	.L10:
 114:Core/Src/main.c ****   if (_mineType == 3)
  77              		.loc 1 114 5 is_stmt 1 view .LVU18
 114:Core/Src/main.c ****   if (_mineType == 3)
  78              		.loc 1 114 12 is_stmt 0 view .LVU19
  79 0020 FFF7FEFF 		bl	getCarMineCNum
  80              	.LVL7:
 114:Core/Src/main.c ****   if (_mineType == 3)
  81              		.loc 1 114 12 view .LVU20
  82 0024 F5E7     		b	.L3
  83              	.LVL8:
  84              	.L11:
 116:Core/Src/main.c ****   return 0;
  85              		.loc 1 116 5 is_stmt 1 view .LVU21
 116:Core/Src/main.c ****   return 0;
  86              		.loc 1 116 12 is_stmt 0 view .LVU22
  87 0026 FFF7FEFF 		bl	getCarMineDNum
  88              	.LVL9:
 116:Core/Src/main.c ****   return 0;
  89              		.loc 1 116 12 view .LVU23
  90 002a F2E7     		b	.L3
  91              		.cfi_endproc
  92              	.LFE65:
  94              		.section	.text.clearDistance,"ax",%progbits
  95              		.align	1
  96              		.global	clearDistance
  97              		.syntax unified
  98              		.thumb
  99              		.thumb_func
 100              		.fpu softvfp
ARM GAS  C:\Users\86183\AppData\Local\Temp\ccdSsS0f.s 			page 5


 102              	clearDistance:
 103              	.LFB66:
 119:Core/Src/main.c **** 
 120:Core/Src/main.c **** void clearDistance()
 121:Core/Src/main.c **** {
 104              		.loc 1 121 1 is_stmt 1 view -0
 105              		.cfi_startproc
 106              		@ args = 0, pretend = 0, frame = 0
 107              		@ frame_needed = 0, uses_anonymous_args = 0
 108              		@ link register save eliminated.
 122:Core/Src/main.c ****   distance = 0;
 109              		.loc 1 122 3 view .LVU25
 110              		.loc 1 122 12 is_stmt 0 view .LVU26
 111 0000 014B     		ldr	r3, .L13
 112 0002 0022     		movs	r2, #0
 113 0004 1A60     		str	r2, [r3]	@ float
 123:Core/Src/main.c **** }
 114              		.loc 1 123 1 view .LVU27
 115 0006 7047     		bx	lr
 116              	.L14:
 117              		.align	2
 118              	.L13:
 119 0008 00000000 		.word	.LANCHOR0
 120              		.cfi_endproc
 121              	.LFE66:
 123              		.section	.text.getDistance,"ax",%progbits
 124              		.align	1
 125              		.global	getDistance
 126              		.syntax unified
 127              		.thumb
 128              		.thumb_func
 129              		.fpu softvfp
 131              	getDistance:
 132              	.LFB67:
 124:Core/Src/main.c **** 
 125:Core/Src/main.c **** float getDistance()
 126:Core/Src/main.c **** {
 133              		.loc 1 126 1 is_stmt 1 view -0
 134              		.cfi_startproc
 135              		@ args = 0, pretend = 0, frame = 0
 136              		@ frame_needed = 0, uses_anonymous_args = 0
 137              		@ link register save eliminated.
 127:Core/Src/main.c ****   return distance;
 138              		.loc 1 127 3 view .LVU29
 128:Core/Src/main.c **** }
 139              		.loc 1 128 1 is_stmt 0 view .LVU30
 140 0000 014B     		ldr	r3, .L16
 141 0002 1868     		ldr	r0, [r3]	@ float
 142 0004 7047     		bx	lr
 143              	.L17:
 144 0006 00BF     		.align	2
 145              	.L16:
 146 0008 00000000 		.word	.LANCHOR0
 147              		.cfi_endproc
 148              	.LFE67:
 150              		.global	__aeabi_fsub
 151              		.global	__aeabi_fmul
ARM GAS  C:\Users\86183\AppData\Local\Temp\ccdSsS0f.s 			page 6


 152              		.global	__aeabi_fadd
 153              		.global	__aeabi_fcmpgt
 154              		.global	__aeabi_fdiv
 155              		.global	__aeabi_fcmplt
 156              		.section	.text.PID,"ax",%progbits
 157              		.align	1
 158              		.global	PID
 159              		.syntax unified
 160              		.thumb
 161              		.thumb_func
 162              		.fpu softvfp
 164              	PID:
 165              	.LVL10:
 166              	.LFB68:
 129:Core/Src/main.c **** 
 130:Core/Src/main.c **** float PID(float in, float target, int i)
 131:Core/Src/main.c **** {
 167              		.loc 1 131 1 is_stmt 1 view -0
 168              		.cfi_startproc
 169              		@ args = 0, pretend = 0, frame = 0
 170              		@ frame_needed = 0, uses_anonymous_args = 0
 171              		.loc 1 131 1 is_stmt 0 view .LVU32
 172 0000 F8B5     		push	{r3, r4, r5, r6, r7, lr}
 173              	.LCFI1:
 174              		.cfi_def_cfa_offset 24
 175              		.cfi_offset 3, -24
 176              		.cfi_offset 4, -20
 177              		.cfi_offset 5, -16
 178              		.cfi_offset 6, -12
 179              		.cfi_offset 7, -8
 180              		.cfi_offset 14, -4
 181 0002 0B46     		mov	r3, r1
 182 0004 1446     		mov	r4, r2
 132:Core/Src/main.c ****   float err = target - in;
 183              		.loc 1 132 3 is_stmt 1 view .LVU33
 184              		.loc 1 132 9 is_stmt 0 view .LVU34
 185 0006 0146     		mov	r1, r0
 186              	.LVL11:
 187              		.loc 1 132 9 view .LVU35
 188 0008 1846     		mov	r0, r3
 189              	.LVL12:
 190              		.loc 1 132 9 view .LVU36
 191 000a FFF7FEFF 		bl	__aeabi_fsub
 192              	.LVL13:
 193              		.loc 1 132 9 view .LVU37
 194 000e 0546     		mov	r5, r0
 195              	.LVL14:
 133:Core/Src/main.c ****   INTEGRAL[i] += err * 20;
 196              		.loc 1 133 3 is_stmt 1 view .LVU38
 197              		.loc 1 133 22 is_stmt 0 view .LVU39
 198 0010 2649     		ldr	r1, .L27
 199 0012 FFF7FEFF 		bl	__aeabi_fmul
 200              	.LVL15:
 201              		.loc 1 133 15 view .LVU40
 202 0016 264E     		ldr	r6, .L27+4
 203 0018 56F82410 		ldr	r1, [r6, r4, lsl #2]	@ float
 204 001c FFF7FEFF 		bl	__aeabi_fadd
ARM GAS  C:\Users\86183\AppData\Local\Temp\ccdSsS0f.s 			page 7


 205              	.LVL16:
 206 0020 46F82400 		str	r0, [r6, r4, lsl #2]	@ float
 134:Core/Src/main.c ****   if (INTEGRAL[i] > 8000)
 207              		.loc 1 134 3 is_stmt 1 view .LVU41
 208              		.loc 1 134 6 is_stmt 0 view .LVU42
 209 0024 2349     		ldr	r1, .L27+8
 210 0026 FFF7FEFF 		bl	__aeabi_fcmpgt
 211              	.LVL17:
 212 002a 10B1     		cbz	r0, .L19
 135:Core/Src/main.c ****     INTEGRAL[i] = 8000;
 213              		.loc 1 135 5 is_stmt 1 view .LVU43
 214              		.loc 1 135 17 is_stmt 0 view .LVU44
 215 002c 214A     		ldr	r2, .L27+8
 216 002e 46F82420 		str	r2, [r6, r4, lsl #2]	@ float
 217              	.L19:
 136:Core/Src/main.c ****   float derr = (err - pre_err[i]) / 20;
 218              		.loc 1 136 3 is_stmt 1 view .LVU45
 219              		.loc 1 136 30 is_stmt 0 view .LVU46
 220 0032 214F     		ldr	r7, .L27+12
 221              		.loc 1 136 21 view .LVU47
 222 0034 57F82410 		ldr	r1, [r7, r4, lsl #2]	@ float
 223 0038 2846     		mov	r0, r5
 224 003a FFF7FEFF 		bl	__aeabi_fsub
 225              	.LVL18:
 226              		.loc 1 136 9 view .LVU48
 227 003e 1B49     		ldr	r1, .L27
 228 0040 FFF7FEFF 		bl	__aeabi_fdiv
 229              	.LVL19:
 230 0044 0646     		mov	r6, r0
 231              	.LVL20:
 137:Core/Src/main.c ****   pre_err[i] = err;
 232              		.loc 1 137 3 is_stmt 1 view .LVU49
 233              		.loc 1 137 14 is_stmt 0 view .LVU50
 234 0046 47F82450 		str	r5, [r7, r4, lsl #2]	@ float
 138:Core/Src/main.c ****   pid[i] = (Kp[i] * err) + (Ki[i] * INTEGRAL[i]) + (Kd[i] * derr);
 235              		.loc 1 138 3 is_stmt 1 view .LVU51
 236              		.loc 1 138 19 is_stmt 0 view .LVU52
 237 004a 2946     		mov	r1, r5
 238 004c 1B4B     		ldr	r3, .L27+16
 239 004e 53F82400 		ldr	r0, [r3, r4, lsl #2]	@ float
 240              	.LVL21:
 241              		.loc 1 138 19 view .LVU53
 242 0052 FFF7FEFF 		bl	__aeabi_fmul
 243              	.LVL22:
 244 0056 0546     		mov	r5, r0
 245              	.LVL23:
 246              		.loc 1 138 35 view .LVU54
 247 0058 154B     		ldr	r3, .L27+4
 248 005a 53F82410 		ldr	r1, [r3, r4, lsl #2]	@ float
 249 005e 184B     		ldr	r3, .L27+20
 250 0060 53F82400 		ldr	r0, [r3, r4, lsl #2]	@ float
 251 0064 FFF7FEFF 		bl	__aeabi_fmul
 252              	.LVL24:
 253 0068 0146     		mov	r1, r0
 254              		.loc 1 138 26 view .LVU55
 255 006a 2846     		mov	r0, r5
 256 006c FFF7FEFF 		bl	__aeabi_fadd
ARM GAS  C:\Users\86183\AppData\Local\Temp\ccdSsS0f.s 			page 8


 257              	.LVL25:
 258 0070 0546     		mov	r5, r0
 259              		.loc 1 138 59 view .LVU56
 260 0072 3146     		mov	r1, r6
 261 0074 134B     		ldr	r3, .L27+24
 262 0076 53F82400 		ldr	r0, [r3, r4, lsl #2]	@ float
 263 007a FFF7FEFF 		bl	__aeabi_fmul
 264              	.LVL26:
 265 007e 0146     		mov	r1, r0
 266              		.loc 1 138 50 view .LVU57
 267 0080 2846     		mov	r0, r5
 268 0082 FFF7FEFF 		bl	__aeabi_fadd
 269              	.LVL27:
 270 0086 0546     		mov	r5, r0
 271              		.loc 1 138 10 view .LVU58
 272 0088 0F4B     		ldr	r3, .L27+28
 273 008a 43F82400 		str	r0, [r3, r4, lsl #2]	@ float
 139:Core/Src/main.c ****   float output;
 274              		.loc 1 139 3 is_stmt 1 view .LVU59
 140:Core/Src/main.c ****   if (pid[i] < PID_MIN)
 275              		.loc 1 140 3 view .LVU60
 276              		.loc 1 140 6 is_stmt 0 view .LVU61
 277 008e 0021     		movs	r1, #0
 278 0090 FFF7FEFF 		bl	__aeabi_fcmplt
 279              	.LVL28:
 280 0094 30B9     		cbnz	r0, .L23
 141:Core/Src/main.c ****     output = PID_MIN;
 142:Core/Src/main.c ****   else if (pid[i] > PID_MAX)
 281              		.loc 1 142 8 is_stmt 1 view .LVU62
 282              		.loc 1 142 11 is_stmt 0 view .LVU63
 283 0096 0D49     		ldr	r1, .L27+32
 284 0098 2846     		mov	r0, r5
 285 009a FFF7FEFF 		bl	__aeabi_fcmpgt
 286              	.LVL29:
 287 009e 10B1     		cbz	r0, .L18
 143:Core/Src/main.c ****     output = PID_MAX;
 288              		.loc 1 143 12 view .LVU64
 289 00a0 0A4D     		ldr	r5, .L27+32
 290 00a2 00E0     		b	.L18
 291              	.L23:
 141:Core/Src/main.c ****     output = PID_MIN;
 292              		.loc 1 141 12 view .LVU65
 293 00a4 0025     		movs	r5, #0
 294              	.LVL30:
 144:Core/Src/main.c ****   else
 145:Core/Src/main.c ****     output = pid[i];
 146:Core/Src/main.c ****   return output;
 295              		.loc 1 146 3 is_stmt 1 view .LVU66
 296              	.L18:
 147:Core/Src/main.c **** }
 297              		.loc 1 147 1 is_stmt 0 view .LVU67
 298 00a6 2846     		mov	r0, r5
 299 00a8 F8BD     		pop	{r3, r4, r5, r6, r7, pc}
 300              	.LVL31:
 301              	.L28:
 302              		.loc 1 147 1 view .LVU68
 303 00aa 00BF     		.align	2
ARM GAS  C:\Users\86183\AppData\Local\Temp\ccdSsS0f.s 			page 9


 304              	.L27:
 305 00ac 0000A041 		.word	1101004800
 306 00b0 00000000 		.word	.LANCHOR1
 307 00b4 0000FA45 		.word	1174011904
 308 00b8 00000000 		.word	.LANCHOR2
 309 00bc 00000000 		.word	.LANCHOR3
 310 00c0 00000000 		.word	.LANCHOR4
 311 00c4 00000000 		.word	.LANCHOR5
 312 00c8 00000000 		.word	.LANCHOR6
 313 00cc 00006144 		.word	1147207680
 314              		.cfi_endproc
 315              	.LFE68:
 317              		.section	.text.Calibrate_Angle,"ax",%progbits
 318              		.align	1
 319              		.global	Calibrate_Angle
 320              		.syntax unified
 321              		.thumb
 322              		.thumb_func
 323              		.fpu softvfp
 325              	Calibrate_Angle:
 326              	.LFB69:
 148:Core/Src/main.c **** 
 149:Core/Src/main.c **** void Calibrate_Angle()
 150:Core/Src/main.c **** {
 327              		.loc 1 150 1 is_stmt 1 view -0
 328              		.cfi_startproc
 329              		@ args = 0, pretend = 0, frame = 0
 330              		@ frame_needed = 0, uses_anonymous_args = 0
 331 0000 38B5     		push	{r3, r4, r5, lr}
 332              	.LCFI2:
 333              		.cfi_def_cfa_offset 16
 334              		.cfi_offset 3, -16
 335              		.cfi_offset 4, -12
 336              		.cfi_offset 5, -8
 337              		.cfi_offset 14, -4
 151:Core/Src/main.c ****   float temp = GetYaw();
 338              		.loc 1 151 3 view .LVU70
 339              		.loc 1 151 16 is_stmt 0 view .LVU71
 340 0002 FFF7FEFF 		bl	GetYaw
 341              	.LVL32:
 342 0006 0446     		mov	r4, r0
 343              	.LVL33:
 152:Core/Src/main.c ****   angle0 = temp / 20;
 344              		.loc 1 152 3 is_stmt 1 view .LVU72
 345              		.loc 1 152 17 is_stmt 0 view .LVU73
 346 0008 2F49     		ldr	r1, .L48
 347 000a FFF7FEFF 		bl	__aeabi_fdiv
 348              	.LVL34:
 349              		.loc 1 152 10 view .LVU74
 350 000e 2F4B     		ldr	r3, .L48+4
 351 0010 1860     		str	r0, [r3]	@ float
 153:Core/Src/main.c ****   if (temp < 60)
 352              		.loc 1 153 3 is_stmt 1 view .LVU75
 353              		.loc 1 153 6 is_stmt 0 view .LVU76
 354 0012 2F49     		ldr	r1, .L48+8
 355 0014 2046     		mov	r0, r4
 356 0016 FFF7FEFF 		bl	__aeabi_fcmplt
ARM GAS  C:\Users\86183\AppData\Local\Temp\ccdSsS0f.s 			page 10


 357              	.LVL35:
 358 001a 0028     		cmp	r0, #0
 359 001c 30D1     		bne	.L42
 154:Core/Src/main.c ****     for (int i = 1; i < 20; i++)
 155:Core/Src/main.c ****     {
 156:Core/Src/main.c ****       if ((temp = GetYaw()) > 300)
 157:Core/Src/main.c ****         temp -= 360;
 158:Core/Src/main.c ****       angle0 += temp / 20;
 159:Core/Src/main.c ****     }
 160:Core/Src/main.c ****   else if (temp > 300)
 360              		.loc 1 160 8 is_stmt 1 view .LVU77
 361              		.loc 1 160 11 is_stmt 0 view .LVU78
 362 001e 2D49     		ldr	r1, .L48+12
 363 0020 2046     		mov	r0, r4
 364 0022 FFF7FEFF 		bl	__aeabi_fcmpgt
 365              	.LVL36:
 366 0026 0028     		cmp	r0, #0
 367 0028 47D1     		bne	.L43
 368              	.LBB4:
 161:Core/Src/main.c ****     for (int i = 1; i < 20; i++)
 162:Core/Src/main.c ****     {
 163:Core/Src/main.c ****       if ((temp = GetYaw()) < 60)
 164:Core/Src/main.c ****         temp += 360;
 165:Core/Src/main.c ****       angle0 += temp / 20;
 166:Core/Src/main.c ****     }
 167:Core/Src/main.c ****   else
 168:Core/Src/main.c ****     for (int i = 1; i < 20; i++)
 369              		.loc 1 168 14 view .LVU79
 370 002a 0124     		movs	r4, #1
 371              	.LVL37:
 372              	.L37:
 373              		.loc 1 168 21 is_stmt 1 discriminator 1 view .LVU80
 374              		.loc 1 168 5 is_stmt 0 discriminator 1 view .LVU81
 375 002c 132C     		cmp	r4, #19
 376 002e 46DC     		bgt	.L35
 169:Core/Src/main.c ****       angle0 += GetYaw() / 20;
 377              		.loc 1 169 7 is_stmt 1 discriminator 3 view .LVU82
 378              		.loc 1 169 17 is_stmt 0 discriminator 3 view .LVU83
 379 0030 FFF7FEFF 		bl	GetYaw
 380              	.LVL38:
 381              		.loc 1 169 26 discriminator 3 view .LVU84
 382 0034 2449     		ldr	r1, .L48
 383 0036 FFF7FEFF 		bl	__aeabi_fdiv
 384              	.LVL39:
 385 003a 0146     		mov	r1, r0
 386              		.loc 1 169 14 discriminator 3 view .LVU85
 387 003c 234D     		ldr	r5, .L48+4
 388 003e 2868     		ldr	r0, [r5]	@ float
 389 0040 FFF7FEFF 		bl	__aeabi_fadd
 390              	.LVL40:
 391 0044 2860     		str	r0, [r5]	@ float
 168:Core/Src/main.c ****       angle0 += GetYaw() / 20;
 392              		.loc 1 168 29 is_stmt 1 discriminator 3 view .LVU86
 168:Core/Src/main.c ****       angle0 += GetYaw() / 20;
 393              		.loc 1 168 30 is_stmt 0 discriminator 3 view .LVU87
 394 0046 0134     		adds	r4, r4, #1
 395              	.LVL41:
ARM GAS  C:\Users\86183\AppData\Local\Temp\ccdSsS0f.s 			page 11


 168:Core/Src/main.c ****       angle0 += GetYaw() / 20;
 396              		.loc 1 168 30 discriminator 3 view .LVU88
 397 0048 F0E7     		b	.L37
 398              	.LVL42:
 399              	.L32:
 168:Core/Src/main.c ****       angle0 += GetYaw() / 20;
 400              		.loc 1 168 30 discriminator 3 view .LVU89
 401              	.LBE4:
 402              	.LBB5:
 158:Core/Src/main.c ****     }
 403              		.loc 1 158 7 is_stmt 1 discriminator 2 view .LVU90
 158:Core/Src/main.c ****     }
 404              		.loc 1 158 22 is_stmt 0 discriminator 2 view .LVU91
 405 004a 1F49     		ldr	r1, .L48
 406 004c 2046     		mov	r0, r4
 407 004e FFF7FEFF 		bl	__aeabi_fdiv
 408              	.LVL43:
 409 0052 0146     		mov	r1, r0
 158:Core/Src/main.c ****     }
 410              		.loc 1 158 14 discriminator 2 view .LVU92
 411 0054 1D4C     		ldr	r4, .L48+4
 412              	.LVL44:
 158:Core/Src/main.c ****     }
 413              		.loc 1 158 14 discriminator 2 view .LVU93
 414 0056 2068     		ldr	r0, [r4]	@ float
 415 0058 FFF7FEFF 		bl	__aeabi_fadd
 416              	.LVL45:
 417 005c 2060     		str	r0, [r4]	@ float
 154:Core/Src/main.c ****     {
 418              		.loc 1 154 29 is_stmt 1 discriminator 2 view .LVU94
 154:Core/Src/main.c ****     {
 419              		.loc 1 154 30 is_stmt 0 discriminator 2 view .LVU95
 420 005e 0135     		adds	r5, r5, #1
 421              	.LVL46:
 422              	.L30:
 154:Core/Src/main.c ****     {
 423              		.loc 1 154 21 is_stmt 1 discriminator 1 view .LVU96
 154:Core/Src/main.c ****     {
 424              		.loc 1 154 5 is_stmt 0 discriminator 1 view .LVU97
 425 0060 132D     		cmp	r5, #19
 426 0062 2CDC     		bgt	.L35
 156:Core/Src/main.c ****         temp -= 360;
 427              		.loc 1 156 7 is_stmt 1 view .LVU98
 156:Core/Src/main.c ****         temp -= 360;
 428              		.loc 1 156 19 is_stmt 0 view .LVU99
 429 0064 FFF7FEFF 		bl	GetYaw
 430              	.LVL47:
 431 0068 0446     		mov	r4, r0
 432              	.LVL48:
 156:Core/Src/main.c ****         temp -= 360;
 433              		.loc 1 156 10 view .LVU100
 434 006a 1A49     		ldr	r1, .L48+12
 435 006c FFF7FEFF 		bl	__aeabi_fcmpgt
 436              	.LVL49:
 156:Core/Src/main.c ****         temp -= 360;
 437              		.loc 1 156 10 view .LVU101
 438 0070 0028     		cmp	r0, #0
ARM GAS  C:\Users\86183\AppData\Local\Temp\ccdSsS0f.s 			page 12


 439 0072 EAD0     		beq	.L32
 157:Core/Src/main.c ****       angle0 += temp / 20;
 440              		.loc 1 157 9 is_stmt 1 view .LVU102
 157:Core/Src/main.c ****       angle0 += temp / 20;
 441              		.loc 1 157 14 is_stmt 0 view .LVU103
 442 0074 1849     		ldr	r1, .L48+16
 443 0076 2046     		mov	r0, r4
 444 0078 FFF7FEFF 		bl	__aeabi_fsub
 445              	.LVL50:
 446 007c 0446     		mov	r4, r0
 447              	.LVL51:
 157:Core/Src/main.c ****       angle0 += temp / 20;
 448              		.loc 1 157 14 view .LVU104
 449 007e E4E7     		b	.L32
 450              	.LVL52:
 451              	.L42:
 154:Core/Src/main.c ****     {
 452              		.loc 1 154 14 view .LVU105
 453 0080 0125     		movs	r5, #1
 454 0082 EDE7     		b	.L30
 455              	.LVL53:
 456              	.L38:
 154:Core/Src/main.c ****     {
 457              		.loc 1 154 14 view .LVU106
 458              	.LBE5:
 459              	.LBB6:
 165:Core/Src/main.c ****     }
 460              		.loc 1 165 7 is_stmt 1 discriminator 2 view .LVU107
 165:Core/Src/main.c ****     }
 461              		.loc 1 165 22 is_stmt 0 discriminator 2 view .LVU108
 462 0084 1049     		ldr	r1, .L48
 463 0086 2046     		mov	r0, r4
 464 0088 FFF7FEFF 		bl	__aeabi_fdiv
 465              	.LVL54:
 466 008c 0146     		mov	r1, r0
 165:Core/Src/main.c ****     }
 467              		.loc 1 165 14 discriminator 2 view .LVU109
 468 008e 0F4C     		ldr	r4, .L48+4
 469              	.LVL55:
 165:Core/Src/main.c ****     }
 470              		.loc 1 165 14 discriminator 2 view .LVU110
 471 0090 2068     		ldr	r0, [r4]	@ float
 472 0092 FFF7FEFF 		bl	__aeabi_fadd
 473              	.LVL56:
 474 0096 2060     		str	r0, [r4]	@ float
 161:Core/Src/main.c ****     {
 475              		.loc 1 161 29 is_stmt 1 discriminator 2 view .LVU111
 161:Core/Src/main.c ****     {
 476              		.loc 1 161 30 is_stmt 0 discriminator 2 view .LVU112
 477 0098 0135     		adds	r5, r5, #1
 478              	.LVL57:
 479              	.L36:
 161:Core/Src/main.c ****     {
 480              		.loc 1 161 21 is_stmt 1 discriminator 1 view .LVU113
 161:Core/Src/main.c ****     {
 481              		.loc 1 161 5 is_stmt 0 discriminator 1 view .LVU114
 482 009a 132D     		cmp	r5, #19
ARM GAS  C:\Users\86183\AppData\Local\Temp\ccdSsS0f.s 			page 13


 483 009c 0FDC     		bgt	.L35
 163:Core/Src/main.c ****         temp += 360;
 484              		.loc 1 163 7 is_stmt 1 view .LVU115
 163:Core/Src/main.c ****         temp += 360;
 485              		.loc 1 163 19 is_stmt 0 view .LVU116
 486 009e FFF7FEFF 		bl	GetYaw
 487              	.LVL58:
 488 00a2 0446     		mov	r4, r0
 489              	.LVL59:
 163:Core/Src/main.c ****         temp += 360;
 490              		.loc 1 163 10 view .LVU117
 491 00a4 0A49     		ldr	r1, .L48+8
 492 00a6 FFF7FEFF 		bl	__aeabi_fcmplt
 493              	.LVL60:
 163:Core/Src/main.c ****         temp += 360;
 494              		.loc 1 163 10 view .LVU118
 495 00aa 0028     		cmp	r0, #0
 496 00ac EAD0     		beq	.L38
 164:Core/Src/main.c ****       angle0 += temp / 20;
 497              		.loc 1 164 9 is_stmt 1 view .LVU119
 164:Core/Src/main.c ****       angle0 += temp / 20;
 498              		.loc 1 164 14 is_stmt 0 view .LVU120
 499 00ae 0A49     		ldr	r1, .L48+16
 500 00b0 2046     		mov	r0, r4
 501 00b2 FFF7FEFF 		bl	__aeabi_fadd
 502              	.LVL61:
 503 00b6 0446     		mov	r4, r0
 504              	.LVL62:
 164:Core/Src/main.c ****       angle0 += temp / 20;
 505              		.loc 1 164 14 view .LVU121
 506 00b8 E4E7     		b	.L38
 507              	.LVL63:
 508              	.L43:
 161:Core/Src/main.c ****     {
 509              		.loc 1 161 14 view .LVU122
 510 00ba 0125     		movs	r5, #1
 511 00bc EDE7     		b	.L36
 512              	.LVL64:
 513              	.L35:
 161:Core/Src/main.c ****     {
 514              		.loc 1 161 14 view .LVU123
 515              	.LBE6:
 170:Core/Src/main.c ****   absoluteAngle = angle0;
 516              		.loc 1 170 3 is_stmt 1 view .LVU124
 517              		.loc 1 170 17 is_stmt 0 view .LVU125
 518 00be 034B     		ldr	r3, .L48+4
 519 00c0 1A68     		ldr	r2, [r3]	@ float
 520 00c2 064B     		ldr	r3, .L48+20
 521 00c4 1A60     		str	r2, [r3]	@ float
 171:Core/Src/main.c **** }
 522              		.loc 1 171 1 view .LVU126
 523 00c6 38BD     		pop	{r3, r4, r5, pc}
 524              	.L49:
 525              		.align	2
 526              	.L48:
 527 00c8 0000A041 		.word	1101004800
 528 00cc 00000000 		.word	.LANCHOR7
ARM GAS  C:\Users\86183\AppData\Local\Temp\ccdSsS0f.s 			page 14


 529 00d0 00007042 		.word	1114636288
 530 00d4 00009643 		.word	1133903872
 531 00d8 0000B443 		.word	1135869952
 532 00dc 00000000 		.word	.LANCHOR8
 533              		.cfi_endproc
 534              	.LFE69:
 536              		.section	.text.getAngle,"ax",%progbits
 537              		.align	1
 538              		.global	getAngle
 539              		.syntax unified
 540              		.thumb
 541              		.thumb_func
 542              		.fpu softvfp
 544              	getAngle:
 545              	.LFB70:
 172:Core/Src/main.c **** 
 173:Core/Src/main.c **** float getAngle()
 174:Core/Src/main.c **** {
 546              		.loc 1 174 1 is_stmt 1 view -0
 547              		.cfi_startproc
 548              		@ args = 0, pretend = 0, frame = 0
 549              		@ frame_needed = 0, uses_anonymous_args = 0
 550 0000 10B5     		push	{r4, lr}
 551              	.LCFI3:
 552              		.cfi_def_cfa_offset 8
 553              		.cfi_offset 4, -8
 554              		.cfi_offset 14, -4
 175:Core/Src/main.c ****   float temp = GetYaw() - angle0;
 555              		.loc 1 175 3 view .LVU128
 556              		.loc 1 175 16 is_stmt 0 view .LVU129
 557 0002 FFF7FEFF 		bl	GetYaw
 558              	.LVL65:
 559              		.loc 1 175 9 view .LVU130
 560 0006 0E4B     		ldr	r3, .L59
 561 0008 1968     		ldr	r1, [r3]	@ float
 562 000a FFF7FEFF 		bl	__aeabi_fsub
 563              	.LVL66:
 564 000e 0446     		mov	r4, r0
 565              	.LVL67:
 176:Core/Src/main.c ****   return temp > 180 ? temp - 360 : temp < -180 ? temp + 360
 566              		.loc 1 176 3 is_stmt 1 view .LVU131
 567              		.loc 1 176 34 is_stmt 0 view .LVU132
 568 0010 0C49     		ldr	r1, .L59+4
 569 0012 FFF7FEFF 		bl	__aeabi_fcmpgt
 570              	.LVL68:
 571              		.loc 1 176 34 view .LVU133
 572 0016 30B1     		cbz	r0, .L57
 573              		.loc 1 176 34 discriminator 1 view .LVU134
 574 0018 0B49     		ldr	r1, .L59+8
 575 001a 2046     		mov	r0, r4
 576 001c FFF7FEFF 		bl	__aeabi_fsub
 577              	.LVL69:
 578 0020 0446     		mov	r4, r0
 579              	.LVL70:
 580              	.L50:
 177:Core/Src/main.c ****                                                : temp;
 178:Core/Src/main.c **** }
ARM GAS  C:\Users\86183\AppData\Local\Temp\ccdSsS0f.s 			page 15


 581              		.loc 1 178 1 view .LVU135
 582 0022 2046     		mov	r0, r4
 583 0024 10BD     		pop	{r4, pc}
 584              	.LVL71:
 585              	.L57:
 177:Core/Src/main.c ****                                                : temp;
 586              		.loc 1 177 48 view .LVU136
 587 0026 0949     		ldr	r1, .L59+12
 588 0028 2046     		mov	r0, r4
 589 002a FFF7FEFF 		bl	__aeabi_fcmplt
 590              	.LVL72:
 591 002e 0028     		cmp	r0, #0
 592 0030 F7D0     		beq	.L50
 177:Core/Src/main.c ****                                                : temp;
 593              		.loc 1 177 48 discriminator 1 view .LVU137
 594 0032 0549     		ldr	r1, .L59+8
 595 0034 2046     		mov	r0, r4
 596 0036 FFF7FEFF 		bl	__aeabi_fadd
 597              	.LVL73:
 598 003a 0446     		mov	r4, r0
 599              	.LVL74:
 176:Core/Src/main.c ****   return temp > 180 ? temp - 360 : temp < -180 ? temp + 360
 600              		.loc 1 176 34 discriminator 1 view .LVU138
 601 003c F1E7     		b	.L50
 602              	.L60:
 603 003e 00BF     		.align	2
 604              	.L59:
 605 0040 00000000 		.word	.LANCHOR7
 606 0044 00003443 		.word	1127481344
 607 0048 0000B443 		.word	1135869952
 608 004c 000034C3 		.word	-1020002304
 609              		.cfi_endproc
 610              	.LFE70:
 612              		.section	.text.Set_Left_Direction,"ax",%progbits
 613              		.align	1
 614              		.global	Set_Left_Direction
 615              		.syntax unified
 616              		.thumb
 617              		.thumb_func
 618              		.fpu softvfp
 620              	Set_Left_Direction:
 621              	.LVL75:
 622              	.LFB71:
 179:Core/Src/main.c **** 
 180:Core/Src/main.c **** void Set_Left_Direction(int direction)
 181:Core/Src/main.c **** {
 623              		.loc 1 181 1 is_stmt 1 view -0
 624              		.cfi_startproc
 625              		@ args = 0, pretend = 0, frame = 0
 626              		@ frame_needed = 0, uses_anonymous_args = 0
 627              		.loc 1 181 1 is_stmt 0 view .LVU140
 628 0000 38B5     		push	{r3, r4, r5, lr}
 629              	.LCFI4:
 630              		.cfi_def_cfa_offset 16
 631              		.cfi_offset 3, -16
 632              		.cfi_offset 4, -12
 633              		.cfi_offset 5, -8
ARM GAS  C:\Users\86183\AppData\Local\Temp\ccdSsS0f.s 			page 16


 634              		.cfi_offset 14, -4
 635 0002 0446     		mov	r4, r0
 182:Core/Src/main.c ****   HAL_GPIO_WritePin(IN1A_GPIO_Port, IN1A_Pin, RESET);
 636              		.loc 1 182 3 is_stmt 1 view .LVU141
 637 0004 274D     		ldr	r5, .L68
 638 0006 0022     		movs	r2, #0
 639 0008 4FF48051 		mov	r1, #4096
 640 000c 2846     		mov	r0, r5
 641              	.LVL76:
 642              		.loc 1 182 3 is_stmt 0 view .LVU142
 643 000e FFF7FEFF 		bl	HAL_GPIO_WritePin
 644              	.LVL77:
 183:Core/Src/main.c ****   HAL_GPIO_WritePin(IN1B_GPIO_Port, IN1B_Pin, RESET);
 645              		.loc 1 183 3 is_stmt 1 view .LVU143
 646 0012 0022     		movs	r2, #0
 647 0014 4FF40061 		mov	r1, #2048
 648 0018 2846     		mov	r0, r5
 649 001a FFF7FEFF 		bl	HAL_GPIO_WritePin
 650              	.LVL78:
 184:Core/Src/main.c ****   HAL_GPIO_WritePin(IN2A_GPIO_Port, IN2A_Pin, RESET);
 651              		.loc 1 184 3 view .LVU144
 652 001e A5F58065 		sub	r5, r5, #1024
 653 0022 0022     		movs	r2, #0
 654 0024 0121     		movs	r1, #1
 655 0026 2846     		mov	r0, r5
 656 0028 FFF7FEFF 		bl	HAL_GPIO_WritePin
 657              	.LVL79:
 185:Core/Src/main.c ****   HAL_GPIO_WritePin(IN2B_GPIO_Port, IN2B_Pin, RESET);
 658              		.loc 1 185 3 view .LVU145
 659 002c 0022     		movs	r2, #0
 660 002e 0221     		movs	r1, #2
 661 0030 2846     		mov	r0, r5
 662 0032 FFF7FEFF 		bl	HAL_GPIO_WritePin
 663              	.LVL80:
 186:Core/Src/main.c ****   if (direction == 1)
 664              		.loc 1 186 3 view .LVU146
 665              		.loc 1 186 6 is_stmt 0 view .LVU147
 666 0036 012C     		cmp	r4, #1
 667 0038 1CD0     		beq	.L66
 187:Core/Src/main.c ****   {
 188:Core/Src/main.c ****     HAL_GPIO_WritePin(IN1A_GPIO_Port, IN1A_Pin, SET);
 189:Core/Src/main.c ****     HAL_GPIO_WritePin(IN2B_GPIO_Port, IN2B_Pin, SET);
 190:Core/Src/main.c ****   }
 191:Core/Src/main.c ****   else if (direction == -1)
 668              		.loc 1 191 8 is_stmt 1 view .LVU148
 669              		.loc 1 191 11 is_stmt 0 view .LVU149
 670 003a B4F1FF3F 		cmp	r4, #-1
 671 003e 25D0     		beq	.L67
 192:Core/Src/main.c ****   {
 193:Core/Src/main.c ****     HAL_GPIO_WritePin(IN1B_GPIO_Port, IN1B_Pin, SET);
 194:Core/Src/main.c ****     HAL_GPIO_WritePin(IN2A_GPIO_Port, IN2A_Pin, SET);
 195:Core/Src/main.c ****   }
 196:Core/Src/main.c ****   else
 197:Core/Src/main.c ****   {
 198:Core/Src/main.c ****     HAL_GPIO_WritePin(IN1A_GPIO_Port, IN1A_Pin, SET);
 672              		.loc 1 198 5 is_stmt 1 view .LVU150
 673 0040 184C     		ldr	r4, .L68
ARM GAS  C:\Users\86183\AppData\Local\Temp\ccdSsS0f.s 			page 17


 674              	.LVL81:
 675              		.loc 1 198 5 is_stmt 0 view .LVU151
 676 0042 0122     		movs	r2, #1
 677 0044 4FF48051 		mov	r1, #4096
 678 0048 2046     		mov	r0, r4
 679 004a FFF7FEFF 		bl	HAL_GPIO_WritePin
 680              	.LVL82:
 199:Core/Src/main.c ****     HAL_GPIO_WritePin(IN1B_GPIO_Port, IN1B_Pin, SET);
 681              		.loc 1 199 5 is_stmt 1 view .LVU152
 682 004e 0122     		movs	r2, #1
 683 0050 4FF40061 		mov	r1, #2048
 684 0054 2046     		mov	r0, r4
 685 0056 FFF7FEFF 		bl	HAL_GPIO_WritePin
 686              	.LVL83:
 200:Core/Src/main.c ****     HAL_GPIO_WritePin(IN2A_GPIO_Port, IN2A_Pin, SET);
 687              		.loc 1 200 5 view .LVU153
 688 005a A4F58064 		sub	r4, r4, #1024
 689 005e 0122     		movs	r2, #1
 690 0060 1146     		mov	r1, r2
 691 0062 2046     		mov	r0, r4
 692 0064 FFF7FEFF 		bl	HAL_GPIO_WritePin
 693              	.LVL84:
 201:Core/Src/main.c ****     HAL_GPIO_WritePin(IN2B_GPIO_Port, IN2B_Pin, SET);
 694              		.loc 1 201 5 view .LVU154
 695 0068 0122     		movs	r2, #1
 696 006a 0221     		movs	r1, #2
 697 006c 2046     		mov	r0, r4
 698 006e FFF7FEFF 		bl	HAL_GPIO_WritePin
 699              	.LVL85:
 700              	.L61:
 202:Core/Src/main.c ****   }
 203:Core/Src/main.c **** }
 701              		.loc 1 203 1 is_stmt 0 view .LVU155
 702 0072 38BD     		pop	{r3, r4, r5, pc}
 703              	.LVL86:
 704              	.L66:
 188:Core/Src/main.c ****     HAL_GPIO_WritePin(IN2B_GPIO_Port, IN2B_Pin, SET);
 705              		.loc 1 188 5 is_stmt 1 view .LVU156
 706 0074 0122     		movs	r2, #1
 707 0076 4FF48051 		mov	r1, #4096
 708 007a 0A48     		ldr	r0, .L68
 709 007c FFF7FEFF 		bl	HAL_GPIO_WritePin
 710              	.LVL87:
 189:Core/Src/main.c ****   }
 711              		.loc 1 189 5 view .LVU157
 712 0080 0122     		movs	r2, #1
 713 0082 0221     		movs	r1, #2
 714 0084 2846     		mov	r0, r5
 715 0086 FFF7FEFF 		bl	HAL_GPIO_WritePin
 716              	.LVL88:
 717 008a F2E7     		b	.L61
 718              	.L67:
 193:Core/Src/main.c ****     HAL_GPIO_WritePin(IN2A_GPIO_Port, IN2A_Pin, SET);
 719              		.loc 1 193 5 view .LVU158
 720 008c 0122     		movs	r2, #1
 721 008e 4FF40061 		mov	r1, #2048
 722 0092 0448     		ldr	r0, .L68
ARM GAS  C:\Users\86183\AppData\Local\Temp\ccdSsS0f.s 			page 18


 723 0094 FFF7FEFF 		bl	HAL_GPIO_WritePin
 724              	.LVL89:
 194:Core/Src/main.c ****   }
 725              		.loc 1 194 5 view .LVU159
 726 0098 0122     		movs	r2, #1
 727 009a 1146     		mov	r1, r2
 728 009c 0248     		ldr	r0, .L68+4
 729 009e FFF7FEFF 		bl	HAL_GPIO_WritePin
 730              	.LVL90:
 731 00a2 E6E7     		b	.L61
 732              	.L69:
 733              		.align	2
 734              	.L68:
 735 00a4 00100140 		.word	1073811456
 736 00a8 000C0140 		.word	1073810432
 737              		.cfi_endproc
 738              	.LFE71:
 740              		.section	.text.Set_Right_Direction,"ax",%progbits
 741              		.align	1
 742              		.global	Set_Right_Direction
 743              		.syntax unified
 744              		.thumb
 745              		.thumb_func
 746              		.fpu softvfp
 748              	Set_Right_Direction:
 749              	.LVL91:
 750              	.LFB72:
 204:Core/Src/main.c **** 
 205:Core/Src/main.c **** void Set_Right_Direction(int direction)
 206:Core/Src/main.c **** {
 751              		.loc 1 206 1 view -0
 752              		.cfi_startproc
 753              		@ args = 0, pretend = 0, frame = 0
 754              		@ frame_needed = 0, uses_anonymous_args = 0
 755              		.loc 1 206 1 is_stmt 0 view .LVU161
 756 0000 38B5     		push	{r3, r4, r5, lr}
 757              	.LCFI5:
 758              		.cfi_def_cfa_offset 16
 759              		.cfi_offset 3, -16
 760              		.cfi_offset 4, -12
 761              		.cfi_offset 5, -8
 762              		.cfi_offset 14, -4
 763 0002 0446     		mov	r4, r0
 207:Core/Src/main.c ****   HAL_GPIO_WritePin(IN3A_GPIO_Port, IN3A_Pin, RESET);
 764              		.loc 1 207 3 is_stmt 1 view .LVU162
 765 0004 284D     		ldr	r5, .L77
 766 0006 0022     		movs	r2, #0
 767 0008 4FF40051 		mov	r1, #8192
 768 000c 2846     		mov	r0, r5
 769              	.LVL92:
 770              		.loc 1 207 3 is_stmt 0 view .LVU163
 771 000e FFF7FEFF 		bl	HAL_GPIO_WritePin
 772              	.LVL93:
 208:Core/Src/main.c ****   HAL_GPIO_WritePin(IN3B_GPIO_Port, IN3B_Pin, RESET);
 773              		.loc 1 208 3 is_stmt 1 view .LVU164
 774 0012 0022     		movs	r2, #0
 775 0014 4FF48041 		mov	r1, #16384
ARM GAS  C:\Users\86183\AppData\Local\Temp\ccdSsS0f.s 			page 19


 776 0018 2846     		mov	r0, r5
 777 001a FFF7FEFF 		bl	HAL_GPIO_WritePin
 778              	.LVL94:
 209:Core/Src/main.c ****   HAL_GPIO_WritePin(IN4A_GPIO_Port, IN4A_Pin, RESET);
 779              		.loc 1 209 3 view .LVU165
 780 001e 0022     		movs	r2, #0
 781 0020 4FF48061 		mov	r1, #1024
 782 0024 2148     		ldr	r0, .L77+4
 783 0026 FFF7FEFF 		bl	HAL_GPIO_WritePin
 784              	.LVL95:
 210:Core/Src/main.c ****   HAL_GPIO_WritePin(IN4B_GPIO_Port, IN4B_Pin, RESET);
 785              		.loc 1 210 3 view .LVU166
 786 002a 0022     		movs	r2, #0
 787 002c 4FF40041 		mov	r1, #32768
 788 0030 1F48     		ldr	r0, .L77+8
 789 0032 FFF7FEFF 		bl	HAL_GPIO_WritePin
 790              	.LVL96:
 211:Core/Src/main.c ****   if (direction == 1)
 791              		.loc 1 211 3 view .LVU167
 792              		.loc 1 211 6 is_stmt 0 view .LVU168
 793 0036 012C     		cmp	r4, #1
 794 0038 1CD0     		beq	.L75
 212:Core/Src/main.c ****   {
 213:Core/Src/main.c ****     HAL_GPIO_WritePin(IN3A_GPIO_Port, IN3A_Pin, SET);
 214:Core/Src/main.c ****     HAL_GPIO_WritePin(IN4B_GPIO_Port, IN4B_Pin, SET);
 215:Core/Src/main.c ****   }
 216:Core/Src/main.c ****   else if (direction == -1)
 795              		.loc 1 216 8 is_stmt 1 view .LVU169
 796              		.loc 1 216 11 is_stmt 0 view .LVU170
 797 003a B4F1FF3F 		cmp	r4, #-1
 798 003e 26D0     		beq	.L76
 217:Core/Src/main.c ****   {
 218:Core/Src/main.c ****     HAL_GPIO_WritePin(IN3B_GPIO_Port, IN3B_Pin, SET);
 219:Core/Src/main.c ****     HAL_GPIO_WritePin(IN4A_GPIO_Port, IN4A_Pin, SET);
 220:Core/Src/main.c ****   }
 221:Core/Src/main.c ****   else
 222:Core/Src/main.c ****   {
 223:Core/Src/main.c ****     HAL_GPIO_WritePin(IN3A_GPIO_Port, IN3A_Pin, SET);
 799              		.loc 1 223 5 is_stmt 1 view .LVU171
 800 0040 194C     		ldr	r4, .L77
 801              	.LVL97:
 802              		.loc 1 223 5 is_stmt 0 view .LVU172
 803 0042 0122     		movs	r2, #1
 804 0044 4FF40051 		mov	r1, #8192
 805 0048 2046     		mov	r0, r4
 806 004a FFF7FEFF 		bl	HAL_GPIO_WritePin
 807              	.LVL98:
 224:Core/Src/main.c ****     HAL_GPIO_WritePin(IN3B_GPIO_Port, IN3B_Pin, SET);
 808              		.loc 1 224 5 is_stmt 1 view .LVU173
 809 004e 0122     		movs	r2, #1
 810 0050 4FF48041 		mov	r1, #16384
 811 0054 2046     		mov	r0, r4
 812 0056 FFF7FEFF 		bl	HAL_GPIO_WritePin
 813              	.LVL99:
 225:Core/Src/main.c ****     HAL_GPIO_WritePin(IN4A_GPIO_Port, IN4A_Pin, SET);
 814              		.loc 1 225 5 view .LVU174
 815 005a 0122     		movs	r2, #1
ARM GAS  C:\Users\86183\AppData\Local\Temp\ccdSsS0f.s 			page 20


 816 005c 4FF48061 		mov	r1, #1024
 817 0060 1248     		ldr	r0, .L77+4
 818 0062 FFF7FEFF 		bl	HAL_GPIO_WritePin
 819              	.LVL100:
 226:Core/Src/main.c ****     HAL_GPIO_WritePin(IN4B_GPIO_Port, IN4B_Pin, SET);
 820              		.loc 1 226 5 view .LVU175
 821 0066 0122     		movs	r2, #1
 822 0068 4FF40041 		mov	r1, #32768
 823 006c 1048     		ldr	r0, .L77+8
 824 006e FFF7FEFF 		bl	HAL_GPIO_WritePin
 825              	.LVL101:
 826              	.L70:
 227:Core/Src/main.c ****   }
 228:Core/Src/main.c **** }
 827              		.loc 1 228 1 is_stmt 0 view .LVU176
 828 0072 38BD     		pop	{r3, r4, r5, pc}
 829              	.LVL102:
 830              	.L75:
 213:Core/Src/main.c ****     HAL_GPIO_WritePin(IN4B_GPIO_Port, IN4B_Pin, SET);
 831              		.loc 1 213 5 is_stmt 1 view .LVU177
 832 0074 0122     		movs	r2, #1
 833 0076 4FF40051 		mov	r1, #8192
 834 007a 2846     		mov	r0, r5
 835 007c FFF7FEFF 		bl	HAL_GPIO_WritePin
 836              	.LVL103:
 214:Core/Src/main.c ****   }
 837              		.loc 1 214 5 view .LVU178
 838 0080 0122     		movs	r2, #1
 839 0082 4FF40041 		mov	r1, #32768
 840 0086 0A48     		ldr	r0, .L77+8
 841 0088 FFF7FEFF 		bl	HAL_GPIO_WritePin
 842              	.LVL104:
 843 008c F1E7     		b	.L70
 844              	.L76:
 218:Core/Src/main.c ****     HAL_GPIO_WritePin(IN4A_GPIO_Port, IN4A_Pin, SET);
 845              		.loc 1 218 5 view .LVU179
 846 008e 0122     		movs	r2, #1
 847 0090 4FF48041 		mov	r1, #16384
 848 0094 0448     		ldr	r0, .L77
 849 0096 FFF7FEFF 		bl	HAL_GPIO_WritePin
 850              	.LVL105:
 219:Core/Src/main.c ****   }
 851              		.loc 1 219 5 view .LVU180
 852 009a 0122     		movs	r2, #1
 853 009c 4FF48061 		mov	r1, #1024
 854 00a0 0248     		ldr	r0, .L77+4
 855 00a2 FFF7FEFF 		bl	HAL_GPIO_WritePin
 856              	.LVL106:
 857 00a6 E4E7     		b	.L70
 858              	.L78:
 859              		.align	2
 860              	.L77:
 861 00a8 000C0140 		.word	1073810432
 862 00ac 00100140 		.word	1073811456
 863 00b0 00080140 		.word	1073809408
 864              		.cfi_endproc
 865              	.LFE72:
ARM GAS  C:\Users\86183\AppData\Local\Temp\ccdSsS0f.s 			page 21


 867              		.section	.text.Set_Speed,"ax",%progbits
 868              		.align	1
 869              		.global	Set_Speed
 870              		.syntax unified
 871              		.thumb
 872              		.thumb_func
 873              		.fpu softvfp
 875              	Set_Speed:
 876              	.LVL107:
 877              	.LFB73:
 229:Core/Src/main.c **** 
 230:Core/Src/main.c **** void Set_Speed(float speed, int i) { target[i] = speed > 0 ? speed : 0; }
 878              		.loc 1 230 36 view -0
 879              		.cfi_startproc
 880              		@ args = 0, pretend = 0, frame = 0
 881              		@ frame_needed = 0, uses_anonymous_args = 0
 882              		.loc 1 230 36 is_stmt 0 view .LVU182
 883 0000 38B5     		push	{r3, r4, r5, lr}
 884              	.LCFI6:
 885              		.cfi_def_cfa_offset 16
 886              		.cfi_offset 3, -16
 887              		.cfi_offset 4, -12
 888              		.cfi_offset 5, -8
 889              		.cfi_offset 14, -4
 890 0002 0446     		mov	r4, r0
 891 0004 0D46     		mov	r5, r1
 892              		.loc 1 230 38 is_stmt 1 view .LVU183
 893              		.loc 1 230 68 is_stmt 0 view .LVU184
 894 0006 0021     		movs	r1, #0
 895              	.LVL108:
 896              		.loc 1 230 68 view .LVU185
 897 0008 FFF7FEFF 		bl	__aeabi_fcmpgt
 898              	.LVL109:
 899              		.loc 1 230 68 view .LVU186
 900 000c 18B1     		cbz	r0, .L84
 901              	.LVL110:
 902              	.L80:
 903              		.loc 1 230 48 discriminator 4 view .LVU187
 904 000e 034B     		ldr	r3, .L85
 905 0010 43F82540 		str	r4, [r3, r5, lsl #2]	@ float
 906              		.loc 1 230 73 discriminator 4 view .LVU188
 907 0014 38BD     		pop	{r3, r4, r5, pc}
 908              	.LVL111:
 909              	.L84:
 910              		.loc 1 230 68 view .LVU189
 911 0016 0024     		movs	r4, #0
 912              	.LVL112:
 913              		.loc 1 230 68 view .LVU190
 914 0018 F9E7     		b	.L80
 915              	.L86:
 916 001a 00BF     		.align	2
 917              	.L85:
 918 001c 00000000 		.word	.LANCHOR9
 919              		.cfi_endproc
 920              	.LFE73:
 922              		.section	.text.Add_Angle,"ax",%progbits
 923              		.align	1
ARM GAS  C:\Users\86183\AppData\Local\Temp\ccdSsS0f.s 			page 22


 924              		.global	Add_Angle
 925              		.syntax unified
 926              		.thumb
 927              		.thumb_func
 928              		.fpu softvfp
 930              	Add_Angle:
 931              	.LVL113:
 932              	.LFB74:
 231:Core/Src/main.c **** 
 232:Core/Src/main.c **** float Add_Angle(float angleA, float angleB)
 233:Core/Src/main.c **** {
 933              		.loc 1 233 1 is_stmt 1 view -0
 934              		.cfi_startproc
 935              		@ args = 0, pretend = 0, frame = 0
 936              		@ frame_needed = 0, uses_anonymous_args = 0
 937              		.loc 1 233 1 is_stmt 0 view .LVU192
 938 0000 10B5     		push	{r4, lr}
 939              	.LCFI7:
 940              		.cfi_def_cfa_offset 8
 941              		.cfi_offset 4, -8
 942              		.cfi_offset 14, -4
 234:Core/Src/main.c ****   float result = angleA + angleB;
 943              		.loc 1 234 3 is_stmt 1 view .LVU193
 944              		.loc 1 234 9 is_stmt 0 view .LVU194
 945 0002 FFF7FEFF 		bl	__aeabi_fadd
 946              	.LVL114:
 947              		.loc 1 234 9 view .LVU195
 948 0006 0446     		mov	r4, r0
 949              	.LVL115:
 235:Core/Src/main.c ****   return result < -180 ? result + 360 : result > 180 ? result - 360
 950              		.loc 1 235 3 is_stmt 1 view .LVU196
 951              		.loc 1 235 39 is_stmt 0 view .LVU197
 952 0008 0B49     		ldr	r1, .L96
 953 000a FFF7FEFF 		bl	__aeabi_fcmplt
 954              	.LVL116:
 955              		.loc 1 235 39 view .LVU198
 956 000e 30B1     		cbz	r0, .L94
 957              		.loc 1 235 39 discriminator 1 view .LVU199
 958 0010 0A49     		ldr	r1, .L96+4
 959 0012 2046     		mov	r0, r4
 960 0014 FFF7FEFF 		bl	__aeabi_fadd
 961              	.LVL117:
 962 0018 0446     		mov	r4, r0
 963              	.LVL118:
 964              	.L87:
 236:Core/Src/main.c ****                                                      : result;
 237:Core/Src/main.c **** }
 965              		.loc 1 237 1 view .LVU200
 966 001a 2046     		mov	r0, r4
 967 001c 10BD     		pop	{r4, pc}
 968              	.LVL119:
 969              	.L94:
 236:Core/Src/main.c ****                                                      : result;
 970              		.loc 1 236 54 view .LVU201
 971 001e 0849     		ldr	r1, .L96+8
 972 0020 2046     		mov	r0, r4
 973 0022 FFF7FEFF 		bl	__aeabi_fcmpgt
ARM GAS  C:\Users\86183\AppData\Local\Temp\ccdSsS0f.s 			page 23


 974              	.LVL120:
 975 0026 0028     		cmp	r0, #0
 976 0028 F7D0     		beq	.L87
 236:Core/Src/main.c ****                                                      : result;
 977              		.loc 1 236 54 discriminator 1 view .LVU202
 978 002a 0449     		ldr	r1, .L96+4
 979 002c 2046     		mov	r0, r4
 980 002e FFF7FEFF 		bl	__aeabi_fsub
 981              	.LVL121:
 982 0032 0446     		mov	r4, r0
 983              	.LVL122:
 235:Core/Src/main.c ****   return result < -180 ? result + 360 : result > 180 ? result - 360
 984              		.loc 1 235 39 discriminator 1 view .LVU203
 985 0034 F1E7     		b	.L87
 986              	.L97:
 987 0036 00BF     		.align	2
 988              	.L96:
 989 0038 000034C3 		.word	-1020002304
 990 003c 0000B443 		.word	1135869952
 991 0040 00003443 		.word	1127481344
 992              		.cfi_endproc
 993              	.LFE74:
 995              		.section	.text.Turn,"ax",%progbits
 996              		.align	1
 997              		.global	Turn
 998              		.syntax unified
 999              		.thumb
 1000              		.thumb_func
 1001              		.fpu softvfp
 1003              	Turn:
 1004              	.LVL123:
 1005              	.LFB75:
 238:Core/Src/main.c **** 
 239:Core/Src/main.c **** void Turn(float angle)
 240:Core/Src/main.c **** {
 1006              		.loc 1 240 1 is_stmt 1 view -0
 1007              		.cfi_startproc
 1008              		@ args = 0, pretend = 0, frame = 0
 1009              		@ frame_needed = 0, uses_anonymous_args = 0
 1010              		.loc 1 240 1 is_stmt 0 view .LVU205
 1011 0000 38B5     		push	{r3, r4, r5, lr}
 1012              	.LCFI8:
 1013              		.cfi_def_cfa_offset 16
 1014              		.cfi_offset 3, -16
 1015              		.cfi_offset 4, -12
 1016              		.cfi_offset 5, -8
 1017              		.cfi_offset 14, -4
 1018 0002 0446     		mov	r4, r0
 241:Core/Src/main.c ****   Set_Right_Direction(0);
 1019              		.loc 1 241 3 is_stmt 1 view .LVU206
 1020 0004 0020     		movs	r0, #0
 1021              	.LVL124:
 1022              		.loc 1 241 3 is_stmt 0 view .LVU207
 1023 0006 FFF7FEFF 		bl	Set_Right_Direction
 1024              	.LVL125:
 242:Core/Src/main.c ****   Set_Left_Direction(0);
 1025              		.loc 1 242 3 is_stmt 1 view .LVU208
ARM GAS  C:\Users\86183\AppData\Local\Temp\ccdSsS0f.s 			page 24


 1026 000a 0020     		movs	r0, #0
 1027 000c FFF7FEFF 		bl	Set_Left_Direction
 1028              	.LVL126:
 243:Core/Src/main.c ****   float v;
 1029              		.loc 1 243 3 view .LVU209
 244:Core/Src/main.c ****   angle0 = GetYaw();
 1030              		.loc 1 244 3 view .LVU210
 1031              		.loc 1 244 12 is_stmt 0 view .LVU211
 1032 0010 FFF7FEFF 		bl	GetYaw
 1033              	.LVL127:
 1034              		.loc 1 244 10 view .LVU212
 1035 0014 4D4D     		ldr	r5, .L132
 1036 0016 2860     		str	r0, [r5]	@ float
 245:Core/Src/main.c ****   angle0 = Add_Angle(angle0, angle);
 1037              		.loc 1 245 3 is_stmt 1 view .LVU213
 1038              		.loc 1 245 12 is_stmt 0 view .LVU214
 1039 0018 2146     		mov	r1, r4
 1040 001a FFF7FEFF 		bl	Add_Angle
 1041              	.LVL128:
 1042              		.loc 1 245 10 view .LVU215
 1043 001e 2860     		str	r0, [r5]	@ float
 246:Core/Src/main.c ****   if (getAngle() < 0)
 1044              		.loc 1 246 3 is_stmt 1 view .LVU216
 1045              		.loc 1 246 7 is_stmt 0 view .LVU217
 1046 0020 FFF7FEFF 		bl	getAngle
 1047              	.LVL129:
 1048              		.loc 1 246 6 view .LVU218
 1049 0024 0021     		movs	r1, #0
 1050 0026 FFF7FEFF 		bl	__aeabi_fcmplt
 1051              	.LVL130:
 1052 002a 40B9     		cbnz	r0, .L130
 247:Core/Src/main.c ****   {
 248:Core/Src/main.c ****     Set_Left_Direction(-1);
 249:Core/Src/main.c ****     Set_Right_Direction(1);
 250:Core/Src/main.c ****     for (int i = 0; i < 4; i++)
 251:Core/Src/main.c ****       Set_Speed(8, i);
 252:Core/Src/main.c ****     while (getAngle() < -50)
 253:Core/Src/main.c ****       ;
 254:Core/Src/main.c ****     while (getAngle() < -5)
 255:Core/Src/main.c ****     {
 256:Core/Src/main.c ****       v = 3;
 257:Core/Src/main.c ****       for (int i = 0; i < 4; i++)
 258:Core/Src/main.c ****         Set_Speed(v, i);
 259:Core/Src/main.c ****     }
 260:Core/Src/main.c ****   }
 261:Core/Src/main.c ****   else
 262:Core/Src/main.c ****   {
 263:Core/Src/main.c ****     Set_Left_Direction(1);
 1053              		.loc 1 263 5 is_stmt 1 view .LVU219
 1054 002c 0120     		movs	r0, #1
 1055 002e FFF7FEFF 		bl	Set_Left_Direction
 1056              	.LVL131:
 264:Core/Src/main.c ****     Set_Right_Direction(-1);
 1057              		.loc 1 264 5 view .LVU220
 1058 0032 4FF0FF30 		mov	r0, #-1
 1059 0036 FFF7FEFF 		bl	Set_Right_Direction
 1060              	.LVL132:
ARM GAS  C:\Users\86183\AppData\Local\Temp\ccdSsS0f.s 			page 25


 265:Core/Src/main.c ****     for (int i = 0; i < 4; i++)
 1061              		.loc 1 265 5 view .LVU221
 1062              	.LBB7:
 1063              		.loc 1 265 10 view .LVU222
 1064              		.loc 1 265 14 is_stmt 0 view .LVU223
 1065 003a 0024     		movs	r4, #0
 1066              	.LVL133:
 1067              		.loc 1 265 5 view .LVU224
 1068 003c 2DE0     		b	.L108
 1069              	.LVL134:
 1070              	.L130:
 1071              		.loc 1 265 5 view .LVU225
 1072              	.LBE7:
 248:Core/Src/main.c ****     Set_Right_Direction(1);
 1073              		.loc 1 248 5 is_stmt 1 view .LVU226
 1074 003e 4FF0FF30 		mov	r0, #-1
 1075 0042 FFF7FEFF 		bl	Set_Left_Direction
 1076              	.LVL135:
 249:Core/Src/main.c ****     for (int i = 0; i < 4; i++)
 1077              		.loc 1 249 5 view .LVU227
 1078 0046 0120     		movs	r0, #1
 1079 0048 FFF7FEFF 		bl	Set_Right_Direction
 1080              	.LVL136:
 250:Core/Src/main.c ****       Set_Speed(8, i);
 1081              		.loc 1 250 5 view .LVU228
 1082              	.LBB8:
 250:Core/Src/main.c ****       Set_Speed(8, i);
 1083              		.loc 1 250 10 view .LVU229
 250:Core/Src/main.c ****       Set_Speed(8, i);
 1084              		.loc 1 250 14 is_stmt 0 view .LVU230
 1085 004c 0024     		movs	r4, #0
 1086              	.LVL137:
 250:Core/Src/main.c ****       Set_Speed(8, i);
 1087              		.loc 1 250 5 view .LVU231
 1088 004e 05E0     		b	.L101
 1089              	.LVL138:
 1090              	.L102:
 251:Core/Src/main.c ****     while (getAngle() < -50)
 1091              		.loc 1 251 7 is_stmt 1 discriminator 3 view .LVU232
 1092 0050 2146     		mov	r1, r4
 1093 0052 4FF08240 		mov	r0, #1090519040
 1094 0056 FFF7FEFF 		bl	Set_Speed
 1095              	.LVL139:
 250:Core/Src/main.c ****       Set_Speed(8, i);
 1096              		.loc 1 250 28 discriminator 3 view .LVU233
 250:Core/Src/main.c ****       Set_Speed(8, i);
 1097              		.loc 1 250 29 is_stmt 0 discriminator 3 view .LVU234
 1098 005a 0134     		adds	r4, r4, #1
 1099              	.LVL140:
 1100              	.L101:
 250:Core/Src/main.c ****       Set_Speed(8, i);
 1101              		.loc 1 250 21 is_stmt 1 discriminator 1 view .LVU235
 250:Core/Src/main.c ****       Set_Speed(8, i);
 1102              		.loc 1 250 5 is_stmt 0 discriminator 1 view .LVU236
 1103 005c 032C     		cmp	r4, #3
 1104 005e F7DD     		ble	.L102
 1105              	.L103:
ARM GAS  C:\Users\86183\AppData\Local\Temp\ccdSsS0f.s 			page 26


 1106              	.LBE8:
 253:Core/Src/main.c ****     while (getAngle() < -5)
 1107              		.loc 1 253 7 is_stmt 1 discriminator 1 view .LVU237
 252:Core/Src/main.c ****       ;
 1108              		.loc 1 252 11 discriminator 1 view .LVU238
 252:Core/Src/main.c ****       ;
 1109              		.loc 1 252 12 is_stmt 0 discriminator 1 view .LVU239
 1110 0060 FFF7FEFF 		bl	getAngle
 1111              	.LVL141:
 252:Core/Src/main.c ****       ;
 1112              		.loc 1 252 11 discriminator 1 view .LVU240
 1113 0064 3A49     		ldr	r1, .L132+4
 1114 0066 FFF7FEFF 		bl	__aeabi_fcmplt
 1115              	.LVL142:
 1116 006a 0028     		cmp	r0, #0
 1117 006c F8D1     		bne	.L103
 1118 006e 06E0     		b	.L104
 1119              	.LVL143:
 1120              	.L105:
 1121              	.LBB9:
 258:Core/Src/main.c ****     }
 1122              		.loc 1 258 9 is_stmt 1 discriminator 3 view .LVU241
 1123 0070 2146     		mov	r1, r4
 1124 0072 3848     		ldr	r0, .L132+8
 1125 0074 FFF7FEFF 		bl	Set_Speed
 1126              	.LVL144:
 257:Core/Src/main.c ****         Set_Speed(v, i);
 1127              		.loc 1 257 30 discriminator 3 view .LVU242
 257:Core/Src/main.c ****         Set_Speed(v, i);
 1128              		.loc 1 257 31 is_stmt 0 discriminator 3 view .LVU243
 1129 0078 0134     		adds	r4, r4, #1
 1130              	.LVL145:
 1131              	.L106:
 257:Core/Src/main.c ****         Set_Speed(v, i);
 1132              		.loc 1 257 23 is_stmt 1 discriminator 1 view .LVU244
 257:Core/Src/main.c ****         Set_Speed(v, i);
 1133              		.loc 1 257 7 is_stmt 0 discriminator 1 view .LVU245
 1134 007a 032C     		cmp	r4, #3
 1135 007c F8DD     		ble	.L105
 1136              	.LVL146:
 1137              	.L104:
 257:Core/Src/main.c ****         Set_Speed(v, i);
 1138              		.loc 1 257 7 discriminator 1 view .LVU246
 1139              	.LBE9:
 254:Core/Src/main.c ****     {
 1140              		.loc 1 254 11 is_stmt 1 view .LVU247
 254:Core/Src/main.c ****     {
 1141              		.loc 1 254 12 is_stmt 0 view .LVU248
 1142 007e FFF7FEFF 		bl	getAngle
 1143              	.LVL147:
 254:Core/Src/main.c ****     {
 1144              		.loc 1 254 11 view .LVU249
 1145 0082 3549     		ldr	r1, .L132+12
 1146 0084 FFF7FEFF 		bl	__aeabi_fcmplt
 1147              	.LVL148:
 1148 0088 00B3     		cbz	r0, .L107
 1149              	.LBB10:
ARM GAS  C:\Users\86183\AppData\Local\Temp\ccdSsS0f.s 			page 27


 257:Core/Src/main.c ****         Set_Speed(v, i);
 1150              		.loc 1 257 16 view .LVU250
 1151 008a 0024     		movs	r4, #0
 1152 008c F5E7     		b	.L106
 1153              	.LVL149:
 1154              	.L109:
 257:Core/Src/main.c ****         Set_Speed(v, i);
 1155              		.loc 1 257 16 view .LVU251
 1156              	.LBE10:
 1157              	.LBB11:
 266:Core/Src/main.c ****       Set_Speed(8, i);
 1158              		.loc 1 266 7 is_stmt 1 discriminator 3 view .LVU252
 1159 008e 2146     		mov	r1, r4
 1160 0090 4FF08240 		mov	r0, #1090519040
 1161 0094 FFF7FEFF 		bl	Set_Speed
 1162              	.LVL150:
 265:Core/Src/main.c ****       Set_Speed(8, i);
 1163              		.loc 1 265 28 discriminator 3 view .LVU253
 265:Core/Src/main.c ****       Set_Speed(8, i);
 1164              		.loc 1 265 29 is_stmt 0 discriminator 3 view .LVU254
 1165 0098 0134     		adds	r4, r4, #1
 1166              	.LVL151:
 1167              	.L108:
 265:Core/Src/main.c ****       Set_Speed(8, i);
 1168              		.loc 1 265 21 is_stmt 1 discriminator 1 view .LVU255
 265:Core/Src/main.c ****       Set_Speed(8, i);
 1169              		.loc 1 265 5 is_stmt 0 discriminator 1 view .LVU256
 1170 009a 032C     		cmp	r4, #3
 1171 009c F7DD     		ble	.L109
 1172              	.L110:
 1173              	.LBE11:
 267:Core/Src/main.c ****     while (getAngle() > 50)
 268:Core/Src/main.c ****       ;
 1174              		.loc 1 268 7 is_stmt 1 discriminator 1 view .LVU257
 267:Core/Src/main.c ****     while (getAngle() > 50)
 1175              		.loc 1 267 11 discriminator 1 view .LVU258
 267:Core/Src/main.c ****     while (getAngle() > 50)
 1176              		.loc 1 267 12 is_stmt 0 discriminator 1 view .LVU259
 1177 009e FFF7FEFF 		bl	getAngle
 1178              	.LVL152:
 267:Core/Src/main.c ****     while (getAngle() > 50)
 1179              		.loc 1 267 11 discriminator 1 view .LVU260
 1180 00a2 2E49     		ldr	r1, .L132+16
 1181 00a4 FFF7FEFF 		bl	__aeabi_fcmpgt
 1182              	.LVL153:
 1183 00a8 0028     		cmp	r0, #0
 1184 00aa F8D1     		bne	.L110
 1185 00ac 06E0     		b	.L111
 1186              	.LVL154:
 1187              	.L112:
 1188              	.LBB12:
 269:Core/Src/main.c ****     while (getAngle() > 5)
 270:Core/Src/main.c ****     {
 271:Core/Src/main.c ****       v = 3;
 272:Core/Src/main.c ****       for (int i = 0; i < 4; i++)
 273:Core/Src/main.c ****         Set_Speed(v, i);
 1189              		.loc 1 273 9 is_stmt 1 discriminator 3 view .LVU261
ARM GAS  C:\Users\86183\AppData\Local\Temp\ccdSsS0f.s 			page 28


 1190 00ae 2146     		mov	r1, r4
 1191 00b0 2848     		ldr	r0, .L132+8
 1192 00b2 FFF7FEFF 		bl	Set_Speed
 1193              	.LVL155:
 272:Core/Src/main.c ****         Set_Speed(v, i);
 1194              		.loc 1 272 30 discriminator 3 view .LVU262
 272:Core/Src/main.c ****         Set_Speed(v, i);
 1195              		.loc 1 272 31 is_stmt 0 discriminator 3 view .LVU263
 1196 00b6 0134     		adds	r4, r4, #1
 1197              	.LVL156:
 1198              	.L113:
 272:Core/Src/main.c ****         Set_Speed(v, i);
 1199              		.loc 1 272 23 is_stmt 1 discriminator 1 view .LVU264
 272:Core/Src/main.c ****         Set_Speed(v, i);
 1200              		.loc 1 272 7 is_stmt 0 discriminator 1 view .LVU265
 1201 00b8 032C     		cmp	r4, #3
 1202 00ba F8DD     		ble	.L112
 1203              	.LVL157:
 1204              	.L111:
 272:Core/Src/main.c ****         Set_Speed(v, i);
 1205              		.loc 1 272 7 discriminator 1 view .LVU266
 1206              	.LBE12:
 269:Core/Src/main.c ****     while (getAngle() > 5)
 1207              		.loc 1 269 11 is_stmt 1 view .LVU267
 269:Core/Src/main.c ****     while (getAngle() > 5)
 1208              		.loc 1 269 12 is_stmt 0 view .LVU268
 1209 00bc FFF7FEFF 		bl	getAngle
 1210              	.LVL158:
 269:Core/Src/main.c ****     while (getAngle() > 5)
 1211              		.loc 1 269 11 view .LVU269
 1212 00c0 2749     		ldr	r1, .L132+20
 1213 00c2 FFF7FEFF 		bl	__aeabi_fcmpgt
 1214              	.LVL159:
 1215 00c6 08B1     		cbz	r0, .L107
 1216              	.LBB13:
 272:Core/Src/main.c ****         Set_Speed(v, i);
 1217              		.loc 1 272 16 view .LVU270
 1218 00c8 0024     		movs	r4, #0
 1219 00ca F5E7     		b	.L113
 1220              	.L107:
 272:Core/Src/main.c ****         Set_Speed(v, i);
 1221              		.loc 1 272 16 view .LVU271
 1222              	.LBE13:
 274:Core/Src/main.c ****     }
 275:Core/Src/main.c ****   }
 276:Core/Src/main.c ****   if (getAngle() < 0)
 1223              		.loc 1 276 3 is_stmt 1 view .LVU272
 1224              		.loc 1 276 7 is_stmt 0 view .LVU273
 1225 00cc FFF7FEFF 		bl	getAngle
 1226              	.LVL160:
 1227              		.loc 1 276 6 view .LVU274
 1228 00d0 0021     		movs	r1, #0
 1229 00d2 FFF7FEFF 		bl	__aeabi_fcmplt
 1230              	.LVL161:
 1231 00d6 40B9     		cbnz	r0, .L131
 277:Core/Src/main.c ****   {
 278:Core/Src/main.c ****     Set_Left_Direction(-1);
ARM GAS  C:\Users\86183\AppData\Local\Temp\ccdSsS0f.s 			page 29


 279:Core/Src/main.c ****     Set_Right_Direction(1);
 280:Core/Src/main.c ****     for (int i = 0; i < 4; i++)
 281:Core/Src/main.c ****       Set_Speed(2, i);
 282:Core/Src/main.c ****     while (getAngle() < -1)
 283:Core/Src/main.c ****       ;
 284:Core/Src/main.c ****   }
 285:Core/Src/main.c ****   else
 286:Core/Src/main.c ****   {
 287:Core/Src/main.c ****     Set_Left_Direction(1);
 1232              		.loc 1 287 5 is_stmt 1 view .LVU275
 1233 00d8 0120     		movs	r0, #1
 1234 00da FFF7FEFF 		bl	Set_Left_Direction
 1235              	.LVL162:
 288:Core/Src/main.c ****     Set_Right_Direction(-1);
 1236              		.loc 1 288 5 view .LVU276
 1237 00de 4FF0FF30 		mov	r0, #-1
 1238 00e2 FFF7FEFF 		bl	Set_Right_Direction
 1239              	.LVL163:
 289:Core/Src/main.c ****     for (int i = 0; i < 4; i++)
 1240              		.loc 1 289 5 view .LVU277
 1241              	.LBB14:
 1242              		.loc 1 289 10 view .LVU278
 1243              		.loc 1 289 14 is_stmt 0 view .LVU279
 1244 00e6 0024     		movs	r4, #0
 1245              		.loc 1 289 5 view .LVU280
 1246 00e8 1EE0     		b	.L120
 1247              	.LVL164:
 1248              	.L131:
 1249              		.loc 1 289 5 view .LVU281
 1250              	.LBE14:
 278:Core/Src/main.c ****     Set_Right_Direction(1);
 1251              		.loc 1 278 5 is_stmt 1 view .LVU282
 1252 00ea 4FF0FF30 		mov	r0, #-1
 1253 00ee FFF7FEFF 		bl	Set_Left_Direction
 1254              	.LVL165:
 279:Core/Src/main.c ****     for (int i = 0; i < 4; i++)
 1255              		.loc 1 279 5 view .LVU283
 1256 00f2 0120     		movs	r0, #1
 1257 00f4 FFF7FEFF 		bl	Set_Right_Direction
 1258              	.LVL166:
 280:Core/Src/main.c ****       Set_Speed(2, i);
 1259              		.loc 1 280 5 view .LVU284
 1260              	.LBB15:
 280:Core/Src/main.c ****       Set_Speed(2, i);
 1261              		.loc 1 280 10 view .LVU285
 280:Core/Src/main.c ****       Set_Speed(2, i);
 1262              		.loc 1 280 14 is_stmt 0 view .LVU286
 1263 00f8 0024     		movs	r4, #0
 280:Core/Src/main.c ****       Set_Speed(2, i);
 1264              		.loc 1 280 5 view .LVU287
 1265 00fa 05E0     		b	.L116
 1266              	.LVL167:
 1267              	.L117:
 281:Core/Src/main.c ****     while (getAngle() < -1)
 1268              		.loc 1 281 7 is_stmt 1 discriminator 3 view .LVU288
 1269 00fc 2146     		mov	r1, r4
 1270 00fe 4FF08040 		mov	r0, #1073741824
ARM GAS  C:\Users\86183\AppData\Local\Temp\ccdSsS0f.s 			page 30


 1271 0102 FFF7FEFF 		bl	Set_Speed
 1272              	.LVL168:
 280:Core/Src/main.c ****       Set_Speed(2, i);
 1273              		.loc 1 280 28 discriminator 3 view .LVU289
 280:Core/Src/main.c ****       Set_Speed(2, i);
 1274              		.loc 1 280 29 is_stmt 0 discriminator 3 view .LVU290
 1275 0106 0134     		adds	r4, r4, #1
 1276              	.LVL169:
 1277              	.L116:
 280:Core/Src/main.c ****       Set_Speed(2, i);
 1278              		.loc 1 280 21 is_stmt 1 discriminator 1 view .LVU291
 280:Core/Src/main.c ****       Set_Speed(2, i);
 1279              		.loc 1 280 5 is_stmt 0 discriminator 1 view .LVU292
 1280 0108 032C     		cmp	r4, #3
 1281 010a F7DD     		ble	.L117
 1282              	.L118:
 1283              	.LBE15:
 283:Core/Src/main.c ****   }
 1284              		.loc 1 283 7 is_stmt 1 discriminator 1 view .LVU293
 282:Core/Src/main.c ****       ;
 1285              		.loc 1 282 11 discriminator 1 view .LVU294
 282:Core/Src/main.c ****       ;
 1286              		.loc 1 282 12 is_stmt 0 discriminator 1 view .LVU295
 1287 010c FFF7FEFF 		bl	getAngle
 1288              	.LVL170:
 282:Core/Src/main.c ****       ;
 1289              		.loc 1 282 11 discriminator 1 view .LVU296
 1290 0110 1449     		ldr	r1, .L132+24
 1291 0112 FFF7FEFF 		bl	__aeabi_fcmplt
 1292              	.LVL171:
 1293 0116 0028     		cmp	r0, #0
 1294 0118 F8D1     		bne	.L118
 1295 011a 0FE0     		b	.L119
 1296              	.LVL172:
 1297              	.L121:
 1298              	.LBB16:
 290:Core/Src/main.c ****       Set_Speed(2, i);
 1299              		.loc 1 290 7 is_stmt 1 discriminator 3 view .LVU297
 1300 011c 2146     		mov	r1, r4
 1301 011e 4FF08040 		mov	r0, #1073741824
 1302 0122 FFF7FEFF 		bl	Set_Speed
 1303              	.LVL173:
 289:Core/Src/main.c ****       Set_Speed(2, i);
 1304              		.loc 1 289 28 discriminator 3 view .LVU298
 289:Core/Src/main.c ****       Set_Speed(2, i);
 1305              		.loc 1 289 29 is_stmt 0 discriminator 3 view .LVU299
 1306 0126 0134     		adds	r4, r4, #1
 1307              	.LVL174:
 1308              	.L120:
 289:Core/Src/main.c ****       Set_Speed(2, i);
 1309              		.loc 1 289 21 is_stmt 1 discriminator 1 view .LVU300
 289:Core/Src/main.c ****       Set_Speed(2, i);
 1310              		.loc 1 289 5 is_stmt 0 discriminator 1 view .LVU301
 1311 0128 032C     		cmp	r4, #3
 1312 012a F7DD     		ble	.L121
 1313              	.L122:
 1314              	.LBE16:
ARM GAS  C:\Users\86183\AppData\Local\Temp\ccdSsS0f.s 			page 31


 291:Core/Src/main.c ****     while (getAngle() > 1)
 292:Core/Src/main.c ****       ;
 1315              		.loc 1 292 7 is_stmt 1 discriminator 1 view .LVU302
 291:Core/Src/main.c ****     while (getAngle() > 1)
 1316              		.loc 1 291 11 discriminator 1 view .LVU303
 291:Core/Src/main.c ****     while (getAngle() > 1)
 1317              		.loc 1 291 12 is_stmt 0 discriminator 1 view .LVU304
 1318 012c FFF7FEFF 		bl	getAngle
 1319              	.LVL175:
 291:Core/Src/main.c ****     while (getAngle() > 1)
 1320              		.loc 1 291 11 discriminator 1 view .LVU305
 1321 0130 4FF07E51 		mov	r1, #1065353216
 1322 0134 FFF7FEFF 		bl	__aeabi_fcmpgt
 1323              	.LVL176:
 1324 0138 0028     		cmp	r0, #0
 1325 013a F7D1     		bne	.L122
 1326              	.LVL177:
 1327              	.L119:
 293:Core/Src/main.c ****   }
 294:Core/Src/main.c ****   Set_Left_Direction(0);
 1328              		.loc 1 294 3 is_stmt 1 view .LVU306
 1329 013c 0020     		movs	r0, #0
 1330 013e FFF7FEFF 		bl	Set_Left_Direction
 1331              	.LVL178:
 295:Core/Src/main.c ****   Set_Right_Direction(0);
 1332              		.loc 1 295 3 view .LVU307
 1333 0142 0020     		movs	r0, #0
 1334 0144 FFF7FEFF 		bl	Set_Right_Direction
 1335              	.LVL179:
 296:Core/Src/main.c **** }
 1336              		.loc 1 296 1 is_stmt 0 view .LVU308
 1337 0148 38BD     		pop	{r3, r4, r5, pc}
 1338              	.L133:
 1339 014a 00BF     		.align	2
 1340              	.L132:
 1341 014c 00000000 		.word	.LANCHOR7
 1342 0150 000048C2 		.word	-1035468800
 1343 0154 00004040 		.word	1077936128
 1344 0158 0000A0C0 		.word	-1063256064
 1345 015c 00004842 		.word	1112014848
 1346 0160 0000A040 		.word	1084227584
 1347 0164 000080BF 		.word	-1082130432
 1348              		.cfi_endproc
 1349              	.LFE75:
 1351              		.global	__aeabi_ui2f
 1352              		.global	__aeabi_f2d
 1353              		.global	__aeabi_dmul
 1354              		.global	__aeabi_d2f
 1355              		.global	__aeabi_dadd
 1356              		.global	__aeabi_f2iz
 1357              		.section	.text.HAL_TIM_PeriodElapsedCallback,"ax",%progbits
 1358              		.align	1
 1359              		.global	HAL_TIM_PeriodElapsedCallback
 1360              		.syntax unified
 1361              		.thumb
 1362              		.thumb_func
 1363              		.fpu softvfp
ARM GAS  C:\Users\86183\AppData\Local\Temp\ccdSsS0f.s 			page 32


 1365              	HAL_TIM_PeriodElapsedCallback:
 1366              	.LVL180:
 1367              	.LFB76:
 297:Core/Src/main.c **** 
 298:Core/Src/main.c **** void HAL_TIM_PeriodElapsedCallback(TIM_HandleTypeDef *htim)
 299:Core/Src/main.c **** {
 1368              		.loc 1 299 1 is_stmt 1 view -0
 1369              		.cfi_startproc
 1370              		@ args = 0, pretend = 0, frame = 0
 1371              		@ frame_needed = 0, uses_anonymous_args = 0
 1372              		.loc 1 299 1 is_stmt 0 view .LVU310
 1373 0000 2DE9F84F 		push	{r3, r4, r5, r6, r7, r8, r9, r10, fp, lr}
 1374              	.LCFI9:
 1375              		.cfi_def_cfa_offset 40
 1376              		.cfi_offset 3, -40
 1377              		.cfi_offset 4, -36
 1378              		.cfi_offset 5, -32
 1379              		.cfi_offset 6, -28
 1380              		.cfi_offset 7, -24
 1381              		.cfi_offset 8, -20
 1382              		.cfi_offset 9, -16
 1383              		.cfi_offset 10, -12
 1384              		.cfi_offset 11, -8
 1385              		.cfi_offset 14, -4
 300:Core/Src/main.c ****   if (htim->Instance == TIM2)
 1386              		.loc 1 300 3 is_stmt 1 view .LVU311
 1387              		.loc 1 300 11 is_stmt 0 view .LVU312
 1388 0004 0368     		ldr	r3, [r0]
 1389              		.loc 1 300 6 view .LVU313
 1390 0006 B3F1804F 		cmp	r3, #1073741824
 1391 000a 01D0     		beq	.L141
 1392              	.LVL181:
 1393              	.L134:
 301:Core/Src/main.c ****   {
 302:Core/Src/main.c ****     unsigned int cnt0 = __HAL_TIM_GetCounter(&htim3);
 303:Core/Src/main.c ****     unsigned int cnt1 = __HAL_TIM_GetCounter(&htim4);
 304:Core/Src/main.c ****     unsigned int cnt2 = __HAL_TIM_GetCounter(&htim5);
 305:Core/Src/main.c ****     unsigned int cnt3 = __HAL_TIM_GetCounter(&htim8);
 306:Core/Src/main.c **** 
 307:Core/Src/main.c ****     if (cnt0 > 32676)
 308:Core/Src/main.c ****       cnt0 = 65535 - cnt0;
 309:Core/Src/main.c ****     if (cnt1 > 32676)
 310:Core/Src/main.c ****       cnt1 = 65535 - cnt1;
 311:Core/Src/main.c ****     if (cnt2 > 32676)
 312:Core/Src/main.c ****       cnt2 = 65535 - cnt2;
 313:Core/Src/main.c ****     if (cnt3 > 32676)
 314:Core/Src/main.c ****       cnt3 = 65535 - cnt3;
 315:Core/Src/main.c **** 
 316:Core/Src/main.c ****     __HAL_TIM_SetCounter(&htim3, 0);
 317:Core/Src/main.c ****     __HAL_TIM_SetCounter(&htim4, 0);
 318:Core/Src/main.c ****     __HAL_TIM_SetCounter(&htim5, 0);
 319:Core/Src/main.c ****     __HAL_TIM_SetCounter(&htim8, 0);
 320:Core/Src/main.c **** 
 321:Core/Src/main.c ****     float speed0 = (float)cnt0 * 20 / 532 * 20.4 * 0.71;
 322:Core/Src/main.c ****     float speed1 = (float)cnt1 * 20 / 531 * 20.4 * 0.71;
 323:Core/Src/main.c ****     float speed2 = (float)cnt2 * 20 / 531 * 20.4 * 0.71;
 324:Core/Src/main.c ****     float speed3 = (float)cnt3 * 20 / 530 * 20.4 * 0.71;
ARM GAS  C:\Users\86183\AppData\Local\Temp\ccdSsS0f.s 			page 33


 325:Core/Src/main.c **** 
 326:Core/Src/main.c ****     // distance += (speed0 + speed1 + speed2 + speed3) * 0.0125;
 327:Core/Src/main.c ****     float distance1 = (speed0 + speed2) * 0.025;
 328:Core/Src/main.c ****     float distance2 = (speed1 + speed3) * 0.025;
 329:Core/Src/main.c ****     distance += sqrt(sq(distance1) + sq(distance2));
 330:Core/Src/main.c **** 
 331:Core/Src/main.c ****     int pwm0 = (int)PID(speed0, target[0], 0);
 332:Core/Src/main.c ****     int pwm1 = (int)PID(speed1, target[1], 1);
 333:Core/Src/main.c ****     int pwm2 = (int)PID(speed2, target[2], 2);
 334:Core/Src/main.c ****     int pwm3 = (int)PID(speed3, target[3], 3);
 335:Core/Src/main.c **** 
 336:Core/Src/main.c ****     __HAL_TIM_SetCompare(&htim1, TIM_CHANNEL_1, pwm0);
 337:Core/Src/main.c ****     __HAL_TIM_SetCompare(&htim1, TIM_CHANNEL_2, pwm1);
 338:Core/Src/main.c ****     __HAL_TIM_SetCompare(&htim1, TIM_CHANNEL_3, pwm2);
 339:Core/Src/main.c ****     __HAL_TIM_SetCompare(&htim1, TIM_CHANNEL_4, pwm3);
 340:Core/Src/main.c ****   }
 341:Core/Src/main.c **** }
 1394              		.loc 1 341 1 view .LVU314
 1395 000c BDE8F88F 		pop	{r3, r4, r5, r6, r7, r8, r9, r10, fp, pc}
 1396              	.LVL182:
 1397              	.L141:
 1398              	.LBB17:
 302:Core/Src/main.c ****     unsigned int cnt1 = __HAL_TIM_GetCounter(&htim4);
 1399              		.loc 1 302 5 is_stmt 1 view .LVU315
 302:Core/Src/main.c ****     unsigned int cnt1 = __HAL_TIM_GetCounter(&htim4);
 1400              		.loc 1 302 25 is_stmt 0 view .LVU316
 1401 0010 7F4B     		ldr	r3, .L142+24
 1402 0012 D3F800C0 		ldr	ip, [r3]
 302:Core/Src/main.c ****     unsigned int cnt1 = __HAL_TIM_GetCounter(&htim4);
 1403              		.loc 1 302 18 view .LVU317
 1404 0016 DCF82400 		ldr	r0, [ip, #36]
 1405              	.LVL183:
 303:Core/Src/main.c ****     unsigned int cnt2 = __HAL_TIM_GetCounter(&htim5);
 1406              		.loc 1 303 5 is_stmt 1 view .LVU318
 303:Core/Src/main.c ****     unsigned int cnt2 = __HAL_TIM_GetCounter(&htim5);
 1407              		.loc 1 303 25 is_stmt 0 view .LVU319
 1408 001a 7E4B     		ldr	r3, .L142+28
 1409 001c 1968     		ldr	r1, [r3]
 303:Core/Src/main.c ****     unsigned int cnt2 = __HAL_TIM_GetCounter(&htim5);
 1410              		.loc 1 303 18 view .LVU320
 1411 001e 4F6A     		ldr	r7, [r1, #36]
 1412              	.LVL184:
 304:Core/Src/main.c ****     unsigned int cnt3 = __HAL_TIM_GetCounter(&htim8);
 1413              		.loc 1 304 5 is_stmt 1 view .LVU321
 304:Core/Src/main.c ****     unsigned int cnt3 = __HAL_TIM_GetCounter(&htim8);
 1414              		.loc 1 304 25 is_stmt 0 view .LVU322
 1415 0020 7D4B     		ldr	r3, .L142+32
 1416 0022 1A68     		ldr	r2, [r3]
 304:Core/Src/main.c ****     unsigned int cnt3 = __HAL_TIM_GetCounter(&htim8);
 1417              		.loc 1 304 18 view .LVU323
 1418 0024 566A     		ldr	r6, [r2, #36]
 1419              	.LVL185:
 305:Core/Src/main.c **** 
 1420              		.loc 1 305 5 is_stmt 1 view .LVU324
 305:Core/Src/main.c **** 
 1421              		.loc 1 305 25 is_stmt 0 view .LVU325
 1422 0026 7D4B     		ldr	r3, .L142+36
ARM GAS  C:\Users\86183\AppData\Local\Temp\ccdSsS0f.s 			page 34


 1423 0028 1B68     		ldr	r3, [r3]
 305:Core/Src/main.c **** 
 1424              		.loc 1 305 18 view .LVU326
 1425 002a 5D6A     		ldr	r5, [r3, #36]
 1426              	.LVL186:
 307:Core/Src/main.c ****       cnt0 = 65535 - cnt0;
 1427              		.loc 1 307 5 is_stmt 1 view .LVU327
 307:Core/Src/main.c ****       cnt0 = 65535 - cnt0;
 1428              		.loc 1 307 8 is_stmt 0 view .LVU328
 1429 002c 47F6A474 		movw	r4, #32676
 1430 0030 A042     		cmp	r0, r4
 1431 0032 02D9     		bls	.L136
 308:Core/Src/main.c ****     if (cnt1 > 32676)
 1432              		.loc 1 308 7 is_stmt 1 view .LVU329
 308:Core/Src/main.c ****     if (cnt1 > 32676)
 1433              		.loc 1 308 12 is_stmt 0 view .LVU330
 1434 0034 C0F57F40 		rsb	r0, r0, #65280
 1435              	.LVL187:
 308:Core/Src/main.c ****     if (cnt1 > 32676)
 1436              		.loc 1 308 12 view .LVU331
 1437 0038 FF30     		adds	r0, r0, #255
 1438              	.LVL188:
 1439              	.L136:
 309:Core/Src/main.c ****       cnt1 = 65535 - cnt1;
 1440              		.loc 1 309 5 is_stmt 1 view .LVU332
 309:Core/Src/main.c ****       cnt1 = 65535 - cnt1;
 1441              		.loc 1 309 8 is_stmt 0 view .LVU333
 1442 003a 47F6A474 		movw	r4, #32676
 1443 003e A742     		cmp	r7, r4
 1444 0040 02D9     		bls	.L137
 310:Core/Src/main.c ****     if (cnt2 > 32676)
 1445              		.loc 1 310 7 is_stmt 1 view .LVU334
 310:Core/Src/main.c ****     if (cnt2 > 32676)
 1446              		.loc 1 310 12 is_stmt 0 view .LVU335
 1447 0042 C7F57F47 		rsb	r7, r7, #65280
 1448              	.LVL189:
 310:Core/Src/main.c ****     if (cnt2 > 32676)
 1449              		.loc 1 310 12 view .LVU336
 1450 0046 FF37     		adds	r7, r7, #255
 1451              	.LVL190:
 1452              	.L137:
 311:Core/Src/main.c ****       cnt2 = 65535 - cnt2;
 1453              		.loc 1 311 5 is_stmt 1 view .LVU337
 311:Core/Src/main.c ****       cnt2 = 65535 - cnt2;
 1454              		.loc 1 311 8 is_stmt 0 view .LVU338
 1455 0048 47F6A474 		movw	r4, #32676
 1456 004c A642     		cmp	r6, r4
 1457 004e 02D9     		bls	.L138
 312:Core/Src/main.c ****     if (cnt3 > 32676)
 1458              		.loc 1 312 7 is_stmt 1 view .LVU339
 312:Core/Src/main.c ****     if (cnt3 > 32676)
 1459              		.loc 1 312 12 is_stmt 0 view .LVU340
 1460 0050 C6F57F46 		rsb	r6, r6, #65280
 1461              	.LVL191:
 312:Core/Src/main.c ****     if (cnt3 > 32676)
 1462              		.loc 1 312 12 view .LVU341
 1463 0054 FF36     		adds	r6, r6, #255
ARM GAS  C:\Users\86183\AppData\Local\Temp\ccdSsS0f.s 			page 35


 1464              	.LVL192:
 1465              	.L138:
 313:Core/Src/main.c ****       cnt3 = 65535 - cnt3;
 1466              		.loc 1 313 5 is_stmt 1 view .LVU342
 313:Core/Src/main.c ****       cnt3 = 65535 - cnt3;
 1467              		.loc 1 313 8 is_stmt 0 view .LVU343
 1468 0056 47F6A474 		movw	r4, #32676
 1469 005a A542     		cmp	r5, r4
 1470 005c 02D9     		bls	.L139
 314:Core/Src/main.c **** 
 1471              		.loc 1 314 7 is_stmt 1 view .LVU344
 314:Core/Src/main.c **** 
 1472              		.loc 1 314 12 is_stmt 0 view .LVU345
 1473 005e C5F57F45 		rsb	r5, r5, #65280
 1474              	.LVL193:
 314:Core/Src/main.c **** 
 1475              		.loc 1 314 12 view .LVU346
 1476 0062 FF35     		adds	r5, r5, #255
 1477              	.LVL194:
 1478              	.L139:
 316:Core/Src/main.c ****     __HAL_TIM_SetCounter(&htim4, 0);
 1479              		.loc 1 316 5 is_stmt 1 view .LVU347
 1480 0064 0024     		movs	r4, #0
 1481 0066 CCF82440 		str	r4, [ip, #36]
 317:Core/Src/main.c ****     __HAL_TIM_SetCounter(&htim5, 0);
 1482              		.loc 1 317 5 view .LVU348
 1483 006a 4C62     		str	r4, [r1, #36]
 318:Core/Src/main.c ****     __HAL_TIM_SetCounter(&htim8, 0);
 1484              		.loc 1 318 5 view .LVU349
 1485 006c 5462     		str	r4, [r2, #36]
 319:Core/Src/main.c **** 
 1486              		.loc 1 319 5 view .LVU350
 1487 006e 5C62     		str	r4, [r3, #36]
 321:Core/Src/main.c ****     float speed1 = (float)cnt1 * 20 / 531 * 20.4 * 0.71;
 1488              		.loc 1 321 5 view .LVU351
 321:Core/Src/main.c ****     float speed1 = (float)cnt1 * 20 / 531 * 20.4 * 0.71;
 1489              		.loc 1 321 20 is_stmt 0 view .LVU352
 1490 0070 FFF7FEFF 		bl	__aeabi_ui2f
 1491              	.LVL195:
 321:Core/Src/main.c ****     float speed1 = (float)cnt1 * 20 / 531 * 20.4 * 0.71;
 1492              		.loc 1 321 32 view .LVU353
 1493 0074 6A49     		ldr	r1, .L142+40
 1494 0076 FFF7FEFF 		bl	__aeabi_fmul
 1495              	.LVL196:
 321:Core/Src/main.c ****     float speed1 = (float)cnt1 * 20 / 531 * 20.4 * 0.71;
 1496              		.loc 1 321 37 view .LVU354
 1497 007a 6A49     		ldr	r1, .L142+44
 1498 007c FFF7FEFF 		bl	__aeabi_fdiv
 1499              	.LVL197:
 1500 0080 FFF7FEFF 		bl	__aeabi_f2d
 1501              	.LVL198:
 321:Core/Src/main.c ****     float speed1 = (float)cnt1 * 20 / 531 * 20.4 * 0.71;
 1502              		.loc 1 321 43 view .LVU355
 1503 0084 5CA3     		adr	r3, .L142
 1504 0086 D3E90023 		ldrd	r2, [r3]
 1505 008a FFF7FEFF 		bl	__aeabi_dmul
 1506              	.LVL199:
ARM GAS  C:\Users\86183\AppData\Local\Temp\ccdSsS0f.s 			page 36


 321:Core/Src/main.c ****     float speed1 = (float)cnt1 * 20 / 531 * 20.4 * 0.71;
 1507              		.loc 1 321 50 view .LVU356
 1508 008e 5CA3     		adr	r3, .L142+8
 1509 0090 D3E90023 		ldrd	r2, [r3]
 1510 0094 FFF7FEFF 		bl	__aeabi_dmul
 1511              	.LVL200:
 321:Core/Src/main.c ****     float speed1 = (float)cnt1 * 20 / 531 * 20.4 * 0.71;
 1512              		.loc 1 321 11 view .LVU357
 1513 0098 FFF7FEFF 		bl	__aeabi_d2f
 1514              	.LVL201:
 1515 009c 8346     		mov	fp, r0
 1516              	.LVL202:
 322:Core/Src/main.c ****     float speed2 = (float)cnt2 * 20 / 531 * 20.4 * 0.71;
 1517              		.loc 1 322 5 is_stmt 1 view .LVU358
 322:Core/Src/main.c ****     float speed2 = (float)cnt2 * 20 / 531 * 20.4 * 0.71;
 1518              		.loc 1 322 20 is_stmt 0 view .LVU359
 1519 009e 3846     		mov	r0, r7
 1520              	.LVL203:
 322:Core/Src/main.c ****     float speed2 = (float)cnt2 * 20 / 531 * 20.4 * 0.71;
 1521              		.loc 1 322 20 view .LVU360
 1522 00a0 FFF7FEFF 		bl	__aeabi_ui2f
 1523              	.LVL204:
 322:Core/Src/main.c ****     float speed2 = (float)cnt2 * 20 / 531 * 20.4 * 0.71;
 1524              		.loc 1 322 32 view .LVU361
 1525 00a4 5E49     		ldr	r1, .L142+40
 1526 00a6 FFF7FEFF 		bl	__aeabi_fmul
 1527              	.LVL205:
 322:Core/Src/main.c ****     float speed2 = (float)cnt2 * 20 / 531 * 20.4 * 0.71;
 1528              		.loc 1 322 37 view .LVU362
 1529 00aa 5F49     		ldr	r1, .L142+48
 1530 00ac FFF7FEFF 		bl	__aeabi_fdiv
 1531              	.LVL206:
 1532 00b0 FFF7FEFF 		bl	__aeabi_f2d
 1533              	.LVL207:
 322:Core/Src/main.c ****     float speed2 = (float)cnt2 * 20 / 531 * 20.4 * 0.71;
 1534              		.loc 1 322 43 view .LVU363
 1535 00b4 50A3     		adr	r3, .L142
 1536 00b6 D3E90023 		ldrd	r2, [r3]
 1537 00ba FFF7FEFF 		bl	__aeabi_dmul
 1538              	.LVL208:
 322:Core/Src/main.c ****     float speed2 = (float)cnt2 * 20 / 531 * 20.4 * 0.71;
 1539              		.loc 1 322 50 view .LVU364
 1540 00be 50A3     		adr	r3, .L142+8
 1541 00c0 D3E90023 		ldrd	r2, [r3]
 1542 00c4 FFF7FEFF 		bl	__aeabi_dmul
 1543              	.LVL209:
 322:Core/Src/main.c ****     float speed2 = (float)cnt2 * 20 / 531 * 20.4 * 0.71;
 1544              		.loc 1 322 11 view .LVU365
 1545 00c8 FFF7FEFF 		bl	__aeabi_d2f
 1546              	.LVL210:
 1547 00cc 8246     		mov	r10, r0
 1548              	.LVL211:
 323:Core/Src/main.c ****     float speed3 = (float)cnt3 * 20 / 530 * 20.4 * 0.71;
 1549              		.loc 1 323 5 is_stmt 1 view .LVU366
 323:Core/Src/main.c ****     float speed3 = (float)cnt3 * 20 / 530 * 20.4 * 0.71;
 1550              		.loc 1 323 20 is_stmt 0 view .LVU367
 1551 00ce 3046     		mov	r0, r6
ARM GAS  C:\Users\86183\AppData\Local\Temp\ccdSsS0f.s 			page 37


 1552              	.LVL212:
 323:Core/Src/main.c ****     float speed3 = (float)cnt3 * 20 / 530 * 20.4 * 0.71;
 1553              		.loc 1 323 20 view .LVU368
 1554 00d0 FFF7FEFF 		bl	__aeabi_ui2f
 1555              	.LVL213:
 323:Core/Src/main.c ****     float speed3 = (float)cnt3 * 20 / 530 * 20.4 * 0.71;
 1556              		.loc 1 323 32 view .LVU369
 1557 00d4 5249     		ldr	r1, .L142+40
 1558 00d6 FFF7FEFF 		bl	__aeabi_fmul
 1559              	.LVL214:
 323:Core/Src/main.c ****     float speed3 = (float)cnt3 * 20 / 530 * 20.4 * 0.71;
 1560              		.loc 1 323 37 view .LVU370
 1561 00da 5349     		ldr	r1, .L142+48
 1562 00dc FFF7FEFF 		bl	__aeabi_fdiv
 1563              	.LVL215:
 1564 00e0 FFF7FEFF 		bl	__aeabi_f2d
 1565              	.LVL216:
 323:Core/Src/main.c ****     float speed3 = (float)cnt3 * 20 / 530 * 20.4 * 0.71;
 1566              		.loc 1 323 43 view .LVU371
 1567 00e4 44A3     		adr	r3, .L142
 1568 00e6 D3E90023 		ldrd	r2, [r3]
 1569 00ea FFF7FEFF 		bl	__aeabi_dmul
 1570              	.LVL217:
 323:Core/Src/main.c ****     float speed3 = (float)cnt3 * 20 / 530 * 20.4 * 0.71;
 1571              		.loc 1 323 50 view .LVU372
 1572 00ee 44A3     		adr	r3, .L142+8
 1573 00f0 D3E90023 		ldrd	r2, [r3]
 1574 00f4 FFF7FEFF 		bl	__aeabi_dmul
 1575              	.LVL218:
 323:Core/Src/main.c ****     float speed3 = (float)cnt3 * 20 / 530 * 20.4 * 0.71;
 1576              		.loc 1 323 11 view .LVU373
 1577 00f8 FFF7FEFF 		bl	__aeabi_d2f
 1578              	.LVL219:
 1579 00fc 0746     		mov	r7, r0
 1580              	.LVL220:
 324:Core/Src/main.c **** 
 1581              		.loc 1 324 5 is_stmt 1 view .LVU374
 324:Core/Src/main.c **** 
 1582              		.loc 1 324 20 is_stmt 0 view .LVU375
 1583 00fe 2846     		mov	r0, r5
 1584              	.LVL221:
 324:Core/Src/main.c **** 
 1585              		.loc 1 324 20 view .LVU376
 1586 0100 FFF7FEFF 		bl	__aeabi_ui2f
 1587              	.LVL222:
 324:Core/Src/main.c **** 
 1588              		.loc 1 324 32 view .LVU377
 1589 0104 4649     		ldr	r1, .L142+40
 1590 0106 FFF7FEFF 		bl	__aeabi_fmul
 1591              	.LVL223:
 324:Core/Src/main.c **** 
 1592              		.loc 1 324 37 view .LVU378
 1593 010a 4849     		ldr	r1, .L142+52
 1594 010c FFF7FEFF 		bl	__aeabi_fdiv
 1595              	.LVL224:
 1596 0110 FFF7FEFF 		bl	__aeabi_f2d
 1597              	.LVL225:
ARM GAS  C:\Users\86183\AppData\Local\Temp\ccdSsS0f.s 			page 38


 324:Core/Src/main.c **** 
 1598              		.loc 1 324 43 view .LVU379
 1599 0114 38A3     		adr	r3, .L142
 1600 0116 D3E90023 		ldrd	r2, [r3]
 1601 011a FFF7FEFF 		bl	__aeabi_dmul
 1602              	.LVL226:
 324:Core/Src/main.c **** 
 1603              		.loc 1 324 50 view .LVU380
 1604 011e 38A3     		adr	r3, .L142+8
 1605 0120 D3E90023 		ldrd	r2, [r3]
 1606 0124 FFF7FEFF 		bl	__aeabi_dmul
 1607              	.LVL227:
 324:Core/Src/main.c **** 
 1608              		.loc 1 324 11 view .LVU381
 1609 0128 FFF7FEFF 		bl	__aeabi_d2f
 1610              	.LVL228:
 1611 012c 0546     		mov	r5, r0
 1612              	.LVL229:
 327:Core/Src/main.c ****     float distance2 = (speed1 + speed3) * 0.025;
 1613              		.loc 1 327 5 is_stmt 1 view .LVU382
 327:Core/Src/main.c ****     float distance2 = (speed1 + speed3) * 0.025;
 1614              		.loc 1 327 31 is_stmt 0 view .LVU383
 1615 012e 3946     		mov	r1, r7
 1616 0130 5846     		mov	r0, fp
 1617              	.LVL230:
 327:Core/Src/main.c ****     float distance2 = (speed1 + speed3) * 0.025;
 1618              		.loc 1 327 31 view .LVU384
 1619 0132 FFF7FEFF 		bl	__aeabi_fadd
 1620              	.LVL231:
 1621 0136 FFF7FEFF 		bl	__aeabi_f2d
 1622              	.LVL232:
 327:Core/Src/main.c ****     float distance2 = (speed1 + speed3) * 0.025;
 1623              		.loc 1 327 41 view .LVU385
 1624 013a 33A3     		adr	r3, .L142+16
 1625 013c D3E90023 		ldrd	r2, [r3]
 1626 0140 FFF7FEFF 		bl	__aeabi_dmul
 1627              	.LVL233:
 327:Core/Src/main.c ****     float distance2 = (speed1 + speed3) * 0.025;
 1628              		.loc 1 327 11 view .LVU386
 1629 0144 FFF7FEFF 		bl	__aeabi_d2f
 1630              	.LVL234:
 1631 0148 8046     		mov	r8, r0
 1632              	.LVL235:
 328:Core/Src/main.c ****     distance += sqrt(sq(distance1) + sq(distance2));
 1633              		.loc 1 328 5 is_stmt 1 view .LVU387
 328:Core/Src/main.c ****     distance += sqrt(sq(distance1) + sq(distance2));
 1634              		.loc 1 328 31 is_stmt 0 view .LVU388
 1635 014a 2946     		mov	r1, r5
 1636 014c 5046     		mov	r0, r10
 1637              	.LVL236:
 328:Core/Src/main.c ****     distance += sqrt(sq(distance1) + sq(distance2));
 1638              		.loc 1 328 31 view .LVU389
 1639 014e FFF7FEFF 		bl	__aeabi_fadd
 1640              	.LVL237:
 1641 0152 FFF7FEFF 		bl	__aeabi_f2d
 1642              	.LVL238:
 328:Core/Src/main.c ****     distance += sqrt(sq(distance1) + sq(distance2));
ARM GAS  C:\Users\86183\AppData\Local\Temp\ccdSsS0f.s 			page 39


 1643              		.loc 1 328 41 view .LVU390
 1644 0156 2CA3     		adr	r3, .L142+16
 1645 0158 D3E90023 		ldrd	r2, [r3]
 1646 015c FFF7FEFF 		bl	__aeabi_dmul
 1647              	.LVL239:
 328:Core/Src/main.c ****     distance += sqrt(sq(distance1) + sq(distance2));
 1648              		.loc 1 328 11 view .LVU391
 1649 0160 FFF7FEFF 		bl	__aeabi_d2f
 1650              	.LVL240:
 1651 0164 0646     		mov	r6, r0
 1652              	.LVL241:
 329:Core/Src/main.c **** 
 1653              		.loc 1 329 5 is_stmt 1 view .LVU392
 329:Core/Src/main.c **** 
 1654              		.loc 1 329 22 is_stmt 0 view .LVU393
 1655 0166 4146     		mov	r1, r8
 1656 0168 4046     		mov	r0, r8
 1657              	.LVL242:
 329:Core/Src/main.c **** 
 1658              		.loc 1 329 22 view .LVU394
 1659 016a FFF7FEFF 		bl	__aeabi_fmul
 1660              	.LVL243:
 1661 016e 8046     		mov	r8, r0
 1662              	.LVL244:
 329:Core/Src/main.c **** 
 1663              		.loc 1 329 38 view .LVU395
 1664 0170 3146     		mov	r1, r6
 1665 0172 3046     		mov	r0, r6
 1666 0174 FFF7FEFF 		bl	__aeabi_fmul
 1667              	.LVL245:
 1668 0178 0146     		mov	r1, r0
 329:Core/Src/main.c **** 
 1669              		.loc 1 329 36 view .LVU396
 1670 017a 4046     		mov	r0, r8
 1671 017c FFF7FEFF 		bl	__aeabi_fadd
 1672              	.LVL246:
 329:Core/Src/main.c **** 
 1673              		.loc 1 329 17 view .LVU397
 1674 0180 FFF7FEFF 		bl	__aeabi_f2d
 1675              	.LVL247:
 1676 0184 FFF7FEFF 		bl	sqrt
 1677              	.LVL248:
 1678 0188 8046     		mov	r8, r0
 1679 018a 8946     		mov	r9, r1
 329:Core/Src/main.c **** 
 1680              		.loc 1 329 14 view .LVU398
 1681 018c 284E     		ldr	r6, .L142+56
 1682              	.LVL249:
 329:Core/Src/main.c **** 
 1683              		.loc 1 329 14 view .LVU399
 1684 018e 3068     		ldr	r0, [r6]	@ float
 1685 0190 FFF7FEFF 		bl	__aeabi_f2d
 1686              	.LVL250:
 1687 0194 4246     		mov	r2, r8
 1688 0196 4B46     		mov	r3, r9
 1689 0198 FFF7FEFF 		bl	__aeabi_dadd
 1690              	.LVL251:
ARM GAS  C:\Users\86183\AppData\Local\Temp\ccdSsS0f.s 			page 40


 1691 019c FFF7FEFF 		bl	__aeabi_d2f
 1692              	.LVL252:
 1693 01a0 3060     		str	r0, [r6]	@ float
 331:Core/Src/main.c ****     int pwm1 = (int)PID(speed1, target[1], 1);
 1694              		.loc 1 331 5 is_stmt 1 view .LVU400
 331:Core/Src/main.c ****     int pwm1 = (int)PID(speed1, target[1], 1);
 1695              		.loc 1 331 21 is_stmt 0 view .LVU401
 1696 01a2 244E     		ldr	r6, .L142+60
 1697 01a4 2246     		mov	r2, r4
 1698 01a6 3168     		ldr	r1, [r6]	@ float
 1699 01a8 5846     		mov	r0, fp
 1700 01aa FFF7FEFF 		bl	PID
 1701              	.LVL253:
 331:Core/Src/main.c ****     int pwm1 = (int)PID(speed1, target[1], 1);
 1702              		.loc 1 331 9 view .LVU402
 1703 01ae FFF7FEFF 		bl	__aeabi_f2iz
 1704              	.LVL254:
 1705 01b2 0446     		mov	r4, r0
 1706              	.LVL255:
 332:Core/Src/main.c ****     int pwm2 = (int)PID(speed2, target[2], 2);
 1707              		.loc 1 332 5 is_stmt 1 view .LVU403
 332:Core/Src/main.c ****     int pwm2 = (int)PID(speed2, target[2], 2);
 1708              		.loc 1 332 21 is_stmt 0 view .LVU404
 1709 01b4 0122     		movs	r2, #1
 1710 01b6 7168     		ldr	r1, [r6, #4]	@ float
 1711 01b8 5046     		mov	r0, r10
 1712              	.LVL256:
 332:Core/Src/main.c ****     int pwm2 = (int)PID(speed2, target[2], 2);
 1713              		.loc 1 332 21 view .LVU405
 1714 01ba FFF7FEFF 		bl	PID
 1715              	.LVL257:
 332:Core/Src/main.c ****     int pwm2 = (int)PID(speed2, target[2], 2);
 1716              		.loc 1 332 9 view .LVU406
 1717 01be FFF7FEFF 		bl	__aeabi_f2iz
 1718              	.LVL258:
 1719 01c2 8046     		mov	r8, r0
 1720              	.LVL259:
 333:Core/Src/main.c ****     int pwm3 = (int)PID(speed3, target[3], 3);
 1721              		.loc 1 333 5 is_stmt 1 view .LVU407
 333:Core/Src/main.c ****     int pwm3 = (int)PID(speed3, target[3], 3);
 1722              		.loc 1 333 21 is_stmt 0 view .LVU408
 1723 01c4 0222     		movs	r2, #2
 1724 01c6 B168     		ldr	r1, [r6, #8]	@ float
 1725 01c8 3846     		mov	r0, r7
 1726              	.LVL260:
 333:Core/Src/main.c ****     int pwm3 = (int)PID(speed3, target[3], 3);
 1727              		.loc 1 333 21 view .LVU409
 1728 01ca FFF7FEFF 		bl	PID
 1729              	.LVL261:
 333:Core/Src/main.c ****     int pwm3 = (int)PID(speed3, target[3], 3);
 1730              		.loc 1 333 9 view .LVU410
 1731 01ce FFF7FEFF 		bl	__aeabi_f2iz
 1732              	.LVL262:
 1733 01d2 0746     		mov	r7, r0
 1734              	.LVL263:
 334:Core/Src/main.c **** 
 1735              		.loc 1 334 5 is_stmt 1 view .LVU411
ARM GAS  C:\Users\86183\AppData\Local\Temp\ccdSsS0f.s 			page 41


 334:Core/Src/main.c **** 
 1736              		.loc 1 334 21 is_stmt 0 view .LVU412
 1737 01d4 0322     		movs	r2, #3
 1738 01d6 F168     		ldr	r1, [r6, #12]	@ float
 1739 01d8 2846     		mov	r0, r5
 1740              	.LVL264:
 334:Core/Src/main.c **** 
 1741              		.loc 1 334 21 view .LVU413
 1742 01da FFF7FEFF 		bl	PID
 1743              	.LVL265:
 334:Core/Src/main.c **** 
 1744              		.loc 1 334 9 view .LVU414
 1745 01de FFF7FEFF 		bl	__aeabi_f2iz
 1746              	.LVL266:
 336:Core/Src/main.c ****     __HAL_TIM_SetCompare(&htim1, TIM_CHANNEL_2, pwm1);
 1747              		.loc 1 336 5 is_stmt 1 view .LVU415
 1748 01e2 154B     		ldr	r3, .L142+64
 1749 01e4 1B68     		ldr	r3, [r3]
 1750 01e6 5C63     		str	r4, [r3, #52]
 337:Core/Src/main.c ****     __HAL_TIM_SetCompare(&htim1, TIM_CHANNEL_3, pwm2);
 1751              		.loc 1 337 5 view .LVU416
 1752 01e8 C3F83880 		str	r8, [r3, #56]
 338:Core/Src/main.c ****     __HAL_TIM_SetCompare(&htim1, TIM_CHANNEL_4, pwm3);
 1753              		.loc 1 338 5 view .LVU417
 1754 01ec DF63     		str	r7, [r3, #60]
 339:Core/Src/main.c ****   }
 1755              		.loc 1 339 5 view .LVU418
 1756 01ee 1864     		str	r0, [r3, #64]
 1757              	.LBE17:
 1758              		.loc 1 341 1 is_stmt 0 view .LVU419
 1759 01f0 0CE7     		b	.L134
 1760              	.L143:
 1761 01f2 00BFAFF3 		.align	3
 1761      0080
 1762              	.L142:
 1763 01f8 66666666 		.word	1717986918
 1764 01fc 66663440 		.word	1077175910
 1765 0200 B81E85EB 		.word	-343597384
 1766 0204 51B8E63F 		.word	1072085073
 1767 0208 9A999999 		.word	-1717986918
 1768 020c 9999993F 		.word	1067030937
 1769 0210 00000000 		.word	htim3
 1770 0214 00000000 		.word	htim4
 1771 0218 00000000 		.word	htim5
 1772 021c 00000000 		.word	htim8
 1773 0220 0000A041 		.word	1101004800
 1774 0224 00000544 		.word	1141178368
 1775 0228 00C00444 		.word	1141161984
 1776 022c 00800444 		.word	1141145600
 1777 0230 00000000 		.word	.LANCHOR0
 1778 0234 00000000 		.word	.LANCHOR9
 1779 0238 00000000 		.word	htim1
 1780              		.cfi_endproc
 1781              	.LFE76:
 1783              		.global	__aeabi_i2f
 1784              		.global	__aeabi_i2d
 1785              		.global	__aeabi_d2iz
ARM GAS  C:\Users\86183\AppData\Local\Temp\ccdSsS0f.s 			page 42


 1786              		.section	.text.userGetCarPos,"ax",%progbits
 1787              		.align	1
 1788              		.global	userGetCarPos
 1789              		.syntax unified
 1790              		.thumb
 1791              		.thumb_func
 1792              		.fpu softvfp
 1794              	userGetCarPos:
 1795              	.LVL267:
 1796              	.LFB77:
 342:Core/Src/main.c **** struct MYCOORD userGetCarPos()
 343:Core/Src/main.c **** {
 1797              		.loc 1 343 1 is_stmt 1 view -0
 1798              		.cfi_startproc
 1799              		@ args = 0, pretend = 0, frame = 128
 1800              		@ frame_needed = 0, uses_anonymous_args = 0
 1801              		.loc 1 343 1 is_stmt 0 view .LVU421
 1802 0000 2DE9F04F 		push	{r4, r5, r6, r7, r8, r9, r10, fp, lr}
 1803              	.LCFI10:
 1804              		.cfi_def_cfa_offset 36
 1805              		.cfi_offset 4, -36
 1806              		.cfi_offset 5, -32
 1807              		.cfi_offset 6, -28
 1808              		.cfi_offset 7, -24
 1809              		.cfi_offset 8, -20
 1810              		.cfi_offset 9, -16
 1811              		.cfi_offset 10, -12
 1812              		.cfi_offset 11, -8
 1813              		.cfi_offset 14, -4
 1814 0004 A1B0     		sub	sp, sp, #132
 1815              	.LCFI11:
 1816              		.cfi_def_cfa_offset 168
 1817 0006 8346     		mov	fp, r0
 344:Core/Src/main.c ****   struct MYCOORD coord = {0, 0, 0};
 1818              		.loc 1 344 3 is_stmt 1 view .LVU422
 1819              		.loc 1 344 18 is_stmt 0 view .LVU423
 1820 0008 0023     		movs	r3, #0
 1821 000a 0360     		str	r3, [r0]	@ float
 1822 000c 4360     		str	r3, [r0, #4]	@ float
 1823 000e 8360     		str	r3, [r0, #8]	@ float
 345:Core/Src/main.c ****   if (getIsCarPosValid())
 1824              		.loc 1 345 3 is_stmt 1 view .LVU424
 1825              		.loc 1 345 7 is_stmt 0 view .LVU425
 1826 0010 FFF7FEFF 		bl	getIsCarPosValid
 1827              	.LVL268:
 1828              		.loc 1 345 6 view .LVU426
 1829 0014 B0B9     		cbnz	r0, .L155
 1830              	.LBB18:
 346:Core/Src/main.c ****   {
 347:Core/Src/main.c ****     coord.x = getCarPosX();
 348:Core/Src/main.c ****     coord.y = getCarPosY();
 349:Core/Src/main.c ****     return coord;
 350:Core/Src/main.c ****   }
 351:Core/Src/main.c ****   int x[3], y[3], beaconD[3], xBase, yBase, cnt = 0;
 352:Core/Src/main.c ****   float A[2], B[2], C[2], xTemp[2], yTemp[2], xRes = 0, yRes = 0;
 353:Core/Src/main.c ****   for (int i = 0; i < 3; i++)
 1831              		.loc 1 353 12 view .LVU427
ARM GAS  C:\Users\86183\AppData\Local\Temp\ccdSsS0f.s 			page 43


 1832 0016 0024     		movs	r4, #0
 1833              	.L145:
 1834              	.LVL269:
 1835              		.loc 1 353 19 is_stmt 1 discriminator 1 view .LVU428
 1836              		.loc 1 353 3 is_stmt 0 discriminator 1 view .LVU429
 1837 0018 022C     		cmp	r4, #2
 1838 001a 20DC     		bgt	.L156
 354:Core/Src/main.c ****   {
 355:Core/Src/main.c ****     x[i] = getMyBeaconPosX(i);
 1839              		.loc 1 355 5 is_stmt 1 discriminator 3 view .LVU430
 1840              		.loc 1 355 12 is_stmt 0 discriminator 3 view .LVU431
 1841 001c 2046     		mov	r0, r4
 1842 001e FFF7FEFF 		bl	getMyBeaconPosX
 1843              	.LVL270:
 1844              		.loc 1 355 10 discriminator 3 view .LVU432
 1845 0022 20AB     		add	r3, sp, #128
 1846 0024 03EB8405 		add	r5, r3, r4, lsl #2
 1847 0028 45F80C0C 		str	r0, [r5, #-12]
 356:Core/Src/main.c ****     y[i] = getMyBeaconPosY(i);
 1848              		.loc 1 356 5 is_stmt 1 discriminator 3 view .LVU433
 1849              		.loc 1 356 12 is_stmt 0 discriminator 3 view .LVU434
 1850 002c 2046     		mov	r0, r4
 1851 002e FFF7FEFF 		bl	getMyBeaconPosY
 1852              	.LVL271:
 1853              		.loc 1 356 10 discriminator 3 view .LVU435
 1854 0032 45F8180C 		str	r0, [r5, #-24]
 357:Core/Src/main.c ****     beaconD[i] = getDistanceOfMyBeacon(i);
 1855              		.loc 1 357 5 is_stmt 1 discriminator 3 view .LVU436
 1856              		.loc 1 357 18 is_stmt 0 discriminator 3 view .LVU437
 1857 0036 2046     		mov	r0, r4
 1858 0038 FFF7FEFF 		bl	getDistanceOfMyBeacon
 1859              	.LVL272:
 1860              		.loc 1 357 16 discriminator 3 view .LVU438
 1861 003c 45F8240C 		str	r0, [r5, #-36]
 353:Core/Src/main.c ****   {
 1862              		.loc 1 353 26 is_stmt 1 discriminator 3 view .LVU439
 353:Core/Src/main.c ****   {
 1863              		.loc 1 353 27 is_stmt 0 discriminator 3 view .LVU440
 1864 0040 0134     		adds	r4, r4, #1
 1865              	.LVL273:
 353:Core/Src/main.c ****   {
 1866              		.loc 1 353 27 discriminator 3 view .LVU441
 1867 0042 E9E7     		b	.L145
 1868              	.LVL274:
 1869              	.L155:
 353:Core/Src/main.c ****   {
 1870              		.loc 1 353 27 discriminator 3 view .LVU442
 1871              	.LBE18:
 347:Core/Src/main.c ****     coord.y = getCarPosY();
 1872              		.loc 1 347 5 is_stmt 1 view .LVU443
 347:Core/Src/main.c ****     coord.y = getCarPosY();
 1873              		.loc 1 347 15 is_stmt 0 view .LVU444
 1874 0044 FFF7FEFF 		bl	getCarPosX
 1875              	.LVL275:
 347:Core/Src/main.c ****     coord.y = getCarPosY();
 1876              		.loc 1 347 13 view .LVU445
 1877 0048 FFF7FEFF 		bl	__aeabi_ui2f
ARM GAS  C:\Users\86183\AppData\Local\Temp\ccdSsS0f.s 			page 44


 1878              	.LVL276:
 1879 004c CBF80000 		str	r0, [fp]	@ float
 348:Core/Src/main.c ****     return coord;
 1880              		.loc 1 348 5 is_stmt 1 view .LVU446
 348:Core/Src/main.c ****     return coord;
 1881              		.loc 1 348 15 is_stmt 0 view .LVU447
 1882 0050 FFF7FEFF 		bl	getCarPosY
 1883              	.LVL277:
 348:Core/Src/main.c ****     return coord;
 1884              		.loc 1 348 13 view .LVU448
 1885 0054 FFF7FEFF 		bl	__aeabi_ui2f
 1886              	.LVL278:
 1887 0058 CBF80400 		str	r0, [fp, #4]	@ float
 349:Core/Src/main.c ****   }
 1888              		.loc 1 349 5 is_stmt 1 view .LVU449
 349:Core/Src/main.c ****   }
 1889              		.loc 1 349 12 is_stmt 0 view .LVU450
 1890 005c 90E1     		b	.L144
 1891              	.LVL279:
 1892              	.L156:
 358:Core/Src/main.c ****   }
 359:Core/Src/main.c ****   A[0] = x[1] - x[0];
 1893              		.loc 1 359 3 is_stmt 1 view .LVU451
 1894              		.loc 1 359 11 is_stmt 0 view .LVU452
 1895 005e 1E9E     		ldr	r6, [sp, #120]
 1896 0060 0496     		str	r6, [sp, #16]
 1897              		.loc 1 359 18 view .LVU453
 1898 0062 1D9D     		ldr	r5, [sp, #116]
 1899              		.loc 1 359 8 view .LVU454
 1900 0064 701B     		subs	r0, r6, r5
 1901 0066 FFF7FEFF 		bl	__aeabi_i2f
 1902              	.LVL280:
 1903 006a 8046     		mov	r8, r0
 1904 006c 1590     		str	r0, [sp, #84]	@ float
 360:Core/Src/main.c ****   B[0] = y[1] - y[0];
 1905              		.loc 1 360 3 is_stmt 1 view .LVU455
 1906              		.loc 1 360 11 is_stmt 0 view .LVU456
 1907 006e 1B9B     		ldr	r3, [sp, #108]
 1908              		.loc 1 360 18 view .LVU457
 1909 0070 1A9C     		ldr	r4, [sp, #104]
 1910              	.LVL281:
 1911              		.loc 1 360 8 view .LVU458
 1912 0072 0393     		str	r3, [sp, #12]
 1913 0074 181B     		subs	r0, r3, r4
 1914 0076 FFF7FEFF 		bl	__aeabi_i2f
 1915              	.LVL282:
 1916 007a 0090     		str	r0, [sp]	@ float
 1917 007c 1390     		str	r0, [sp, #76]	@ float
 361:Core/Src/main.c ****   A[1] = x[2] - x[0];
 1918              		.loc 1 361 3 is_stmt 1 view .LVU459
 1919              		.loc 1 361 11 is_stmt 0 view .LVU460
 1920 007e 1F99     		ldr	r1, [sp, #124]
 1921              		.loc 1 361 8 view .LVU461
 1922 0080 0691     		str	r1, [sp, #24]
 1923 0082 481B     		subs	r0, r1, r5
 1924 0084 FFF7FEFF 		bl	__aeabi_i2f
 1925              	.LVL283:
ARM GAS  C:\Users\86183\AppData\Local\Temp\ccdSsS0f.s 			page 45


 1926 0088 0190     		str	r0, [sp, #4]	@ float
 1927 008a 1690     		str	r0, [sp, #88]	@ float
 362:Core/Src/main.c ****   B[1] = y[2] - y[0];
 1928              		.loc 1 362 3 is_stmt 1 view .LVU462
 1929              		.loc 1 362 11 is_stmt 0 view .LVU463
 1930 008c 1C98     		ldr	r0, [sp, #112]
 1931              		.loc 1 362 8 view .LVU464
 1932 008e 0790     		str	r0, [sp, #28]
 1933 0090 001B     		subs	r0, r0, r4
 1934 0092 FFF7FEFF 		bl	__aeabi_i2f
 1935              	.LVL284:
 1936 0096 8246     		mov	r10, r0
 1937 0098 1490     		str	r0, [sp, #80]	@ float
 363:Core/Src/main.c ****   xTemp[0] = (x[0] + x[1]) / 2 - A[0] * (sq(beaconD[1]) - sq(beaconD[0])) / (sq(A[0]) + sq(B[0])) /
 1938              		.loc 1 363 3 is_stmt 1 view .LVU465
 1939              		.loc 1 363 20 is_stmt 0 view .LVU466
 1940 009a 7719     		adds	r7, r6, r5
 1941              		.loc 1 363 28 view .LVU467
 1942 009c 07EBD777 		add	r7, r7, r7, lsr #31
 1943 00a0 7F10     		asrs	r7, r7, #1
 1944              		.loc 1 363 42 view .LVU468
 1945 00a2 1898     		ldr	r0, [sp, #96]
 1946 00a4 0590     		str	r0, [sp, #20]
 1947 00a6 00FB00F0 		mul	r0, r0, r0
 1948              		.loc 1 363 59 view .LVU469
 1949 00aa 179E     		ldr	r6, [sp, #92]
 1950 00ac 06FB06F9 		mul	r9, r6, r6
 1951              		.loc 1 363 39 view .LVU470
 1952 00b0 A0EB0900 		sub	r0, r0, r9
 1953 00b4 FFF7FEFF 		bl	__aeabi_i2f
 1954              	.LVL285:
 1955 00b8 0890     		str	r0, [sp, #32]	@ float
 1956 00ba 0146     		mov	r1, r0
 1957 00bc 4046     		mov	r0, r8
 1958 00be FFF7FEFF 		bl	__aeabi_fmul
 1959              	.LVL286:
 1960 00c2 0990     		str	r0, [sp, #36]	@ float
 1961              		.loc 1 363 78 view .LVU471
 1962 00c4 4146     		mov	r1, r8
 1963 00c6 CDF80880 		str	r8, [sp, #8]	@ float
 1964 00ca 4046     		mov	r0, r8
 1965 00cc FFF7FEFF 		bl	__aeabi_fmul
 1966              	.LVL287:
 1967 00d0 8046     		mov	r8, r0
 1968              		.loc 1 363 89 view .LVU472
 1969 00d2 DDF800C0 		ldr	ip, [sp]	@ float
 1970 00d6 6146     		mov	r1, ip
 1971 00d8 6046     		mov	r0, ip
 1972 00da FFF7FEFF 		bl	__aeabi_fmul
 1973              	.LVL288:
 1974 00de 0146     		mov	r1, r0
 1975              		.loc 1 363 87 view .LVU473
 1976 00e0 4046     		mov	r0, r8
 1977 00e2 FFF7FEFF 		bl	__aeabi_fadd
 1978              	.LVL289:
 1979 00e6 8046     		mov	r8, r0
 1980              		.loc 1 363 75 view .LVU474
ARM GAS  C:\Users\86183\AppData\Local\Temp\ccdSsS0f.s 			page 46


 1981 00e8 0146     		mov	r1, r0
 1982 00ea 0998     		ldr	r0, [sp, #36]	@ float
 1983 00ec FFF7FEFF 		bl	__aeabi_fdiv
 1984              	.LVL290:
 1985              		.loc 1 363 99 view .LVU475
 1986 00f0 4FF07C51 		mov	r1, #1056964608
 1987 00f4 FFF7FEFF 		bl	__aeabi_fmul
 1988              	.LVL291:
 1989 00f8 0990     		str	r0, [sp, #36]	@ float
 1990              		.loc 1 363 32 view .LVU476
 1991 00fa 3846     		mov	r0, r7
 1992 00fc FFF7FEFF 		bl	__aeabi_i2f
 1993              	.LVL292:
 1994 0100 0999     		ldr	r1, [sp, #36]	@ float
 1995 0102 FFF7FEFF 		bl	__aeabi_fsub
 1996              	.LVL293:
 1997              		.loc 1 363 12 view .LVU477
 1998 0106 0990     		str	r0, [sp, #36]	@ float
 1999 0108 0F90     		str	r0, [sp, #60]	@ float
 364:Core/Src/main.c ****   yTemp[0] = (y[0] + y[1]) / 2 - B[0] * (sq(beaconD[1]) - sq(beaconD[0])) / (sq(A[0]) + sq(B[0])) /
 2000              		.loc 1 364 3 is_stmt 1 view .LVU478
 2001              		.loc 1 364 20 is_stmt 0 view .LVU479
 2002 010a 039B     		ldr	r3, [sp, #12]
 2003 010c 1F19     		adds	r7, r3, r4
 2004              		.loc 1 364 28 view .LVU480
 2005 010e 07EBD777 		add	r7, r7, r7, lsr #31
 2006 0112 7F10     		asrs	r7, r7, #1
 2007              		.loc 1 364 39 view .LVU481
 2008 0114 0899     		ldr	r1, [sp, #32]	@ float
 2009 0116 0098     		ldr	r0, [sp]	@ float
 2010 0118 FFF7FEFF 		bl	__aeabi_fmul
 2011              	.LVL294:
 2012              		.loc 1 364 75 view .LVU482
 2013 011c 4146     		mov	r1, r8
 2014 011e FFF7FEFF 		bl	__aeabi_fdiv
 2015              	.LVL295:
 2016              		.loc 1 364 99 view .LVU483
 2017 0122 4FF07C51 		mov	r1, #1056964608
 2018 0126 FFF7FEFF 		bl	__aeabi_fmul
 2019              	.LVL296:
 2020 012a 8046     		mov	r8, r0
 2021              		.loc 1 364 32 view .LVU484
 2022 012c 3846     		mov	r0, r7
 2023 012e FFF7FEFF 		bl	__aeabi_i2f
 2024              	.LVL297:
 2025 0132 4146     		mov	r1, r8
 2026 0134 FFF7FEFF 		bl	__aeabi_fsub
 2027              	.LVL298:
 2028              		.loc 1 364 12 view .LVU485
 2029 0138 0A90     		str	r0, [sp, #40]	@ float
 2030 013a 0D90     		str	r0, [sp, #52]	@ float
 365:Core/Src/main.c ****   xTemp[1] = (x[0] + x[2]) / 2 - A[1] * (sq(beaconD[2]) - sq(beaconD[0])) / (sq(A[1]) + sq(B[1])) /
 2031              		.loc 1 365 3 is_stmt 1 view .LVU486
 2032              		.loc 1 365 20 is_stmt 0 view .LVU487
 2033 013c 069A     		ldr	r2, [sp, #24]
 2034 013e AF18     		adds	r7, r5, r2
 2035              		.loc 1 365 28 view .LVU488
ARM GAS  C:\Users\86183\AppData\Local\Temp\ccdSsS0f.s 			page 47


 2036 0140 07EBD777 		add	r7, r7, r7, lsr #31
 2037 0144 7F10     		asrs	r7, r7, #1
 2038              		.loc 1 365 42 view .LVU489
 2039 0146 199A     		ldr	r2, [sp, #100]
 2040 0148 0B92     		str	r2, [sp, #44]
 2041 014a 02FB02F0 		mul	r0, r2, r2
 2042              		.loc 1 365 39 view .LVU490
 2043 014e A0EB0900 		sub	r0, r0, r9
 2044 0152 FFF7FEFF 		bl	__aeabi_i2f
 2045              	.LVL299:
 2046 0156 0890     		str	r0, [sp, #32]	@ float
 2047 0158 0146     		mov	r1, r0
 2048 015a DDF80480 		ldr	r8, [sp, #4]	@ float
 2049 015e 4046     		mov	r0, r8
 2050 0160 FFF7FEFF 		bl	__aeabi_fmul
 2051              	.LVL300:
 2052 0164 8146     		mov	r9, r0
 2053              		.loc 1 365 78 view .LVU491
 2054 0166 4146     		mov	r1, r8
 2055 0168 4046     		mov	r0, r8
 2056 016a FFF7FEFF 		bl	__aeabi_fmul
 2057              	.LVL301:
 2058 016e 8046     		mov	r8, r0
 2059              		.loc 1 365 89 view .LVU492
 2060 0170 5146     		mov	r1, r10
 2061 0172 5046     		mov	r0, r10
 2062 0174 FFF7FEFF 		bl	__aeabi_fmul
 2063              	.LVL302:
 2064 0178 0146     		mov	r1, r0
 2065              		.loc 1 365 87 view .LVU493
 2066 017a 4046     		mov	r0, r8
 2067 017c FFF7FEFF 		bl	__aeabi_fadd
 2068              	.LVL303:
 2069 0180 8046     		mov	r8, r0
 2070              		.loc 1 365 75 view .LVU494
 2071 0182 0146     		mov	r1, r0
 2072 0184 4846     		mov	r0, r9
 2073 0186 FFF7FEFF 		bl	__aeabi_fdiv
 2074              	.LVL304:
 2075              		.loc 1 365 99 view .LVU495
 2076 018a 4FF07C51 		mov	r1, #1056964608
 2077 018e FFF7FEFF 		bl	__aeabi_fmul
 2078              	.LVL305:
 2079 0192 8146     		mov	r9, r0
 2080              		.loc 1 365 32 view .LVU496
 2081 0194 3846     		mov	r0, r7
 2082 0196 FFF7FEFF 		bl	__aeabi_i2f
 2083              	.LVL306:
 2084 019a 4946     		mov	r1, r9
 2085 019c FFF7FEFF 		bl	__aeabi_fsub
 2086              	.LVL307:
 2087 01a0 8146     		mov	r9, r0
 2088              		.loc 1 365 12 view .LVU497
 2089 01a2 1090     		str	r0, [sp, #64]	@ float
 366:Core/Src/main.c ****   yTemp[1] = (y[0] + y[2]) / 2 - B[1] * (sq(beaconD[2]) - sq(beaconD[0])) / (sq(A[1]) + sq(B[1])) /
 2090              		.loc 1 366 3 is_stmt 1 view .LVU498
 2091              		.loc 1 366 20 is_stmt 0 view .LVU499
ARM GAS  C:\Users\86183\AppData\Local\Temp\ccdSsS0f.s 			page 48


 2092 01a4 079B     		ldr	r3, [sp, #28]
 2093 01a6 E718     		adds	r7, r4, r3
 2094              		.loc 1 366 28 view .LVU500
 2095 01a8 07EBD777 		add	r7, r7, r7, lsr #31
 2096 01ac 7F10     		asrs	r7, r7, #1
 2097              		.loc 1 366 39 view .LVU501
 2098 01ae 0899     		ldr	r1, [sp, #32]	@ float
 2099 01b0 5046     		mov	r0, r10
 2100 01b2 FFF7FEFF 		bl	__aeabi_fmul
 2101              	.LVL308:
 2102              		.loc 1 366 75 view .LVU502
 2103 01b6 4146     		mov	r1, r8
 2104 01b8 FFF7FEFF 		bl	__aeabi_fdiv
 2105              	.LVL309:
 2106              		.loc 1 366 99 view .LVU503
 2107 01bc 4FF07C51 		mov	r1, #1056964608
 2108 01c0 FFF7FEFF 		bl	__aeabi_fmul
 2109              	.LVL310:
 2110 01c4 8046     		mov	r8, r0
 2111              		.loc 1 366 32 view .LVU504
 2112 01c6 3846     		mov	r0, r7
 2113 01c8 FFF7FEFF 		bl	__aeabi_i2f
 2114              	.LVL311:
 2115 01cc 4146     		mov	r1, r8
 2116 01ce FFF7FEFF 		bl	__aeabi_fsub
 2117              	.LVL312:
 2118 01d2 8046     		mov	r8, r0
 2119              		.loc 1 366 12 view .LVU505
 2120 01d4 0E90     		str	r0, [sp, #56]	@ float
 367:Core/Src/main.c ****   C[0] = A[0] * xTemp[0] + B[0] * yTemp[0];
 2121              		.loc 1 367 3 is_stmt 1 view .LVU506
 2122              		.loc 1 367 15 is_stmt 0 view .LVU507
 2123 01d6 0999     		ldr	r1, [sp, #36]	@ float
 2124 01d8 0298     		ldr	r0, [sp, #8]	@ float
 2125 01da FFF7FEFF 		bl	__aeabi_fmul
 2126              	.LVL313:
 2127 01de 0746     		mov	r7, r0
 2128              		.loc 1 367 33 view .LVU508
 2129 01e0 0A99     		ldr	r1, [sp, #40]	@ float
 2130 01e2 0098     		ldr	r0, [sp]	@ float
 2131 01e4 FFF7FEFF 		bl	__aeabi_fmul
 2132              	.LVL314:
 2133 01e8 0146     		mov	r1, r0
 2134              		.loc 1 367 26 view .LVU509
 2135 01ea 3846     		mov	r0, r7
 2136 01ec FFF7FEFF 		bl	__aeabi_fadd
 2137              	.LVL315:
 2138 01f0 0746     		mov	r7, r0
 2139              		.loc 1 367 8 view .LVU510
 2140 01f2 1190     		str	r0, [sp, #68]	@ float
 368:Core/Src/main.c ****   C[1] = A[1] * xTemp[1] + B[1] * yTemp[1];
 2141              		.loc 1 368 3 is_stmt 1 view .LVU511
 2142              		.loc 1 368 15 is_stmt 0 view .LVU512
 2143 01f4 4946     		mov	r1, r9
 2144 01f6 0198     		ldr	r0, [sp, #4]	@ float
 2145 01f8 FFF7FEFF 		bl	__aeabi_fmul
 2146              	.LVL316:
ARM GAS  C:\Users\86183\AppData\Local\Temp\ccdSsS0f.s 			page 49


 2147 01fc 8146     		mov	r9, r0
 2148              		.loc 1 368 33 view .LVU513
 2149 01fe 4146     		mov	r1, r8
 2150 0200 5046     		mov	r0, r10
 2151 0202 FFF7FEFF 		bl	__aeabi_fmul
 2152              	.LVL317:
 2153 0206 0146     		mov	r1, r0
 2154              		.loc 1 368 26 view .LVU514
 2155 0208 4846     		mov	r0, r9
 2156 020a FFF7FEFF 		bl	__aeabi_fadd
 2157              	.LVL318:
 2158 020e 8046     		mov	r8, r0
 2159              		.loc 1 368 8 view .LVU515
 2160 0210 1290     		str	r0, [sp, #72]	@ float
 369:Core/Src/main.c ****   xBase = (C[0] * B[1] - C[1] * B[0]) / (A[0] * B[1] - A[1] * B[0]);
 2161              		.loc 1 369 3 is_stmt 1 view .LVU516
 2162              		.loc 1 369 17 is_stmt 0 view .LVU517
 2163 0212 3946     		mov	r1, r7
 2164 0214 5046     		mov	r0, r10
 2165 0216 FFF7FEFF 		bl	__aeabi_fmul
 2166              	.LVL319:
 2167 021a 8146     		mov	r9, r0
 2168              		.loc 1 369 31 view .LVU518
 2169 021c 4146     		mov	r1, r8
 2170 021e 0098     		ldr	r0, [sp]	@ float
 2171 0220 FFF7FEFF 		bl	__aeabi_fmul
 2172              	.LVL320:
 2173 0224 0146     		mov	r1, r0
 2174              		.loc 1 369 24 view .LVU519
 2175 0226 4846     		mov	r0, r9
 2176 0228 FFF7FEFF 		bl	__aeabi_fsub
 2177              	.LVL321:
 2178 022c 8146     		mov	r9, r0
 2179              		.loc 1 369 47 view .LVU520
 2180 022e 5146     		mov	r1, r10
 2181 0230 0298     		ldr	r0, [sp, #8]	@ float
 2182 0232 FFF7FEFF 		bl	__aeabi_fmul
 2183              	.LVL322:
 2184 0236 8246     		mov	r10, r0
 2185              		.loc 1 369 61 view .LVU521
 2186 0238 0199     		ldr	r1, [sp, #4]	@ float
 2187 023a 0098     		ldr	r0, [sp]	@ float
 2188 023c FFF7FEFF 		bl	__aeabi_fmul
 2189              	.LVL323:
 2190 0240 0146     		mov	r1, r0
 2191              		.loc 1 369 54 view .LVU522
 2192 0242 5046     		mov	r0, r10
 2193 0244 FFF7FEFF 		bl	__aeabi_fsub
 2194              	.LVL324:
 2195 0248 8246     		mov	r10, r0
 2196              		.loc 1 369 39 view .LVU523
 2197 024a 0146     		mov	r1, r0
 2198 024c 4846     		mov	r0, r9
 2199 024e FFF7FEFF 		bl	__aeabi_fdiv
 2200              	.LVL325:
 2201              		.loc 1 369 9 view .LVU524
 2202 0252 FFF7FEFF 		bl	__aeabi_f2iz
ARM GAS  C:\Users\86183\AppData\Local\Temp\ccdSsS0f.s 			page 50


 2203              	.LVL326:
 2204 0256 8146     		mov	r9, r0
 2205              	.LVL327:
 370:Core/Src/main.c ****   yBase = (C[1] * A[0] - C[0] * A[1]) / (A[0] * B[1] - A[1] * B[0]);
 2206              		.loc 1 370 3 is_stmt 1 view .LVU525
 2207              		.loc 1 370 17 is_stmt 0 view .LVU526
 2208 0258 4146     		mov	r1, r8
 2209 025a 0298     		ldr	r0, [sp, #8]	@ float
 2210              	.LVL328:
 2211              		.loc 1 370 17 view .LVU527
 2212 025c FFF7FEFF 		bl	__aeabi_fmul
 2213              	.LVL329:
 2214 0260 8046     		mov	r8, r0
 2215              		.loc 1 370 31 view .LVU528
 2216 0262 3946     		mov	r1, r7
 2217 0264 0198     		ldr	r0, [sp, #4]	@ float
 2218 0266 FFF7FEFF 		bl	__aeabi_fmul
 2219              	.LVL330:
 2220 026a 0146     		mov	r1, r0
 2221              		.loc 1 370 24 view .LVU529
 2222 026c 4046     		mov	r0, r8
 2223 026e FFF7FEFF 		bl	__aeabi_fsub
 2224              	.LVL331:
 2225              		.loc 1 370 39 view .LVU530
 2226 0272 5146     		mov	r1, r10
 2227 0274 FFF7FEFF 		bl	__aeabi_fdiv
 2228              	.LVL332:
 2229              		.loc 1 370 9 view .LVU531
 2230 0278 FFF7FEFF 		bl	__aeabi_f2iz
 2231              	.LVL333:
 2232 027c 8246     		mov	r10, r0
 2233              	.LVL334:
 371:Core/Src/main.c ****   for (int i = -1; i < 2; i++)
 2234              		.loc 1 371 3 is_stmt 1 view .LVU532
 2235              	.LBB19:
 2236              		.loc 1 371 8 view .LVU533
 2237              		.loc 1 371 12 is_stmt 0 view .LVU534
 2238 027e 4FF0FF38 		mov	r8, #-1
 2239              	.LBE19:
 352:Core/Src/main.c ****   for (int i = 0; i < 3; i++)
 2240              		.loc 1 352 57 view .LVU535
 2241 0282 0023     		movs	r3, #0
 2242 0284 0293     		str	r3, [sp, #8]	@ float
 352:Core/Src/main.c ****   for (int i = 0; i < 3; i++)
 2243              		.loc 1 352 47 view .LVU536
 2244 0286 0193     		str	r3, [sp, #4]	@ float
 351:Core/Src/main.c ****   float A[2], B[2], C[2], xTemp[2], yTemp[2], xRes = 0, yRes = 0;
 2245              		.loc 1 351 45 view .LVU537
 2246 0288 0023     		movs	r3, #0
 2247 028a 0093     		str	r3, [sp]
 2248              	.LBB22:
 2249              		.loc 1 371 3 view .LVU538
 2250 028c 54E0     		b	.L148
 2251              	.LVL335:
 2252              	.L149:
 2253              	.LBB20:
 372:Core/Src/main.c ****     for (int j = -1; j < 2; j++)
ARM GAS  C:\Users\86183\AppData\Local\Temp\ccdSsS0f.s 			page 51


 2254              		.loc 1 372 29 is_stmt 1 discriminator 2 view .LVU539
 2255              		.loc 1 372 30 is_stmt 0 discriminator 2 view .LVU540
 2256 028e 0137     		adds	r7, r7, #1
 2257              	.LVL336:
 2258              	.L151:
 2259              		.loc 1 372 22 is_stmt 1 discriminator 1 view .LVU541
 2260              		.loc 1 372 5 is_stmt 0 discriminator 1 view .LVU542
 2261 0290 012F     		cmp	r7, #1
 2262 0292 4FDC     		bgt	.L157
 373:Core/Src/main.c ****       if ((int)sqrt(sq(xBase - x[0] + i) + sq(yBase - y[0] + j)) == beaconD[0] && (int)sqrt(sq(xBas
 2263              		.loc 1 373 7 is_stmt 1 view .LVU543
 2264              		.loc 1 373 21 is_stmt 0 view .LVU544
 2265 0294 A9EB0500 		sub	r0, r9, r5
 2266 0298 4044     		add	r0, r0, r8
 2267              		.loc 1 373 44 view .LVU545
 2268 029a AAEB0403 		sub	r3, r10, r4
 2269 029e 3B44     		add	r3, r3, r7
 2270 02a0 03FB03F3 		mul	r3, r3, r3
 2271              		.loc 1 373 16 view .LVU546
 2272 02a4 00FB0030 		mla	r0, r0, r0, r3
 2273 02a8 FFF7FEFF 		bl	__aeabi_i2d
 2274              	.LVL337:
 2275 02ac FFF7FEFF 		bl	sqrt
 2276              	.LVL338:
 2277              		.loc 1 373 11 view .LVU547
 2278 02b0 FFF7FEFF 		bl	__aeabi_d2iz
 2279              	.LVL339:
 2280              		.loc 1 373 10 view .LVU548
 2281 02b4 8642     		cmp	r6, r0
 2282 02b6 EAD1     		bne	.L149
 2283              		.loc 1 373 93 discriminator 1 view .LVU549
 2284 02b8 049B     		ldr	r3, [sp, #16]
 2285 02ba A9EB0300 		sub	r0, r9, r3
 2286 02be 4044     		add	r0, r0, r8
 2287              		.loc 1 373 116 discriminator 1 view .LVU550
 2288 02c0 039B     		ldr	r3, [sp, #12]
 2289 02c2 AAEB0303 		sub	r3, r10, r3
 2290 02c6 3B44     		add	r3, r3, r7
 2291 02c8 03FB03F3 		mul	r3, r3, r3
 2292              		.loc 1 373 88 discriminator 1 view .LVU551
 2293 02cc 00FB0030 		mla	r0, r0, r0, r3
 2294 02d0 FFF7FEFF 		bl	__aeabi_i2d
 2295              	.LVL340:
 2296 02d4 FFF7FEFF 		bl	sqrt
 2297              	.LVL341:
 2298              		.loc 1 373 83 discriminator 1 view .LVU552
 2299 02d8 FFF7FEFF 		bl	__aeabi_d2iz
 2300              	.LVL342:
 2301              		.loc 1 373 80 discriminator 1 view .LVU553
 2302 02dc 059B     		ldr	r3, [sp, #20]
 2303 02de 8342     		cmp	r3, r0
 2304 02e0 D5D1     		bne	.L149
 2305              		.loc 1 373 165 discriminator 2 view .LVU554
 2306 02e2 069B     		ldr	r3, [sp, #24]
 2307 02e4 A9EB0300 		sub	r0, r9, r3
 2308 02e8 4044     		add	r0, r0, r8
 2309              		.loc 1 373 188 discriminator 2 view .LVU555
ARM GAS  C:\Users\86183\AppData\Local\Temp\ccdSsS0f.s 			page 52


 2310 02ea 079B     		ldr	r3, [sp, #28]
 2311 02ec AAEB0303 		sub	r3, r10, r3
 2312 02f0 3B44     		add	r3, r3, r7
 2313 02f2 03FB03F3 		mul	r3, r3, r3
 2314              		.loc 1 373 160 discriminator 2 view .LVU556
 2315 02f6 00FB0030 		mla	r0, r0, r0, r3
 2316 02fa FFF7FEFF 		bl	__aeabi_i2d
 2317              	.LVL343:
 2318 02fe FFF7FEFF 		bl	sqrt
 2319              	.LVL344:
 2320              		.loc 1 373 155 discriminator 2 view .LVU557
 2321 0302 FFF7FEFF 		bl	__aeabi_d2iz
 2322              	.LVL345:
 2323              		.loc 1 373 152 discriminator 2 view .LVU558
 2324 0306 0B9B     		ldr	r3, [sp, #44]
 2325 0308 8342     		cmp	r3, r0
 2326 030a C0D1     		bne	.L149
 374:Core/Src/main.c ****         xRes += i, yRes += j, cnt++;
 2327              		.loc 1 374 9 is_stmt 1 view .LVU559
 2328              		.loc 1 374 14 is_stmt 0 view .LVU560
 2329 030c 4046     		mov	r0, r8
 2330 030e FFF7FEFF 		bl	__aeabi_i2f
 2331              	.LVL346:
 2332 0312 0146     		mov	r1, r0
 2333 0314 0198     		ldr	r0, [sp, #4]	@ float
 2334 0316 FFF7FEFF 		bl	__aeabi_fadd
 2335              	.LVL347:
 2336 031a 0190     		str	r0, [sp, #4]	@ float
 2337              	.LVL348:
 2338              		.loc 1 374 25 view .LVU561
 2339 031c 3846     		mov	r0, r7
 2340              	.LVL349:
 2341              		.loc 1 374 25 view .LVU562
 2342 031e FFF7FEFF 		bl	__aeabi_i2f
 2343              	.LVL350:
 2344 0322 0146     		mov	r1, r0
 2345 0324 0298     		ldr	r0, [sp, #8]	@ float
 2346 0326 FFF7FEFF 		bl	__aeabi_fadd
 2347              	.LVL351:
 2348 032a 0290     		str	r0, [sp, #8]	@ float
 2349              	.LVL352:
 2350              		.loc 1 374 34 view .LVU563
 2351 032c 009B     		ldr	r3, [sp]
 2352 032e 0133     		adds	r3, r3, #1
 2353 0330 0093     		str	r3, [sp]
 2354              	.LVL353:
 2355              		.loc 1 374 34 view .LVU564
 2356 0332 ACE7     		b	.L149
 2357              	.LVL354:
 2358              	.L157:
 2359              		.loc 1 374 34 view .LVU565
 2360              	.LBE20:
 371:Core/Src/main.c ****     for (int j = -1; j < 2; j++)
 2361              		.loc 1 371 27 is_stmt 1 discriminator 2 view .LVU566
 371:Core/Src/main.c ****     for (int j = -1; j < 2; j++)
 2362              		.loc 1 371 28 is_stmt 0 discriminator 2 view .LVU567
 2363 0334 08F10108 		add	r8, r8, #1
ARM GAS  C:\Users\86183\AppData\Local\Temp\ccdSsS0f.s 			page 53


 2364              	.LVL355:
 2365              	.L148:
 371:Core/Src/main.c ****     for (int j = -1; j < 2; j++)
 2366              		.loc 1 371 20 is_stmt 1 discriminator 1 view .LVU568
 371:Core/Src/main.c ****     for (int j = -1; j < 2; j++)
 2367              		.loc 1 371 3 is_stmt 0 discriminator 1 view .LVU569
 2368 0338 B8F1010F 		cmp	r8, #1
 2369 033c 02DC     		bgt	.L158
 2370              	.LBB21:
 372:Core/Src/main.c ****       if ((int)sqrt(sq(xBase - x[0] + i) + sq(yBase - y[0] + j)) == beaconD[0] && (int)sqrt(sq(xBas
 2371              		.loc 1 372 14 view .LVU570
 2372 033e 4FF0FF37 		mov	r7, #-1
 2373 0342 A5E7     		b	.L151
 2374              	.L158:
 2375              	.LBE21:
 2376              	.LBE22:
 375:Core/Src/main.c ****   coord.x = xBase + xRes / cnt;
 2377              		.loc 1 375 3 is_stmt 1 view .LVU571
 2378              		.loc 1 375 26 is_stmt 0 view .LVU572
 2379 0344 0098     		ldr	r0, [sp]
 2380 0346 FFF7FEFF 		bl	__aeabi_i2f
 2381              	.LVL356:
 2382 034a 0446     		mov	r4, r0
 2383 034c 0146     		mov	r1, r0
 2384 034e 0198     		ldr	r0, [sp, #4]	@ float
 2385 0350 FFF7FEFF 		bl	__aeabi_fdiv
 2386              	.LVL357:
 2387 0354 0546     		mov	r5, r0
 2388              		.loc 1 375 19 view .LVU573
 2389 0356 4846     		mov	r0, r9
 2390 0358 FFF7FEFF 		bl	__aeabi_i2f
 2391              	.LVL358:
 2392 035c 2946     		mov	r1, r5
 2393 035e FFF7FEFF 		bl	__aeabi_fadd
 2394              	.LVL359:
 2395              		.loc 1 375 11 view .LVU574
 2396 0362 CBF80000 		str	r0, [fp]	@ float
 376:Core/Src/main.c ****   coord.y = yBase + yRes / cnt;
 2397              		.loc 1 376 3 is_stmt 1 view .LVU575
 2398              		.loc 1 376 26 is_stmt 0 view .LVU576
 2399 0366 2146     		mov	r1, r4
 2400 0368 0298     		ldr	r0, [sp, #8]	@ float
 2401 036a FFF7FEFF 		bl	__aeabi_fdiv
 2402              	.LVL360:
 2403 036e 0446     		mov	r4, r0
 2404              		.loc 1 376 19 view .LVU577
 2405 0370 5046     		mov	r0, r10
 2406 0372 FFF7FEFF 		bl	__aeabi_i2f
 2407              	.LVL361:
 2408 0376 2146     		mov	r1, r4
 2409 0378 FFF7FEFF 		bl	__aeabi_fadd
 2410              	.LVL362:
 2411              		.loc 1 376 11 view .LVU578
 2412 037c CBF80400 		str	r0, [fp, #4]	@ float
 377:Core/Src/main.c ****   return coord;
 2413              		.loc 1 377 3 is_stmt 1 view .LVU579
 2414              	.LVL363:
ARM GAS  C:\Users\86183\AppData\Local\Temp\ccdSsS0f.s 			page 54


 2415              	.L144:
 378:Core/Src/main.c **** }
 2416              		.loc 1 378 1 is_stmt 0 view .LVU580
 2417 0380 5846     		mov	r0, fp
 2418 0382 21B0     		add	sp, sp, #132
 2419              	.LCFI12:
 2420              		.cfi_def_cfa_offset 36
 2421              		@ sp needed
 2422 0384 BDE8F08F 		pop	{r4, r5, r6, r7, r8, r9, r10, fp, pc}
 2423              		.loc 1 378 1 view .LVU581
 2424              		.cfi_endproc
 2425              	.LFE77:
 2427              		.section	.text.surveyGetCarPos,"ax",%progbits
 2428              		.align	1
 2429              		.global	surveyGetCarPos
 2430              		.syntax unified
 2431              		.thumb
 2432              		.thumb_func
 2433              		.fpu softvfp
 2435              	surveyGetCarPos:
 2436              	.LVL364:
 2437              	.LFB78:
 379:Core/Src/main.c **** 
 380:Core/Src/main.c **** struct MYCOORD surveyGetCarPos()
 381:Core/Src/main.c **** {
 2438              		.loc 1 381 1 is_stmt 1 view -0
 2439              		.cfi_startproc
 2440              		@ args = 0, pretend = 0, frame = 128
 2441              		@ frame_needed = 0, uses_anonymous_args = 0
 2442              		.loc 1 381 1 is_stmt 0 view .LVU583
 2443 0000 2DE9F04F 		push	{r4, r5, r6, r7, r8, r9, r10, fp, lr}
 2444              	.LCFI13:
 2445              		.cfi_def_cfa_offset 36
 2446              		.cfi_offset 4, -36
 2447              		.cfi_offset 5, -32
 2448              		.cfi_offset 6, -28
 2449              		.cfi_offset 7, -24
 2450              		.cfi_offset 8, -20
 2451              		.cfi_offset 9, -16
 2452              		.cfi_offset 10, -12
 2453              		.cfi_offset 11, -8
 2454              		.cfi_offset 14, -4
 2455 0004 A1B0     		sub	sp, sp, #132
 2456              	.LCFI14:
 2457              		.cfi_def_cfa_offset 168
 2458 0006 8346     		mov	fp, r0
 382:Core/Src/main.c ****   struct MYCOORD coord = {0, 0, 0};
 2459              		.loc 1 382 3 is_stmt 1 view .LVU584
 2460              		.loc 1 382 18 is_stmt 0 view .LVU585
 2461 0008 0023     		movs	r3, #0
 2462 000a 0360     		str	r3, [r0]	@ float
 2463 000c 4360     		str	r3, [r0, #4]	@ float
 2464 000e 8360     		str	r3, [r0, #8]	@ float
 383:Core/Src/main.c ****   if (getIsCarPosValid())
 2465              		.loc 1 383 3 is_stmt 1 view .LVU586
 2466              		.loc 1 383 7 is_stmt 0 view .LVU587
 2467 0010 FFF7FEFF 		bl	getIsCarPosValid
ARM GAS  C:\Users\86183\AppData\Local\Temp\ccdSsS0f.s 			page 55


 2468              	.LVL365:
 2469              		.loc 1 383 6 view .LVU588
 2470 0014 B0B9     		cbnz	r0, .L172
 2471              	.LBB23:
 384:Core/Src/main.c ****   {
 385:Core/Src/main.c ****     coord.x = getCarPosX();
 386:Core/Src/main.c ****     coord.y = getCarPosY();
 387:Core/Src/main.c ****     return coord;
 388:Core/Src/main.c ****   };
 389:Core/Src/main.c ****   int x[3], y[3], beaconD[3], xBase, yBase, cnt = 0;
 390:Core/Src/main.c ****   float A[2], B[2], C[2], xTemp[2], yTemp[2], xRes = 0, yRes = 0;
 391:Core/Src/main.c ****   for (int i = 0; i < 3; i++)
 2472              		.loc 1 391 12 view .LVU589
 2473 0016 0024     		movs	r4, #0
 2474              	.L160:
 2475              	.LVL366:
 2476              		.loc 1 391 19 is_stmt 1 discriminator 1 view .LVU590
 2477              		.loc 1 391 3 is_stmt 0 discriminator 1 view .LVU591
 2478 0018 022C     		cmp	r4, #2
 2479 001a 20DC     		bgt	.L173
 392:Core/Src/main.c ****   {
 393:Core/Src/main.c ****     x[i] = getMyBeaconPosX(i);
 2480              		.loc 1 393 5 is_stmt 1 discriminator 3 view .LVU592
 2481              		.loc 1 393 12 is_stmt 0 discriminator 3 view .LVU593
 2482 001c 2046     		mov	r0, r4
 2483 001e FFF7FEFF 		bl	getMyBeaconPosX
 2484              	.LVL367:
 2485              		.loc 1 393 10 discriminator 3 view .LVU594
 2486 0022 20AB     		add	r3, sp, #128
 2487 0024 03EB8405 		add	r5, r3, r4, lsl #2
 2488 0028 45F80C0C 		str	r0, [r5, #-12]
 394:Core/Src/main.c ****     y[i] = getMyBeaconPosY(i);
 2489              		.loc 1 394 5 is_stmt 1 discriminator 3 view .LVU595
 2490              		.loc 1 394 12 is_stmt 0 discriminator 3 view .LVU596
 2491 002c 2046     		mov	r0, r4
 2492 002e FFF7FEFF 		bl	getMyBeaconPosY
 2493              	.LVL368:
 2494              		.loc 1 394 10 discriminator 3 view .LVU597
 2495 0032 45F8180C 		str	r0, [r5, #-24]
 395:Core/Src/main.c ****     beaconD[i] = getDistanceOfMyBeacon(i);
 2496              		.loc 1 395 5 is_stmt 1 discriminator 3 view .LVU598
 2497              		.loc 1 395 18 is_stmt 0 discriminator 3 view .LVU599
 2498 0036 2046     		mov	r0, r4
 2499 0038 FFF7FEFF 		bl	getDistanceOfMyBeacon
 2500              	.LVL369:
 2501              		.loc 1 395 16 discriminator 3 view .LVU600
 2502 003c 45F8240C 		str	r0, [r5, #-36]
 391:Core/Src/main.c ****   {
 2503              		.loc 1 391 26 is_stmt 1 discriminator 3 view .LVU601
 391:Core/Src/main.c ****   {
 2504              		.loc 1 391 27 is_stmt 0 discriminator 3 view .LVU602
 2505 0040 0134     		adds	r4, r4, #1
 2506              	.LVL370:
 391:Core/Src/main.c ****   {
 2507              		.loc 1 391 27 discriminator 3 view .LVU603
 2508 0042 E9E7     		b	.L160
 2509              	.LVL371:
ARM GAS  C:\Users\86183\AppData\Local\Temp\ccdSsS0f.s 			page 56


 2510              	.L172:
 391:Core/Src/main.c ****   {
 2511              		.loc 1 391 27 discriminator 3 view .LVU604
 2512              	.LBE23:
 385:Core/Src/main.c ****     coord.y = getCarPosY();
 2513              		.loc 1 385 5 is_stmt 1 view .LVU605
 385:Core/Src/main.c ****     coord.y = getCarPosY();
 2514              		.loc 1 385 15 is_stmt 0 view .LVU606
 2515 0044 FFF7FEFF 		bl	getCarPosX
 2516              	.LVL372:
 385:Core/Src/main.c ****     coord.y = getCarPosY();
 2517              		.loc 1 385 13 view .LVU607
 2518 0048 FFF7FEFF 		bl	__aeabi_ui2f
 2519              	.LVL373:
 2520 004c CBF80000 		str	r0, [fp]	@ float
 386:Core/Src/main.c ****     return coord;
 2521              		.loc 1 386 5 is_stmt 1 view .LVU608
 386:Core/Src/main.c ****     return coord;
 2522              		.loc 1 386 15 is_stmt 0 view .LVU609
 2523 0050 FFF7FEFF 		bl	getCarPosY
 2524              	.LVL374:
 386:Core/Src/main.c ****     return coord;
 2525              		.loc 1 386 13 view .LVU610
 2526 0054 FFF7FEFF 		bl	__aeabi_ui2f
 2527              	.LVL375:
 2528 0058 CBF80400 		str	r0, [fp, #4]	@ float
 387:Core/Src/main.c ****   };
 2529              		.loc 1 387 5 is_stmt 1 view .LVU611
 387:Core/Src/main.c ****   };
 2530              		.loc 1 387 12 is_stmt 0 view .LVU612
 2531 005c 7CE1     		b	.L159
 2532              	.LVL376:
 2533              	.L173:
 396:Core/Src/main.c ****   }
 397:Core/Src/main.c ****   A[0] = x[1] - x[0];
 2534              		.loc 1 397 3 is_stmt 1 view .LVU613
 2535              		.loc 1 397 11 is_stmt 0 view .LVU614
 2536 005e 1E9E     		ldr	r6, [sp, #120]
 2537 0060 0496     		str	r6, [sp, #16]
 2538              		.loc 1 397 18 view .LVU615
 2539 0062 1D9D     		ldr	r5, [sp, #116]
 2540              		.loc 1 397 8 view .LVU616
 2541 0064 701B     		subs	r0, r6, r5
 2542 0066 FFF7FEFF 		bl	__aeabi_i2f
 2543              	.LVL377:
 2544 006a 8046     		mov	r8, r0
 2545 006c 1590     		str	r0, [sp, #84]	@ float
 398:Core/Src/main.c ****   B[0] = y[1] - y[0];
 2546              		.loc 1 398 3 is_stmt 1 view .LVU617
 2547              		.loc 1 398 11 is_stmt 0 view .LVU618
 2548 006e 1B9B     		ldr	r3, [sp, #108]
 2549              		.loc 1 398 18 view .LVU619
 2550 0070 1A9C     		ldr	r4, [sp, #104]
 2551              	.LVL378:
 2552              		.loc 1 398 8 view .LVU620
 2553 0072 0393     		str	r3, [sp, #12]
 2554 0074 181B     		subs	r0, r3, r4
ARM GAS  C:\Users\86183\AppData\Local\Temp\ccdSsS0f.s 			page 57


 2555 0076 FFF7FEFF 		bl	__aeabi_i2f
 2556              	.LVL379:
 2557 007a 0090     		str	r0, [sp]	@ float
 2558 007c 1390     		str	r0, [sp, #76]	@ float
 399:Core/Src/main.c ****   A[1] = x[2] - x[0];
 2559              		.loc 1 399 3 is_stmt 1 view .LVU621
 2560              		.loc 1 399 11 is_stmt 0 view .LVU622
 2561 007e 1F99     		ldr	r1, [sp, #124]
 2562              		.loc 1 399 8 view .LVU623
 2563 0080 0691     		str	r1, [sp, #24]
 2564 0082 481B     		subs	r0, r1, r5
 2565 0084 FFF7FEFF 		bl	__aeabi_i2f
 2566              	.LVL380:
 2567 0088 0190     		str	r0, [sp, #4]	@ float
 2568 008a 1690     		str	r0, [sp, #88]	@ float
 400:Core/Src/main.c ****   B[1] = y[2] - y[0];
 2569              		.loc 1 400 3 is_stmt 1 view .LVU624
 2570              		.loc 1 400 11 is_stmt 0 view .LVU625
 2571 008c 1C98     		ldr	r0, [sp, #112]
 2572              		.loc 1 400 8 view .LVU626
 2573 008e 0790     		str	r0, [sp, #28]
 2574 0090 001B     		subs	r0, r0, r4
 2575 0092 FFF7FEFF 		bl	__aeabi_i2f
 2576              	.LVL381:
 2577 0096 8246     		mov	r10, r0
 2578 0098 1490     		str	r0, [sp, #80]	@ float
 401:Core/Src/main.c ****   xTemp[0] = (x[0] + x[1]) / 2 - A[0] * (sq(beaconD[1]) - sq(beaconD[0])) / (sq(A[0]) + sq(B[0])) /
 2579              		.loc 1 401 3 is_stmt 1 view .LVU627
 2580              		.loc 1 401 20 is_stmt 0 view .LVU628
 2581 009a 7719     		adds	r7, r6, r5
 2582              		.loc 1 401 28 view .LVU629
 2583 009c 07EBD777 		add	r7, r7, r7, lsr #31
 2584 00a0 7F10     		asrs	r7, r7, #1
 2585              		.loc 1 401 42 view .LVU630
 2586 00a2 1898     		ldr	r0, [sp, #96]
 2587 00a4 0590     		str	r0, [sp, #20]
 2588 00a6 00FB00F0 		mul	r0, r0, r0
 2589              		.loc 1 401 59 view .LVU631
 2590 00aa 179E     		ldr	r6, [sp, #92]
 2591 00ac 06FB06F9 		mul	r9, r6, r6
 2592              		.loc 1 401 39 view .LVU632
 2593 00b0 A0EB0900 		sub	r0, r0, r9
 2594 00b4 FFF7FEFF 		bl	__aeabi_i2f
 2595              	.LVL382:
 2596 00b8 0890     		str	r0, [sp, #32]	@ float
 2597 00ba 0146     		mov	r1, r0
 2598 00bc 4046     		mov	r0, r8
 2599 00be FFF7FEFF 		bl	__aeabi_fmul
 2600              	.LVL383:
 2601 00c2 0990     		str	r0, [sp, #36]	@ float
 2602              		.loc 1 401 78 view .LVU633
 2603 00c4 4146     		mov	r1, r8
 2604 00c6 CDF80880 		str	r8, [sp, #8]	@ float
 2605 00ca 4046     		mov	r0, r8
 2606 00cc FFF7FEFF 		bl	__aeabi_fmul
 2607              	.LVL384:
 2608 00d0 8046     		mov	r8, r0
ARM GAS  C:\Users\86183\AppData\Local\Temp\ccdSsS0f.s 			page 58


 2609              		.loc 1 401 89 view .LVU634
 2610 00d2 DDF800C0 		ldr	ip, [sp]	@ float
 2611 00d6 6146     		mov	r1, ip
 2612 00d8 6046     		mov	r0, ip
 2613 00da FFF7FEFF 		bl	__aeabi_fmul
 2614              	.LVL385:
 2615 00de 0146     		mov	r1, r0
 2616              		.loc 1 401 87 view .LVU635
 2617 00e0 4046     		mov	r0, r8
 2618 00e2 FFF7FEFF 		bl	__aeabi_fadd
 2619              	.LVL386:
 2620 00e6 8046     		mov	r8, r0
 2621              		.loc 1 401 75 view .LVU636
 2622 00e8 0146     		mov	r1, r0
 2623 00ea 0998     		ldr	r0, [sp, #36]	@ float
 2624 00ec FFF7FEFF 		bl	__aeabi_fdiv
 2625              	.LVL387:
 2626              		.loc 1 401 99 view .LVU637
 2627 00f0 4FF07C51 		mov	r1, #1056964608
 2628 00f4 FFF7FEFF 		bl	__aeabi_fmul
 2629              	.LVL388:
 2630 00f8 0990     		str	r0, [sp, #36]	@ float
 2631              		.loc 1 401 32 view .LVU638
 2632 00fa 3846     		mov	r0, r7
 2633 00fc FFF7FEFF 		bl	__aeabi_i2f
 2634              	.LVL389:
 2635 0100 0999     		ldr	r1, [sp, #36]	@ float
 2636 0102 FFF7FEFF 		bl	__aeabi_fsub
 2637              	.LVL390:
 2638              		.loc 1 401 12 view .LVU639
 2639 0106 0990     		str	r0, [sp, #36]	@ float
 2640 0108 0F90     		str	r0, [sp, #60]	@ float
 402:Core/Src/main.c ****   yTemp[0] = (y[0] + y[1]) / 2 - B[0] * (sq(beaconD[1]) - sq(beaconD[0])) / (sq(A[0]) + sq(B[0])) /
 2641              		.loc 1 402 3 is_stmt 1 view .LVU640
 2642              		.loc 1 402 20 is_stmt 0 view .LVU641
 2643 010a 039B     		ldr	r3, [sp, #12]
 2644 010c 1F19     		adds	r7, r3, r4
 2645              		.loc 1 402 28 view .LVU642
 2646 010e 07EBD777 		add	r7, r7, r7, lsr #31
 2647 0112 7F10     		asrs	r7, r7, #1
 2648              		.loc 1 402 39 view .LVU643
 2649 0114 0899     		ldr	r1, [sp, #32]	@ float
 2650 0116 0098     		ldr	r0, [sp]	@ float
 2651 0118 FFF7FEFF 		bl	__aeabi_fmul
 2652              	.LVL391:
 2653              		.loc 1 402 75 view .LVU644
 2654 011c 4146     		mov	r1, r8
 2655 011e FFF7FEFF 		bl	__aeabi_fdiv
 2656              	.LVL392:
 2657              		.loc 1 402 99 view .LVU645
 2658 0122 4FF07C51 		mov	r1, #1056964608
 2659 0126 FFF7FEFF 		bl	__aeabi_fmul
 2660              	.LVL393:
 2661 012a 8046     		mov	r8, r0
 2662              		.loc 1 402 32 view .LVU646
 2663 012c 3846     		mov	r0, r7
 2664 012e FFF7FEFF 		bl	__aeabi_i2f
ARM GAS  C:\Users\86183\AppData\Local\Temp\ccdSsS0f.s 			page 59


 2665              	.LVL394:
 2666 0132 4146     		mov	r1, r8
 2667 0134 FFF7FEFF 		bl	__aeabi_fsub
 2668              	.LVL395:
 2669              		.loc 1 402 12 view .LVU647
 2670 0138 0A90     		str	r0, [sp, #40]	@ float
 2671 013a 0D90     		str	r0, [sp, #52]	@ float
 403:Core/Src/main.c ****   xTemp[1] = (x[0] + x[2]) / 2 - A[1] * (sq(beaconD[2]) - sq(beaconD[0])) / (sq(A[1]) + sq(B[1])) /
 2672              		.loc 1 403 3 is_stmt 1 view .LVU648
 2673              		.loc 1 403 20 is_stmt 0 view .LVU649
 2674 013c 069A     		ldr	r2, [sp, #24]
 2675 013e AF18     		adds	r7, r5, r2
 2676              		.loc 1 403 28 view .LVU650
 2677 0140 07EBD777 		add	r7, r7, r7, lsr #31
 2678 0144 7F10     		asrs	r7, r7, #1
 2679              		.loc 1 403 42 view .LVU651
 2680 0146 199A     		ldr	r2, [sp, #100]
 2681 0148 0B92     		str	r2, [sp, #44]
 2682 014a 02FB02F0 		mul	r0, r2, r2
 2683              		.loc 1 403 39 view .LVU652
 2684 014e A0EB0900 		sub	r0, r0, r9
 2685 0152 FFF7FEFF 		bl	__aeabi_i2f
 2686              	.LVL396:
 2687 0156 0890     		str	r0, [sp, #32]	@ float
 2688 0158 0146     		mov	r1, r0
 2689 015a DDF80480 		ldr	r8, [sp, #4]	@ float
 2690 015e 4046     		mov	r0, r8
 2691 0160 FFF7FEFF 		bl	__aeabi_fmul
 2692              	.LVL397:
 2693 0164 8146     		mov	r9, r0
 2694              		.loc 1 403 78 view .LVU653
 2695 0166 4146     		mov	r1, r8
 2696 0168 4046     		mov	r0, r8
 2697 016a FFF7FEFF 		bl	__aeabi_fmul
 2698              	.LVL398:
 2699 016e 8046     		mov	r8, r0
 2700              		.loc 1 403 89 view .LVU654
 2701 0170 5146     		mov	r1, r10
 2702 0172 5046     		mov	r0, r10
 2703 0174 FFF7FEFF 		bl	__aeabi_fmul
 2704              	.LVL399:
 2705 0178 0146     		mov	r1, r0
 2706              		.loc 1 403 87 view .LVU655
 2707 017a 4046     		mov	r0, r8
 2708 017c FFF7FEFF 		bl	__aeabi_fadd
 2709              	.LVL400:
 2710 0180 8046     		mov	r8, r0
 2711              		.loc 1 403 75 view .LVU656
 2712 0182 0146     		mov	r1, r0
 2713 0184 4846     		mov	r0, r9
 2714 0186 FFF7FEFF 		bl	__aeabi_fdiv
 2715              	.LVL401:
 2716              		.loc 1 403 99 view .LVU657
 2717 018a 4FF07C51 		mov	r1, #1056964608
 2718 018e FFF7FEFF 		bl	__aeabi_fmul
 2719              	.LVL402:
 2720 0192 8146     		mov	r9, r0
ARM GAS  C:\Users\86183\AppData\Local\Temp\ccdSsS0f.s 			page 60


 2721              		.loc 1 403 32 view .LVU658
 2722 0194 3846     		mov	r0, r7
 2723 0196 FFF7FEFF 		bl	__aeabi_i2f
 2724              	.LVL403:
 2725 019a 4946     		mov	r1, r9
 2726 019c FFF7FEFF 		bl	__aeabi_fsub
 2727              	.LVL404:
 2728 01a0 8146     		mov	r9, r0
 2729              		.loc 1 403 12 view .LVU659
 2730 01a2 1090     		str	r0, [sp, #64]	@ float
 404:Core/Src/main.c ****   yTemp[1] = (y[0] + y[2]) / 2 - B[1] * (sq(beaconD[2]) - sq(beaconD[0])) / (sq(A[1]) + sq(B[1])) /
 2731              		.loc 1 404 3 is_stmt 1 view .LVU660
 2732              		.loc 1 404 20 is_stmt 0 view .LVU661
 2733 01a4 079B     		ldr	r3, [sp, #28]
 2734 01a6 E718     		adds	r7, r4, r3
 2735              		.loc 1 404 28 view .LVU662
 2736 01a8 07EBD777 		add	r7, r7, r7, lsr #31
 2737 01ac 7F10     		asrs	r7, r7, #1
 2738              		.loc 1 404 39 view .LVU663
 2739 01ae 0899     		ldr	r1, [sp, #32]	@ float
 2740 01b0 5046     		mov	r0, r10
 2741 01b2 FFF7FEFF 		bl	__aeabi_fmul
 2742              	.LVL405:
 2743              		.loc 1 404 75 view .LVU664
 2744 01b6 4146     		mov	r1, r8
 2745 01b8 FFF7FEFF 		bl	__aeabi_fdiv
 2746              	.LVL406:
 2747              		.loc 1 404 99 view .LVU665
 2748 01bc 4FF07C51 		mov	r1, #1056964608
 2749 01c0 FFF7FEFF 		bl	__aeabi_fmul
 2750              	.LVL407:
 2751 01c4 8046     		mov	r8, r0
 2752              		.loc 1 404 32 view .LVU666
 2753 01c6 3846     		mov	r0, r7
 2754 01c8 FFF7FEFF 		bl	__aeabi_i2f
 2755              	.LVL408:
 2756 01cc 4146     		mov	r1, r8
 2757 01ce FFF7FEFF 		bl	__aeabi_fsub
 2758              	.LVL409:
 2759 01d2 8046     		mov	r8, r0
 2760              		.loc 1 404 12 view .LVU667
 2761 01d4 0E90     		str	r0, [sp, #56]	@ float
 405:Core/Src/main.c ****   C[0] = A[0] * xTemp[0] + B[0] * yTemp[0];
 2762              		.loc 1 405 3 is_stmt 1 view .LVU668
 2763              		.loc 1 405 15 is_stmt 0 view .LVU669
 2764 01d6 0999     		ldr	r1, [sp, #36]	@ float
 2765 01d8 0298     		ldr	r0, [sp, #8]	@ float
 2766 01da FFF7FEFF 		bl	__aeabi_fmul
 2767              	.LVL410:
 2768 01de 0746     		mov	r7, r0
 2769              		.loc 1 405 33 view .LVU670
 2770 01e0 0A99     		ldr	r1, [sp, #40]	@ float
 2771 01e2 0098     		ldr	r0, [sp]	@ float
 2772 01e4 FFF7FEFF 		bl	__aeabi_fmul
 2773              	.LVL411:
 2774 01e8 0146     		mov	r1, r0
 2775              		.loc 1 405 26 view .LVU671
ARM GAS  C:\Users\86183\AppData\Local\Temp\ccdSsS0f.s 			page 61


 2776 01ea 3846     		mov	r0, r7
 2777 01ec FFF7FEFF 		bl	__aeabi_fadd
 2778              	.LVL412:
 2779 01f0 0746     		mov	r7, r0
 2780              		.loc 1 405 8 view .LVU672
 2781 01f2 1190     		str	r0, [sp, #68]	@ float
 406:Core/Src/main.c ****   C[1] = A[1] * xTemp[1] + B[1] * yTemp[1];
 2782              		.loc 1 406 3 is_stmt 1 view .LVU673
 2783              		.loc 1 406 15 is_stmt 0 view .LVU674
 2784 01f4 4946     		mov	r1, r9
 2785 01f6 0198     		ldr	r0, [sp, #4]	@ float
 2786 01f8 FFF7FEFF 		bl	__aeabi_fmul
 2787              	.LVL413:
 2788 01fc 8146     		mov	r9, r0
 2789              		.loc 1 406 33 view .LVU675
 2790 01fe 4146     		mov	r1, r8
 2791 0200 5046     		mov	r0, r10
 2792 0202 FFF7FEFF 		bl	__aeabi_fmul
 2793              	.LVL414:
 2794 0206 0146     		mov	r1, r0
 2795              		.loc 1 406 26 view .LVU676
 2796 0208 4846     		mov	r0, r9
 2797 020a FFF7FEFF 		bl	__aeabi_fadd
 2798              	.LVL415:
 2799 020e 8046     		mov	r8, r0
 2800              		.loc 1 406 8 view .LVU677
 2801 0210 1290     		str	r0, [sp, #72]	@ float
 407:Core/Src/main.c ****   xBase = (C[0] * B[1] - C[1] * B[0]) / (A[0] * B[1] - A[1] * B[0]);
 2802              		.loc 1 407 3 is_stmt 1 view .LVU678
 2803              		.loc 1 407 17 is_stmt 0 view .LVU679
 2804 0212 3946     		mov	r1, r7
 2805 0214 5046     		mov	r0, r10
 2806 0216 FFF7FEFF 		bl	__aeabi_fmul
 2807              	.LVL416:
 2808 021a 8146     		mov	r9, r0
 2809              		.loc 1 407 31 view .LVU680
 2810 021c 4146     		mov	r1, r8
 2811 021e 0098     		ldr	r0, [sp]	@ float
 2812 0220 FFF7FEFF 		bl	__aeabi_fmul
 2813              	.LVL417:
 2814 0224 0146     		mov	r1, r0
 2815              		.loc 1 407 24 view .LVU681
 2816 0226 4846     		mov	r0, r9
 2817 0228 FFF7FEFF 		bl	__aeabi_fsub
 2818              	.LVL418:
 2819 022c 8146     		mov	r9, r0
 2820              		.loc 1 407 47 view .LVU682
 2821 022e 5146     		mov	r1, r10
 2822 0230 0298     		ldr	r0, [sp, #8]	@ float
 2823 0232 FFF7FEFF 		bl	__aeabi_fmul
 2824              	.LVL419:
 2825 0236 8246     		mov	r10, r0
 2826              		.loc 1 407 61 view .LVU683
 2827 0238 0199     		ldr	r1, [sp, #4]	@ float
 2828 023a 0098     		ldr	r0, [sp]	@ float
 2829 023c FFF7FEFF 		bl	__aeabi_fmul
 2830              	.LVL420:
ARM GAS  C:\Users\86183\AppData\Local\Temp\ccdSsS0f.s 			page 62


 2831 0240 0146     		mov	r1, r0
 2832              		.loc 1 407 54 view .LVU684
 2833 0242 5046     		mov	r0, r10
 2834 0244 FFF7FEFF 		bl	__aeabi_fsub
 2835              	.LVL421:
 2836 0248 8246     		mov	r10, r0
 2837              		.loc 1 407 39 view .LVU685
 2838 024a 0146     		mov	r1, r0
 2839 024c 4846     		mov	r0, r9
 2840 024e FFF7FEFF 		bl	__aeabi_fdiv
 2841              	.LVL422:
 2842              		.loc 1 407 9 view .LVU686
 2843 0252 FFF7FEFF 		bl	__aeabi_f2iz
 2844              	.LVL423:
 2845 0256 8146     		mov	r9, r0
 2846              	.LVL424:
 408:Core/Src/main.c ****   yBase = (C[1] * A[0] - C[0] * A[1]) / (A[0] * B[1] - A[1] * B[0]);
 2847              		.loc 1 408 3 is_stmt 1 view .LVU687
 2848              		.loc 1 408 17 is_stmt 0 view .LVU688
 2849 0258 4146     		mov	r1, r8
 2850 025a 0298     		ldr	r0, [sp, #8]	@ float
 2851              	.LVL425:
 2852              		.loc 1 408 17 view .LVU689
 2853 025c FFF7FEFF 		bl	__aeabi_fmul
 2854              	.LVL426:
 2855 0260 8046     		mov	r8, r0
 2856              		.loc 1 408 31 view .LVU690
 2857 0262 3946     		mov	r1, r7
 2858 0264 0198     		ldr	r0, [sp, #4]	@ float
 2859 0266 FFF7FEFF 		bl	__aeabi_fmul
 2860              	.LVL427:
 2861 026a 0146     		mov	r1, r0
 2862              		.loc 1 408 24 view .LVU691
 2863 026c 4046     		mov	r0, r8
 2864 026e FFF7FEFF 		bl	__aeabi_fsub
 2865              	.LVL428:
 2866              		.loc 1 408 39 view .LVU692
 2867 0272 5146     		mov	r1, r10
 2868 0274 FFF7FEFF 		bl	__aeabi_fdiv
 2869              	.LVL429:
 2870              		.loc 1 408 9 view .LVU693
 2871 0278 FFF7FEFF 		bl	__aeabi_f2iz
 2872              	.LVL430:
 2873 027c 8246     		mov	r10, r0
 2874              	.LVL431:
 409:Core/Src/main.c ****   for (int i = -1; i < 2; i++)
 2875              		.loc 1 409 3 is_stmt 1 view .LVU694
 2876              	.LBB24:
 2877              		.loc 1 409 8 view .LVU695
 2878              		.loc 1 409 12 is_stmt 0 view .LVU696
 2879 027e 4FF0FF38 		mov	r8, #-1
 2880              	.LBE24:
 390:Core/Src/main.c ****   for (int i = 0; i < 3; i++)
 2881              		.loc 1 390 57 view .LVU697
 2882 0282 0023     		movs	r3, #0
 2883 0284 0293     		str	r3, [sp, #8]	@ float
 390:Core/Src/main.c ****   for (int i = 0; i < 3; i++)
ARM GAS  C:\Users\86183\AppData\Local\Temp\ccdSsS0f.s 			page 63


 2884              		.loc 1 390 47 view .LVU698
 2885 0286 0193     		str	r3, [sp, #4]	@ float
 389:Core/Src/main.c ****   float A[2], B[2], C[2], xTemp[2], yTemp[2], xRes = 0, yRes = 0;
 2886              		.loc 1 389 45 view .LVU699
 2887 0288 0023     		movs	r3, #0
 2888 028a 0093     		str	r3, [sp]
 2889              	.LBB27:
 2890              		.loc 1 409 3 view .LVU700
 2891 028c 54E0     		b	.L163
 2892              	.LVL432:
 2893              	.L164:
 2894              	.LBB25:
 410:Core/Src/main.c ****     for (int j = -1; j < 2; j++)
 2895              		.loc 1 410 29 is_stmt 1 discriminator 2 view .LVU701
 2896              		.loc 1 410 30 is_stmt 0 discriminator 2 view .LVU702
 2897 028e 0137     		adds	r7, r7, #1
 2898              	.LVL433:
 2899              	.L166:
 2900              		.loc 1 410 22 is_stmt 1 discriminator 1 view .LVU703
 2901              		.loc 1 410 5 is_stmt 0 discriminator 1 view .LVU704
 2902 0290 012F     		cmp	r7, #1
 2903 0292 4FDC     		bgt	.L174
 411:Core/Src/main.c ****       if ((int)sqrt(sq(xBase - x[0] + i) + sq(yBase - y[0] + j)) == beaconD[0] && (int)sqrt(sq(xBas
 2904              		.loc 1 411 7 is_stmt 1 view .LVU705
 2905              		.loc 1 411 21 is_stmt 0 view .LVU706
 2906 0294 A9EB0500 		sub	r0, r9, r5
 2907 0298 4044     		add	r0, r0, r8
 2908              		.loc 1 411 44 view .LVU707
 2909 029a AAEB0403 		sub	r3, r10, r4
 2910 029e 3B44     		add	r3, r3, r7
 2911 02a0 03FB03F3 		mul	r3, r3, r3
 2912              		.loc 1 411 16 view .LVU708
 2913 02a4 00FB0030 		mla	r0, r0, r0, r3
 2914 02a8 FFF7FEFF 		bl	__aeabi_i2d
 2915              	.LVL434:
 2916 02ac FFF7FEFF 		bl	sqrt
 2917              	.LVL435:
 2918              		.loc 1 411 11 view .LVU709
 2919 02b0 FFF7FEFF 		bl	__aeabi_d2iz
 2920              	.LVL436:
 2921              		.loc 1 411 10 view .LVU710
 2922 02b4 8642     		cmp	r6, r0
 2923 02b6 EAD1     		bne	.L164
 2924              		.loc 1 411 93 discriminator 1 view .LVU711
 2925 02b8 049B     		ldr	r3, [sp, #16]
 2926 02ba A9EB0300 		sub	r0, r9, r3
 2927 02be 4044     		add	r0, r0, r8
 2928              		.loc 1 411 116 discriminator 1 view .LVU712
 2929 02c0 039B     		ldr	r3, [sp, #12]
 2930 02c2 AAEB0303 		sub	r3, r10, r3
 2931 02c6 3B44     		add	r3, r3, r7
 2932 02c8 03FB03F3 		mul	r3, r3, r3
 2933              		.loc 1 411 88 discriminator 1 view .LVU713
 2934 02cc 00FB0030 		mla	r0, r0, r0, r3
 2935 02d0 FFF7FEFF 		bl	__aeabi_i2d
 2936              	.LVL437:
 2937 02d4 FFF7FEFF 		bl	sqrt
ARM GAS  C:\Users\86183\AppData\Local\Temp\ccdSsS0f.s 			page 64


 2938              	.LVL438:
 2939              		.loc 1 411 83 discriminator 1 view .LVU714
 2940 02d8 FFF7FEFF 		bl	__aeabi_d2iz
 2941              	.LVL439:
 2942              		.loc 1 411 80 discriminator 1 view .LVU715
 2943 02dc 059B     		ldr	r3, [sp, #20]
 2944 02de 8342     		cmp	r3, r0
 2945 02e0 D5D1     		bne	.L164
 2946              		.loc 1 411 165 discriminator 2 view .LVU716
 2947 02e2 069B     		ldr	r3, [sp, #24]
 2948 02e4 A9EB0300 		sub	r0, r9, r3
 2949 02e8 4044     		add	r0, r0, r8
 2950              		.loc 1 411 188 discriminator 2 view .LVU717
 2951 02ea 079B     		ldr	r3, [sp, #28]
 2952 02ec AAEB0303 		sub	r3, r10, r3
 2953 02f0 3B44     		add	r3, r3, r7
 2954 02f2 03FB03F3 		mul	r3, r3, r3
 2955              		.loc 1 411 160 discriminator 2 view .LVU718
 2956 02f6 00FB0030 		mla	r0, r0, r0, r3
 2957 02fa FFF7FEFF 		bl	__aeabi_i2d
 2958              	.LVL440:
 2959 02fe FFF7FEFF 		bl	sqrt
 2960              	.LVL441:
 2961              		.loc 1 411 155 discriminator 2 view .LVU719
 2962 0302 FFF7FEFF 		bl	__aeabi_d2iz
 2963              	.LVL442:
 2964              		.loc 1 411 152 discriminator 2 view .LVU720
 2965 0306 0B9B     		ldr	r3, [sp, #44]
 2966 0308 8342     		cmp	r3, r0
 2967 030a C0D1     		bne	.L164
 412:Core/Src/main.c ****         xRes += i, yRes += j, cnt++;
 2968              		.loc 1 412 9 is_stmt 1 view .LVU721
 2969              		.loc 1 412 14 is_stmt 0 view .LVU722
 2970 030c 4046     		mov	r0, r8
 2971 030e FFF7FEFF 		bl	__aeabi_i2f
 2972              	.LVL443:
 2973 0312 0146     		mov	r1, r0
 2974 0314 0198     		ldr	r0, [sp, #4]	@ float
 2975 0316 FFF7FEFF 		bl	__aeabi_fadd
 2976              	.LVL444:
 2977 031a 0190     		str	r0, [sp, #4]	@ float
 2978              	.LVL445:
 2979              		.loc 1 412 25 view .LVU723
 2980 031c 3846     		mov	r0, r7
 2981              	.LVL446:
 2982              		.loc 1 412 25 view .LVU724
 2983 031e FFF7FEFF 		bl	__aeabi_i2f
 2984              	.LVL447:
 2985 0322 0146     		mov	r1, r0
 2986 0324 0298     		ldr	r0, [sp, #8]	@ float
 2987 0326 FFF7FEFF 		bl	__aeabi_fadd
 2988              	.LVL448:
 2989 032a 0290     		str	r0, [sp, #8]	@ float
 2990              	.LVL449:
 2991              		.loc 1 412 34 view .LVU725
 2992 032c 009B     		ldr	r3, [sp]
 2993 032e 0133     		adds	r3, r3, #1
ARM GAS  C:\Users\86183\AppData\Local\Temp\ccdSsS0f.s 			page 65


 2994 0330 0093     		str	r3, [sp]
 2995              	.LVL450:
 2996              		.loc 1 412 34 view .LVU726
 2997 0332 ACE7     		b	.L164
 2998              	.LVL451:
 2999              	.L174:
 3000              		.loc 1 412 34 view .LVU727
 3001              	.LBE25:
 409:Core/Src/main.c ****     for (int j = -1; j < 2; j++)
 3002              		.loc 1 409 27 is_stmt 1 discriminator 2 view .LVU728
 409:Core/Src/main.c ****     for (int j = -1; j < 2; j++)
 3003              		.loc 1 409 28 is_stmt 0 discriminator 2 view .LVU729
 3004 0334 08F10108 		add	r8, r8, #1
 3005              	.LVL452:
 3006              	.L163:
 409:Core/Src/main.c ****     for (int j = -1; j < 2; j++)
 3007              		.loc 1 409 20 is_stmt 1 discriminator 1 view .LVU730
 409:Core/Src/main.c ****     for (int j = -1; j < 2; j++)
 3008              		.loc 1 409 3 is_stmt 0 discriminator 1 view .LVU731
 3009 0338 B8F1010F 		cmp	r8, #1
 3010 033c 02DC     		bgt	.L175
 3011              	.LBB26:
 410:Core/Src/main.c ****       if ((int)sqrt(sq(xBase - x[0] + i) + sq(yBase - y[0] + j)) == beaconD[0] && (int)sqrt(sq(xBas
 3012              		.loc 1 410 14 view .LVU732
 3013 033e 4FF0FF37 		mov	r7, #-1
 3014 0342 A5E7     		b	.L166
 3015              	.L175:
 3016              	.LBE26:
 3017              	.LBE27:
 413:Core/Src/main.c ****   if (cnt > 1)
 3018              		.loc 1 413 3 is_stmt 1 view .LVU733
 3019              		.loc 1 413 6 is_stmt 0 view .LVU734
 3020 0344 009B     		ldr	r3, [sp]
 3021 0346 012B     		cmp	r3, #1
 3022 0348 0ADD     		ble	.L167
 414:Core/Src/main.c ****   {
 415:Core/Src/main.c ****     coord.x = -1.0;
 3023              		.loc 1 415 5 is_stmt 1 view .LVU735
 3024              		.loc 1 415 13 is_stmt 0 view .LVU736
 3025 034a 0E4B     		ldr	r3, .L176
 3026 034c CBF80030 		str	r3, [fp]	@ float
 416:Core/Src/main.c ****     coord.y = -1.0;
 3027              		.loc 1 416 5 is_stmt 1 view .LVU737
 3028              		.loc 1 416 13 is_stmt 0 view .LVU738
 3029 0350 CBF80430 		str	r3, [fp, #4]	@ float
 417:Core/Src/main.c ****     coord.I = -1.0;
 3030              		.loc 1 417 5 is_stmt 1 view .LVU739
 3031              		.loc 1 417 13 is_stmt 0 view .LVU740
 3032 0354 CBF80830 		str	r3, [fp, #8]	@ float
 3033              	.LVL453:
 3034              	.L159:
 418:Core/Src/main.c ****   }
 419:Core/Src/main.c ****   else
 420:Core/Src/main.c ****   {
 421:Core/Src/main.c ****     coord.x = xBase + xRes;
 422:Core/Src/main.c ****     coord.y = yBase + yRes;
 423:Core/Src/main.c ****   }
ARM GAS  C:\Users\86183\AppData\Local\Temp\ccdSsS0f.s 			page 66


 424:Core/Src/main.c ****   return coord;
 425:Core/Src/main.c **** }
 3035              		.loc 1 425 1 view .LVU741
 3036 0358 5846     		mov	r0, fp
 3037 035a 21B0     		add	sp, sp, #132
 3038              	.LCFI15:
 3039              		.cfi_remember_state
 3040              		.cfi_def_cfa_offset 36
 3041              		@ sp needed
 3042 035c BDE8F08F 		pop	{r4, r5, r6, r7, r8, r9, r10, fp, pc}
 3043              	.LVL454:
 3044              	.L167:
 3045              	.LCFI16:
 3046              		.cfi_restore_state
 421:Core/Src/main.c ****     coord.y = yBase + yRes;
 3047              		.loc 1 421 5 is_stmt 1 view .LVU742
 421:Core/Src/main.c ****     coord.y = yBase + yRes;
 3048              		.loc 1 421 21 is_stmt 0 view .LVU743
 3049 0360 4846     		mov	r0, r9
 3050 0362 FFF7FEFF 		bl	__aeabi_i2f
 3051              	.LVL455:
 3052 0366 0199     		ldr	r1, [sp, #4]	@ float
 3053 0368 FFF7FEFF 		bl	__aeabi_fadd
 3054              	.LVL456:
 421:Core/Src/main.c ****     coord.y = yBase + yRes;
 3055              		.loc 1 421 13 view .LVU744
 3056 036c CBF80000 		str	r0, [fp]	@ float
 422:Core/Src/main.c ****   }
 3057              		.loc 1 422 5 is_stmt 1 view .LVU745
 422:Core/Src/main.c ****   }
 3058              		.loc 1 422 21 is_stmt 0 view .LVU746
 3059 0370 5046     		mov	r0, r10
 3060 0372 FFF7FEFF 		bl	__aeabi_i2f
 3061              	.LVL457:
 3062 0376 0299     		ldr	r1, [sp, #8]	@ float
 3063 0378 FFF7FEFF 		bl	__aeabi_fadd
 3064              	.LVL458:
 422:Core/Src/main.c ****   }
 3065              		.loc 1 422 13 view .LVU747
 3066 037c CBF80400 		str	r0, [fp, #4]	@ float
 424:Core/Src/main.c **** }
 3067              		.loc 1 424 3 is_stmt 1 view .LVU748
 424:Core/Src/main.c **** }
 3068              		.loc 1 424 10 is_stmt 0 view .LVU749
 3069 0380 EAE7     		b	.L159
 3070              	.L177:
 3071 0382 00BF     		.align	2
 3072              	.L176:
 3073 0384 000080BF 		.word	-1082130432
 3074              		.cfi_endproc
 3075              	.LFE78:
 3077              		.global	__aeabi_ddiv
 3078              		.section	.text.Calculate_Package_Position,"ax",%progbits
 3079              		.align	1
 3080              		.global	Calculate_Package_Position
 3081              		.syntax unified
 3082              		.thumb
ARM GAS  C:\Users\86183\AppData\Local\Temp\ccdSsS0f.s 			page 67


 3083              		.thumb_func
 3084              		.fpu softvfp
 3086              	Calculate_Package_Position:
 3087              	.LVL459:
 3088              	.LFB79:
 426:Core/Src/main.c **** 
 427:Core/Src/main.c **** void Calculate_Package_Position(int i)
 428:Core/Src/main.c **** {
 3089              		.loc 1 428 1 is_stmt 1 view -0
 3090              		.cfi_startproc
 3091              		@ args = 0, pretend = 0, frame = 64
 3092              		@ frame_needed = 0, uses_anonymous_args = 0
 3093              		.loc 1 428 1 is_stmt 0 view .LVU751
 3094 0000 2DE9F04F 		push	{r4, r5, r6, r7, r8, r9, r10, fp, lr}
 3095              	.LCFI17:
 3096              		.cfi_def_cfa_offset 36
 3097              		.cfi_offset 4, -36
 3098              		.cfi_offset 5, -32
 3099              		.cfi_offset 6, -28
 3100              		.cfi_offset 7, -24
 3101              		.cfi_offset 8, -20
 3102              		.cfi_offset 9, -16
 3103              		.cfi_offset 10, -12
 3104              		.cfi_offset 11, -8
 3105              		.cfi_offset 14, -4
 3106 0004 91B0     		sub	sp, sp, #68
 3107              	.LCFI18:
 3108              		.cfi_def_cfa_offset 104
 3109 0006 8346     		mov	fp, r0
 429:Core/Src/main.c ****   float A[2], B[2], C[2], invdet;
 3110              		.loc 1 429 3 is_stmt 1 view .LVU752
 430:Core/Src/main.c ****   A[0] = surveyData[i][1].x - surveyData[i][0].x;
 3111              		.loc 1 430 3 view .LVU753
 3112              		.loc 1 430 26 is_stmt 0 view .LVU754
 3113 0008 894B     		ldr	r3, .L180+8
 3114 000a 00EBC002 		add	r2, r0, r0, lsl #3
 3115 000e 03EB8207 		add	r7, r3, r2, lsl #2
 3116 0012 D7F80CA0 		ldr	r10, [r7, #12]	@ float
 3117              		.loc 1 430 47 view .LVU755
 3118 0016 53F82230 		ldr	r3, [r3, r2, lsl #2]	@ float
 3119              		.loc 1 430 29 view .LVU756
 3120 001a 0393     		str	r3, [sp, #12]	@ float
 3121 001c 1946     		mov	r1, r3
 3122 001e 5046     		mov	r0, r10
 3123              	.LVL460:
 3124              		.loc 1 430 29 view .LVU757
 3125 0020 FFF7FEFF 		bl	__aeabi_fsub
 3126              	.LVL461:
 3127              		.loc 1 430 8 view .LVU758
 3128 0024 0190     		str	r0, [sp, #4]	@ float
 3129 0026 0E90     		str	r0, [sp, #56]	@ float
 431:Core/Src/main.c ****   A[1] = surveyData[i][2].x - surveyData[i][1].x;
 3130              		.loc 1 431 3 is_stmt 1 view .LVU759
 3131              		.loc 1 431 26 is_stmt 0 view .LVU760
 3132 0028 BA69     		ldr	r2, [r7, #24]	@ float
 3133              		.loc 1 431 29 view .LVU761
 3134 002a 5146     		mov	r1, r10
ARM GAS  C:\Users\86183\AppData\Local\Temp\ccdSsS0f.s 			page 68


 3135 002c 0492     		str	r2, [sp, #16]	@ float
 3136 002e 1046     		mov	r0, r2
 3137 0030 FFF7FEFF 		bl	__aeabi_fsub
 3138              	.LVL462:
 3139              		.loc 1 431 8 view .LVU762
 3140 0034 0690     		str	r0, [sp, #24]	@ float
 3141 0036 0F90     		str	r0, [sp, #60]	@ float
 432:Core/Src/main.c ****   B[0] = surveyData[i][1].y - surveyData[i][0].y;
 3142              		.loc 1 432 3 is_stmt 1 view .LVU763
 3143              		.loc 1 432 26 is_stmt 0 view .LVU764
 3144 0038 3D69     		ldr	r5, [r7, #16]	@ float
 3145              		.loc 1 432 47 view .LVU765
 3146 003a 7C68     		ldr	r4, [r7, #4]	@ float
 3147              		.loc 1 432 29 view .LVU766
 3148 003c 2146     		mov	r1, r4
 3149 003e 2846     		mov	r0, r5
 3150 0040 FFF7FEFF 		bl	__aeabi_fsub
 3151              	.LVL463:
 3152              		.loc 1 432 8 view .LVU767
 3153 0044 0290     		str	r0, [sp, #8]	@ float
 3154 0046 0C90     		str	r0, [sp, #48]	@ float
 433:Core/Src/main.c ****   B[1] = surveyData[i][2].y - surveyData[i][1].y;
 3155              		.loc 1 433 3 is_stmt 1 view .LVU768
 3156              		.loc 1 433 26 is_stmt 0 view .LVU769
 3157 0048 FA69     		ldr	r2, [r7, #28]	@ float
 3158              		.loc 1 433 29 view .LVU770
 3159 004a 2946     		mov	r1, r5
 3160 004c 0592     		str	r2, [sp, #20]	@ float
 3161 004e 1046     		mov	r0, r2
 3162 0050 FFF7FEFF 		bl	__aeabi_fsub
 3163              	.LVL464:
 3164              		.loc 1 433 8 view .LVU771
 3165 0054 0790     		str	r0, [sp, #28]	@ float
 3166 0056 0D90     		str	r0, [sp, #52]	@ float
 434:Core/Src/main.c ****   C[0] = 2.0e9 * (surveyData[i][1].I - surveyData[i][0].I) / (surveyData[i][1].I + surveyData[i][0]
 3167              		.loc 1 434 3 is_stmt 1 view .LVU772
 3168              		.loc 1 434 35 is_stmt 0 view .LVU773
 3169 0058 7E69     		ldr	r6, [r7, #20]	@ float
 3170              		.loc 1 434 56 view .LVU774
 3171 005a D7F80880 		ldr	r8, [r7, #8]	@ float
 3172              		.loc 1 434 38 view .LVU775
 3173 005e 4146     		mov	r1, r8
 3174 0060 3046     		mov	r0, r6
 3175 0062 FFF7FEFF 		bl	__aeabi_fsub
 3176              	.LVL465:
 3177 0066 FFF7FEFF 		bl	__aeabi_f2d
 3178              	.LVL466:
 3179              		.loc 1 434 16 view .LVU776
 3180 006a 6FA3     		adr	r3, .L180
 3181 006c D3E90023 		ldrd	r2, [r3]
 3182 0070 FFF7FEFF 		bl	__aeabi_dmul
 3183              	.LVL467:
 3184 0074 CDE90801 		strd	r0, [sp, #32]
 3185              		.loc 1 434 82 view .LVU777
 3186 0078 4146     		mov	r1, r8
 3187 007a 3046     		mov	r0, r6
 3188 007c FFF7FEFF 		bl	__aeabi_fadd
ARM GAS  C:\Users\86183\AppData\Local\Temp\ccdSsS0f.s 			page 69


 3189              	.LVL468:
 3190 0080 FFF7FEFF 		bl	__aeabi_f2d
 3191              	.LVL469:
 3192 0084 8046     		mov	r8, r0
 3193 0086 8946     		mov	r9, r1
 3194              		.loc 1 434 60 view .LVU778
 3195 0088 0246     		mov	r2, r0
 3196 008a 0B46     		mov	r3, r1
 3197 008c DDE90801 		ldrd	r0, [sp, #32]
 3198 0090 FFF7FEFF 		bl	__aeabi_ddiv
 3199              	.LVL470:
 3200              		.loc 1 434 104 view .LVU779
 3201 0094 4246     		mov	r2, r8
 3202 0096 4B46     		mov	r3, r9
 3203 0098 FFF7FEFF 		bl	__aeabi_ddiv
 3204              	.LVL471:
 3205 009c 8046     		mov	r8, r0
 3206 009e 8946     		mov	r9, r1
 3207              		.loc 1 434 170 view .LVU780
 3208 00a0 0399     		ldr	r1, [sp, #12]	@ float
 3209 00a2 5046     		mov	r0, r10
 3210 00a4 FFF7FEFF 		bl	__aeabi_fadd
 3211              	.LVL472:
 3212 00a8 0146     		mov	r1, r0
 3213              		.loc 1 434 192 view .LVU781
 3214 00aa 0198     		ldr	r0, [sp, #4]	@ float
 3215 00ac FFF7FEFF 		bl	__aeabi_fmul
 3216              	.LVL473:
 3217 00b0 FFF7FEFF 		bl	__aeabi_f2d
 3218              	.LVL474:
 3219              		.loc 1 434 199 view .LVU782
 3220 00b4 0022     		movs	r2, #0
 3221 00b6 5F4B     		ldr	r3, .L180+12
 3222 00b8 FFF7FEFF 		bl	__aeabi_dmul
 3223              	.LVL475:
 3224 00bc 0246     		mov	r2, r0
 3225 00be 0B46     		mov	r3, r1
 3226              		.loc 1 434 148 view .LVU783
 3227 00c0 4046     		mov	r0, r8
 3228 00c2 4946     		mov	r1, r9
 3229 00c4 FFF7FEFF 		bl	__aeabi_dadd
 3230              	.LVL476:
 3231 00c8 8046     		mov	r8, r0
 3232 00ca 8946     		mov	r9, r1
 3233              		.loc 1 434 227 view .LVU784
 3234 00cc 2146     		mov	r1, r4
 3235 00ce 2846     		mov	r0, r5
 3236 00d0 FFF7FEFF 		bl	__aeabi_fadd
 3237              	.LVL477:
 3238 00d4 0146     		mov	r1, r0
 3239              		.loc 1 434 249 view .LVU785
 3240 00d6 0298     		ldr	r0, [sp, #8]	@ float
 3241 00d8 FFF7FEFF 		bl	__aeabi_fmul
 3242              	.LVL478:
 3243 00dc FFF7FEFF 		bl	__aeabi_f2d
 3244              	.LVL479:
 3245              		.loc 1 434 256 view .LVU786
ARM GAS  C:\Users\86183\AppData\Local\Temp\ccdSsS0f.s 			page 70


 3246 00e0 0022     		movs	r2, #0
 3247 00e2 544B     		ldr	r3, .L180+12
 3248 00e4 FFF7FEFF 		bl	__aeabi_dmul
 3249              	.LVL480:
 3250 00e8 0246     		mov	r2, r0
 3251 00ea 0B46     		mov	r3, r1
 3252              		.loc 1 434 205 view .LVU787
 3253 00ec 4046     		mov	r0, r8
 3254 00ee 4946     		mov	r1, r9
 3255 00f0 FFF7FEFF 		bl	__aeabi_dadd
 3256              	.LVL481:
 3257 00f4 FFF7FEFF 		bl	__aeabi_d2f
 3258              	.LVL482:
 3259 00f8 0446     		mov	r4, r0
 3260              		.loc 1 434 8 view .LVU788
 3261 00fa 0A90     		str	r0, [sp, #40]	@ float
 435:Core/Src/main.c ****   C[1] = 2.0e9 * (surveyData[i][2].I - surveyData[i][1].I) / (surveyData[i][2].I + surveyData[i][1]
 3262              		.loc 1 435 3 is_stmt 1 view .LVU789
 3263              		.loc 1 435 35 is_stmt 0 view .LVU790
 3264 00fc 3F6A     		ldr	r7, [r7, #32]	@ float
 3265              		.loc 1 435 38 view .LVU791
 3266 00fe 3146     		mov	r1, r6
 3267 0100 3846     		mov	r0, r7
 3268 0102 FFF7FEFF 		bl	__aeabi_fsub
 3269              	.LVL483:
 3270 0106 FFF7FEFF 		bl	__aeabi_f2d
 3271              	.LVL484:
 3272              		.loc 1 435 16 view .LVU792
 3273 010a 47A3     		adr	r3, .L180
 3274 010c D3E90023 		ldrd	r2, [r3]
 3275 0110 FFF7FEFF 		bl	__aeabi_dmul
 3276              	.LVL485:
 3277 0114 8046     		mov	r8, r0
 3278 0116 8946     		mov	r9, r1
 3279              		.loc 1 435 82 view .LVU793
 3280 0118 3946     		mov	r1, r7
 3281 011a 3046     		mov	r0, r6
 3282 011c FFF7FEFF 		bl	__aeabi_fadd
 3283              	.LVL486:
 3284 0120 FFF7FEFF 		bl	__aeabi_f2d
 3285              	.LVL487:
 3286 0124 0646     		mov	r6, r0
 3287 0126 0F46     		mov	r7, r1
 3288              		.loc 1 435 60 view .LVU794
 3289 0128 0246     		mov	r2, r0
 3290 012a 0B46     		mov	r3, r1
 3291 012c 4046     		mov	r0, r8
 3292 012e 4946     		mov	r1, r9
 3293 0130 FFF7FEFF 		bl	__aeabi_ddiv
 3294              	.LVL488:
 3295              		.loc 1 435 104 view .LVU795
 3296 0134 3246     		mov	r2, r6
 3297 0136 3B46     		mov	r3, r7
 3298 0138 FFF7FEFF 		bl	__aeabi_ddiv
 3299              	.LVL489:
 3300 013c 0646     		mov	r6, r0
 3301 013e 0F46     		mov	r7, r1
ARM GAS  C:\Users\86183\AppData\Local\Temp\ccdSsS0f.s 			page 71


 3302              		.loc 1 435 170 view .LVU796
 3303 0140 0499     		ldr	r1, [sp, #16]	@ float
 3304 0142 5046     		mov	r0, r10
 3305 0144 FFF7FEFF 		bl	__aeabi_fadd
 3306              	.LVL490:
 3307 0148 0146     		mov	r1, r0
 3308              		.loc 1 435 192 view .LVU797
 3309 014a DDF81890 		ldr	r9, [sp, #24]	@ float
 3310 014e 4846     		mov	r0, r9
 3311 0150 FFF7FEFF 		bl	__aeabi_fmul
 3312              	.LVL491:
 3313 0154 FFF7FEFF 		bl	__aeabi_f2d
 3314              	.LVL492:
 3315              		.loc 1 435 199 view .LVU798
 3316 0158 0022     		movs	r2, #0
 3317 015a 364B     		ldr	r3, .L180+12
 3318 015c FFF7FEFF 		bl	__aeabi_dmul
 3319              	.LVL493:
 3320 0160 0246     		mov	r2, r0
 3321 0162 0B46     		mov	r3, r1
 3322              		.loc 1 435 148 view .LVU799
 3323 0164 3046     		mov	r0, r6
 3324 0166 3946     		mov	r1, r7
 3325 0168 FFF7FEFF 		bl	__aeabi_dadd
 3326              	.LVL494:
 3327 016c 0646     		mov	r6, r0
 3328 016e 0F46     		mov	r7, r1
 3329              		.loc 1 435 227 view .LVU800
 3330 0170 0599     		ldr	r1, [sp, #20]	@ float
 3331 0172 2846     		mov	r0, r5
 3332 0174 FFF7FEFF 		bl	__aeabi_fadd
 3333              	.LVL495:
 3334 0178 0146     		mov	r1, r0
 3335              		.loc 1 435 249 view .LVU801
 3336 017a DDF81CA0 		ldr	r10, [sp, #28]	@ float
 3337 017e 5046     		mov	r0, r10
 3338 0180 FFF7FEFF 		bl	__aeabi_fmul
 3339              	.LVL496:
 3340 0184 FFF7FEFF 		bl	__aeabi_f2d
 3341              	.LVL497:
 3342              		.loc 1 435 256 view .LVU802
 3343 0188 0022     		movs	r2, #0
 3344 018a 2A4B     		ldr	r3, .L180+12
 3345 018c FFF7FEFF 		bl	__aeabi_dmul
 3346              	.LVL498:
 3347 0190 0246     		mov	r2, r0
 3348 0192 0B46     		mov	r3, r1
 3349              		.loc 1 435 205 view .LVU803
 3350 0194 3046     		mov	r0, r6
 3351 0196 3946     		mov	r1, r7
 3352 0198 FFF7FEFF 		bl	__aeabi_dadd
 3353              	.LVL499:
 3354 019c FFF7FEFF 		bl	__aeabi_d2f
 3355              	.LVL500:
 3356 01a0 0546     		mov	r5, r0
 3357              		.loc 1 435 8 view .LVU804
 3358 01a2 0B90     		str	r0, [sp, #44]	@ float
ARM GAS  C:\Users\86183\AppData\Local\Temp\ccdSsS0f.s 			page 72


 436:Core/Src/main.c ****   invdet = 1.0 / (A[0] * B[1] - A[1] * B[0]);
 3359              		.loc 1 436 3 is_stmt 1 view .LVU805
 3360              		.loc 1 436 24 is_stmt 0 view .LVU806
 3361 01a4 5746     		mov	r7, r10
 3362 01a6 5146     		mov	r1, r10
 3363 01a8 DDF80480 		ldr	r8, [sp, #4]	@ float
 3364 01ac 4046     		mov	r0, r8
 3365 01ae FFF7FEFF 		bl	__aeabi_fmul
 3366              	.LVL501:
 3367 01b2 0646     		mov	r6, r0
 3368              		.loc 1 436 38 view .LVU807
 3369 01b4 DDF808A0 		ldr	r10, [sp, #8]	@ float
 3370 01b8 5146     		mov	r1, r10
 3371 01ba 4846     		mov	r0, r9
 3372 01bc FFF7FEFF 		bl	__aeabi_fmul
 3373              	.LVL502:
 3374 01c0 0146     		mov	r1, r0
 3375              		.loc 1 436 31 view .LVU808
 3376 01c2 3046     		mov	r0, r6
 3377 01c4 FFF7FEFF 		bl	__aeabi_fsub
 3378              	.LVL503:
 3379 01c8 0146     		mov	r1, r0
 3380              		.loc 1 436 10 view .LVU809
 3381 01ca 4FF07E50 		mov	r0, #1065353216
 3382 01ce FFF7FEFF 		bl	__aeabi_fdiv
 3383              	.LVL504:
 3384 01d2 0646     		mov	r6, r0
 3385              	.LVL505:
 437:Core/Src/main.c ****   packageX[i] = (B[1] * C[0] - B[0] * C[1]) * invdet;
 3386              		.loc 1 437 3 is_stmt 1 view .LVU810
 3387              		.loc 1 437 23 is_stmt 0 view .LVU811
 3388 01d4 2146     		mov	r1, r4
 3389 01d6 3846     		mov	r0, r7
 3390              	.LVL506:
 3391              		.loc 1 437 23 view .LVU812
 3392 01d8 FFF7FEFF 		bl	__aeabi_fmul
 3393              	.LVL507:
 3394 01dc 0746     		mov	r7, r0
 3395              		.loc 1 437 37 view .LVU813
 3396 01de 2946     		mov	r1, r5
 3397 01e0 5046     		mov	r0, r10
 3398 01e2 FFF7FEFF 		bl	__aeabi_fmul
 3399              	.LVL508:
 3400 01e6 0146     		mov	r1, r0
 3401              		.loc 1 437 30 view .LVU814
 3402 01e8 3846     		mov	r0, r7
 3403 01ea FFF7FEFF 		bl	__aeabi_fsub
 3404              	.LVL509:
 3405              		.loc 1 437 45 view .LVU815
 3406 01ee 3146     		mov	r1, r6
 3407 01f0 FFF7FEFF 		bl	__aeabi_fmul
 3408              	.LVL510:
 3409              		.loc 1 437 15 view .LVU816
 3410 01f4 104B     		ldr	r3, .L180+16
 3411 01f6 43F82B00 		str	r0, [r3, fp, lsl #2]	@ float
 438:Core/Src/main.c ****   packageY[i] = (A[0] * C[1] - A[1] * C[0]) * invdet;
 3412              		.loc 1 438 3 is_stmt 1 view .LVU817
ARM GAS  C:\Users\86183\AppData\Local\Temp\ccdSsS0f.s 			page 73


 3413              		.loc 1 438 23 is_stmt 0 view .LVU818
 3414 01fa 2946     		mov	r1, r5
 3415 01fc 4046     		mov	r0, r8
 3416 01fe FFF7FEFF 		bl	__aeabi_fmul
 3417              	.LVL511:
 3418 0202 0546     		mov	r5, r0
 3419              		.loc 1 438 37 view .LVU819
 3420 0204 2146     		mov	r1, r4
 3421 0206 4846     		mov	r0, r9
 3422 0208 FFF7FEFF 		bl	__aeabi_fmul
 3423              	.LVL512:
 3424 020c 0146     		mov	r1, r0
 3425              		.loc 1 438 30 view .LVU820
 3426 020e 2846     		mov	r0, r5
 3427 0210 FFF7FEFF 		bl	__aeabi_fsub
 3428              	.LVL513:
 3429              		.loc 1 438 45 view .LVU821
 3430 0214 3146     		mov	r1, r6
 3431 0216 FFF7FEFF 		bl	__aeabi_fmul
 3432              	.LVL514:
 3433              		.loc 1 438 15 view .LVU822
 3434 021a 084B     		ldr	r3, .L180+20
 3435 021c 43F82B00 		str	r0, [r3, fp, lsl #2]	@ float
 439:Core/Src/main.c **** }
 3436              		.loc 1 439 1 view .LVU823
 3437 0220 11B0     		add	sp, sp, #68
 3438              	.LCFI19:
 3439              		.cfi_def_cfa_offset 36
 3440              		@ sp needed
 3441 0222 BDE8F08F 		pop	{r4, r5, r6, r7, r8, r9, r10, fp, pc}
 3442              	.LVL515:
 3443              	.L181:
 3444              		.loc 1 439 1 view .LVU824
 3445 0226 00BF     		.align	3
 3446              	.L180:
 3447 0228 00000000 		.word	0
 3448 022c 65CDDD41 		.word	1105055077
 3449 0230 00000000 		.word	.LANCHOR10
 3450 0234 0000E03F 		.word	1071644672
 3451 0238 00000000 		.word	.LANCHOR11
 3452 023c 00000000 		.word	.LANCHOR12
 3453              		.cfi_endproc
 3454              	.LFE79:
 3456              		.section	.text.survey,"ax",%progbits
 3457              		.align	1
 3458              		.global	survey
 3459              		.syntax unified
 3460              		.thumb
 3461              		.thumb_func
 3462              		.fpu softvfp
 3464              	survey:
 3465              	.LFB80:
 440:Core/Src/main.c **** 
 441:Core/Src/main.c **** void survey()
 442:Core/Src/main.c **** {
 3466              		.loc 1 442 1 is_stmt 1 view -0
 3467              		.cfi_startproc
ARM GAS  C:\Users\86183\AppData\Local\Temp\ccdSsS0f.s 			page 74


 3468              		@ args = 0, pretend = 0, frame = 16
 3469              		@ frame_needed = 0, uses_anonymous_args = 0
 3470 0000 2DE9F043 		push	{r4, r5, r6, r7, r8, r9, lr}
 3471              	.LCFI20:
 3472              		.cfi_def_cfa_offset 28
 3473              		.cfi_offset 4, -28
 3474              		.cfi_offset 5, -24
 3475              		.cfi_offset 6, -20
 3476              		.cfi_offset 7, -16
 3477              		.cfi_offset 8, -12
 3478              		.cfi_offset 9, -8
 3479              		.cfi_offset 14, -4
 3480 0004 85B0     		sub	sp, sp, #20
 3481              	.LCFI21:
 3482              		.cfi_def_cfa_offset 48
 443:Core/Src/main.c ****   struct MYCOORD coord = surveyGetCarPos();
 3483              		.loc 1 443 3 view .LVU826
 3484              		.loc 1 443 26 is_stmt 0 view .LVU827
 3485 0006 01A8     		add	r0, sp, #4
 3486 0008 FFF7FEFF 		bl	surveyGetCarPos
 3487              	.LVL516:
 444:Core/Src/main.c ****   if(coord.I < -0.5)
 3488              		.loc 1 444 3 is_stmt 1 view .LVU828
 3489              		.loc 1 444 5 is_stmt 0 view .LVU829
 3490 000c 4FF03F41 		mov	r1, #-1090519040
 3491 0010 0398     		ldr	r0, [sp, #12]	@ float
 3492 0012 FFF7FEFF 		bl	__aeabi_fcmplt
 3493              	.LVL517:
 3494 0016 0028     		cmp	r0, #0
 3495 0018 40F09E80 		bne	.L182
 3496              	.LBB28:
 445:Core/Src/main.c ****     return;
 446:Core/Src/main.c ****   for (int i = 0; i < 2; i++)
 3497              		.loc 1 446 12 view .LVU830
 3498 001c 0024     		movs	r4, #0
 3499 001e 14E0     		b	.L183
 3500              	.LVL518:
 3501              	.L198:
 447:Core/Src/main.c ****   {
 448:Core/Src/main.c ****     if (surveyDataCount[i] == 0)
 449:Core/Src/main.c ****     {
 450:Core/Src/main.c ****       surveyData[i][0] = coord;
 3502              		.loc 1 450 7 is_stmt 1 view .LVU831
 3503              		.loc 1 450 24 is_stmt 0 view .LVU832
 3504 0020 04EBC405 		add	r5, r4, r4, lsl #3
 3505 0024 4E4B     		ldr	r3, .L200
 3506 0026 03EB8505 		add	r5, r3, r5, lsl #2
 3507 002a 04AB     		add	r3, sp, #16
 3508 002c 13E90700 		ldmdb	r3, {r0, r1, r2}
 3509 0030 85E80700 		stm	r5, {r0, r1, r2}
 451:Core/Src/main.c ****       surveyData[i][0].I = getMineIntensity(i);
 3510              		.loc 1 451 7 is_stmt 1 view .LVU833
 3511              		.loc 1 451 28 is_stmt 0 view .LVU834
 3512 0034 2046     		mov	r0, r4
 3513 0036 FFF7FEFF 		bl	getMineIntensity
 3514              	.LVL519:
 3515              		.loc 1 451 26 view .LVU835
ARM GAS  C:\Users\86183\AppData\Local\Temp\ccdSsS0f.s 			page 75


 3516 003a FFF7FEFF 		bl	__aeabi_ui2f
 3517              	.LVL520:
 3518 003e A860     		str	r0, [r5, #8]	@ float
 452:Core/Src/main.c ****       surveyDataCount[i] = 1;
 3519              		.loc 1 452 7 is_stmt 1 view .LVU836
 3520              		.loc 1 452 26 is_stmt 0 view .LVU837
 3521 0040 484B     		ldr	r3, .L200+4
 3522 0042 0122     		movs	r2, #1
 3523 0044 43F82420 		str	r2, [r3, r4, lsl #2]
 3524              	.L187:
 446:Core/Src/main.c ****   {
 3525              		.loc 1 446 26 is_stmt 1 discriminator 2 view .LVU838
 446:Core/Src/main.c ****   {
 3526              		.loc 1 446 27 is_stmt 0 discriminator 2 view .LVU839
 3527 0048 0134     		adds	r4, r4, #1
 3528              	.LVL521:
 3529              	.L183:
 446:Core/Src/main.c ****   {
 3530              		.loc 1 446 19 is_stmt 1 discriminator 1 view .LVU840
 446:Core/Src/main.c ****   {
 3531              		.loc 1 446 3 is_stmt 0 discriminator 1 view .LVU841
 3532 004a 012C     		cmp	r4, #1
 3533 004c 76DC     		bgt	.L197
 448:Core/Src/main.c ****     {
 3534              		.loc 1 448 5 is_stmt 1 view .LVU842
 448:Core/Src/main.c ****     {
 3535              		.loc 1 448 24 is_stmt 0 view .LVU843
 3536 004e 454B     		ldr	r3, .L200+4
 3537 0050 53F82430 		ldr	r3, [r3, r4, lsl #2]
 448:Core/Src/main.c ****     {
 3538              		.loc 1 448 8 view .LVU844
 3539 0054 002B     		cmp	r3, #0
 3540 0056 E3D0     		beq	.L198
 453:Core/Src/main.c ****     }
 454:Core/Src/main.c ****     else if (surveyDataCount[i] == 1)
 3541              		.loc 1 454 10 is_stmt 1 view .LVU845
 3542              		.loc 1 454 13 is_stmt 0 view .LVU846
 3543 0058 012B     		cmp	r3, #1
 3544 005a 3DD0     		beq	.L199
 455:Core/Src/main.c ****     {
 456:Core/Src/main.c ****       if((int)coord.x == (int)surveyData[i][0].x && (int)coord.y == (int)surveyData[i][0].y)
 457:Core/Src/main.c ****         continue;
 458:Core/Src/main.c ****       surveyData[i][1] = coord;
 459:Core/Src/main.c ****       surveyData[i][1].I = getMineIntensity(i);
 460:Core/Src/main.c ****       surveyDataCount[i] = 2;
 461:Core/Src/main.c ****     }
 462:Core/Src/main.c ****     else if (surveyDataCount[i] == 2)
 3545              		.loc 1 462 10 is_stmt 1 view .LVU847
 3546              		.loc 1 462 13 is_stmt 0 view .LVU848
 3547 005c 022B     		cmp	r3, #2
 3548 005e F3D1     		bne	.L187
 463:Core/Src/main.c ****     {
 464:Core/Src/main.c ****       if (((int)surveyData[i][1].x - (int)surveyData[i][0].x) * ((int)coord.y - (int)surveyData[i][
 3549              		.loc 1 464 7 is_stmt 1 view .LVU849
 3550              		.loc 1 464 33 is_stmt 0 view .LVU850
 3551 0060 3F4E     		ldr	r6, .L200
 3552 0062 04EBC407 		add	r7, r4, r4, lsl #3
ARM GAS  C:\Users\86183\AppData\Local\Temp\ccdSsS0f.s 			page 76


 3553 0066 4FEA8708 		lsl	r8, r7, #2
 3554 006a 06EB8707 		add	r7, r6, r7, lsl #2
 3555              		.loc 1 464 12 view .LVU851
 3556 006e F868     		ldr	r0, [r7, #12]	@ float
 3557 0070 FFF7FEFF 		bl	__aeabi_f2iz
 3558              	.LVL522:
 3559 0074 0546     		mov	r5, r0
 3560              		.loc 1 464 38 view .LVU852
 3561 0076 56F80800 		ldr	r0, [r6, r8]	@ float
 3562 007a FFF7FEFF 		bl	__aeabi_f2iz
 3563              	.LVL523:
 3564 007e 0646     		mov	r6, r0
 3565              		.loc 1 464 36 view .LVU853
 3566 0080 2D1A     		subs	r5, r5, r0
 3567              		.loc 1 464 66 view .LVU854
 3568 0082 0298     		ldr	r0, [sp, #8]	@ float
 3569 0084 FFF7FEFF 		bl	__aeabi_f2iz
 3570              	.LVL524:
 3571 0088 8046     		mov	r8, r0
 3572              		.loc 1 464 81 view .LVU855
 3573 008a 7868     		ldr	r0, [r7, #4]	@ float
 3574 008c FFF7FEFF 		bl	__aeabi_f2iz
 3575              	.LVL525:
 3576 0090 8146     		mov	r9, r0
 3577              		.loc 1 464 79 view .LVU856
 3578 0092 A8EB0008 		sub	r8, r8, r0
 3579              		.loc 1 464 63 view .LVU857
 3580 0096 08FB05F5 		mul	r5, r8, r5
 3581              		.loc 1 464 109 view .LVU858
 3582 009a 0198     		ldr	r0, [sp, #4]	@ float
 3583 009c FFF7FEFF 		bl	__aeabi_f2iz
 3584              	.LVL526:
 3585              		.loc 1 464 122 view .LVU859
 3586 00a0 861B     		subs	r6, r0, r6
 3587              		.loc 1 464 152 view .LVU860
 3588 00a2 3869     		ldr	r0, [r7, #16]	@ float
 3589 00a4 FFF7FEFF 		bl	__aeabi_f2iz
 3590              	.LVL527:
 3591              		.loc 1 464 176 view .LVU861
 3592 00a8 A0EB0909 		sub	r9, r0, r9
 3593              		.loc 1 464 149 view .LVU862
 3594 00ac 09FB06F6 		mul	r6, r9, r6
 3595              		.loc 1 464 10 view .LVU863
 3596 00b0 B542     		cmp	r5, r6
 3597 00b2 C9D0     		beq	.L187
 465:Core/Src/main.c ****         continue;
 466:Core/Src/main.c ****       surveyData[i][2] = coord;
 3598              		.loc 1 466 7 is_stmt 1 view .LVU864
 3599              		.loc 1 466 24 is_stmt 0 view .LVU865
 3600 00b4 07F11803 		add	r3, r7, #24
 3601 00b8 04AA     		add	r2, sp, #16
 3602 00ba 12E90700 		ldmdb	r2, {r0, r1, r2}
 3603 00be 83E80700 		stm	r3, {r0, r1, r2}
 467:Core/Src/main.c ****       surveyData[i][2].I = getMineIntensity(i);
 3604              		.loc 1 467 7 is_stmt 1 view .LVU866
 3605              		.loc 1 467 28 is_stmt 0 view .LVU867
 3606 00c2 2046     		mov	r0, r4
ARM GAS  C:\Users\86183\AppData\Local\Temp\ccdSsS0f.s 			page 77


 3607 00c4 FFF7FEFF 		bl	getMineIntensity
 3608              	.LVL528:
 3609              		.loc 1 467 26 view .LVU868
 3610 00c8 FFF7FEFF 		bl	__aeabi_ui2f
 3611              	.LVL529:
 3612 00cc 3862     		str	r0, [r7, #32]	@ float
 468:Core/Src/main.c ****       surveyDataCount[i] = 3;
 3613              		.loc 1 468 7 is_stmt 1 view .LVU869
 3614              		.loc 1 468 26 is_stmt 0 view .LVU870
 3615 00ce 254B     		ldr	r3, .L200+4
 3616 00d0 0322     		movs	r2, #3
 3617 00d2 43F82420 		str	r2, [r3, r4, lsl #2]
 3618 00d6 B7E7     		b	.L187
 3619              	.L199:
 456:Core/Src/main.c ****         continue;
 3620              		.loc 1 456 7 is_stmt 1 view .LVU871
 456:Core/Src/main.c ****         continue;
 3621              		.loc 1 456 10 is_stmt 0 view .LVU872
 3622 00d8 0198     		ldr	r0, [sp, #4]	@ float
 3623 00da FFF7FEFF 		bl	__aeabi_f2iz
 3624              	.LVL530:
 3625 00de 0546     		mov	r5, r0
 456:Core/Src/main.c ****         continue;
 3626              		.loc 1 456 47 view .LVU873
 3627 00e0 04EBC403 		add	r3, r4, r4, lsl #3
 456:Core/Src/main.c ****         continue;
 3628              		.loc 1 456 26 view .LVU874
 3629 00e4 1E4A     		ldr	r2, .L200
 3630 00e6 52F82300 		ldr	r0, [r2, r3, lsl #2]	@ float
 3631 00ea FFF7FEFF 		bl	__aeabi_f2iz
 3632              	.LVL531:
 456:Core/Src/main.c ****         continue;
 3633              		.loc 1 456 9 view .LVU875
 3634 00ee 8542     		cmp	r5, r0
 3635 00f0 0DD1     		bne	.L189
 456:Core/Src/main.c ****         continue;
 3636              		.loc 1 456 53 discriminator 1 view .LVU876
 3637 00f2 0298     		ldr	r0, [sp, #8]	@ float
 3638 00f4 FFF7FEFF 		bl	__aeabi_f2iz
 3639              	.LVL532:
 3640 00f8 0546     		mov	r5, r0
 456:Core/Src/main.c ****         continue;
 3641              		.loc 1 456 90 discriminator 1 view .LVU877
 3642 00fa 04EBC403 		add	r3, r4, r4, lsl #3
 3643 00fe 184A     		ldr	r2, .L200
 3644 0100 02EB8303 		add	r3, r2, r3, lsl #2
 456:Core/Src/main.c ****         continue;
 3645              		.loc 1 456 69 discriminator 1 view .LVU878
 3646 0104 5868     		ldr	r0, [r3, #4]	@ float
 3647 0106 FFF7FEFF 		bl	__aeabi_f2iz
 3648              	.LVL533:
 456:Core/Src/main.c ****         continue;
 3649              		.loc 1 456 50 discriminator 1 view .LVU879
 3650 010a 8542     		cmp	r5, r0
 3651 010c 9CD0     		beq	.L187
 3652              	.L189:
 458:Core/Src/main.c ****       surveyData[i][1].I = getMineIntensity(i);
ARM GAS  C:\Users\86183\AppData\Local\Temp\ccdSsS0f.s 			page 78


 3653              		.loc 1 458 7 is_stmt 1 view .LVU880
 458:Core/Src/main.c ****       surveyData[i][1].I = getMineIntensity(i);
 3654              		.loc 1 458 24 is_stmt 0 view .LVU881
 3655 010e 04EBC405 		add	r5, r4, r4, lsl #3
 3656 0112 134B     		ldr	r3, .L200
 3657 0114 03EB8505 		add	r5, r3, r5, lsl #2
 3658 0118 05F10C03 		add	r3, r5, #12
 3659 011c 04AA     		add	r2, sp, #16
 3660 011e 12E90700 		ldmdb	r2, {r0, r1, r2}
 3661 0122 83E80700 		stm	r3, {r0, r1, r2}
 459:Core/Src/main.c ****       surveyDataCount[i] = 2;
 3662              		.loc 1 459 7 is_stmt 1 view .LVU882
 459:Core/Src/main.c ****       surveyDataCount[i] = 2;
 3663              		.loc 1 459 28 is_stmt 0 view .LVU883
 3664 0126 2046     		mov	r0, r4
 3665 0128 FFF7FEFF 		bl	getMineIntensity
 3666              	.LVL534:
 459:Core/Src/main.c ****       surveyDataCount[i] = 2;
 3667              		.loc 1 459 26 view .LVU884
 3668 012c FFF7FEFF 		bl	__aeabi_ui2f
 3669              	.LVL535:
 3670 0130 6861     		str	r0, [r5, #20]	@ float
 460:Core/Src/main.c ****     }
 3671              		.loc 1 460 7 is_stmt 1 view .LVU885
 460:Core/Src/main.c ****     }
 3672              		.loc 1 460 26 is_stmt 0 view .LVU886
 3673 0132 0C4B     		ldr	r3, .L200+4
 3674 0134 0222     		movs	r2, #2
 3675 0136 43F82420 		str	r2, [r3, r4, lsl #2]
 3676 013a 85E7     		b	.L187
 3677              	.L197:
 460:Core/Src/main.c ****     }
 3678              		.loc 1 460 26 view .LVU887
 3679              	.LBE28:
 3680              	.LBB29:
 469:Core/Src/main.c ****     }
 470:Core/Src/main.c ****     else if (surveyDataCount[i] == 3)
 471:Core/Src/main.c ****     {
 472:Core/Src/main.c ****       continue;
 473:Core/Src/main.c ****     }
 474:Core/Src/main.c ****     else if (surveyDataCount[i] == 4)
 475:Core/Src/main.c ****       continue;
 476:Core/Src/main.c ****   }
 477:Core/Src/main.c ****   for (int i = 0; i < 2; i++)
 3681              		.loc 1 477 12 view .LVU888
 3682 013c 0024     		movs	r4, #0
 3683              	.LVL536:
 3684              		.loc 1 477 12 view .LVU889
 3685 013e 00E0     		b	.L191
 3686              	.LVL537:
 3687              	.L192:
 3688              		.loc 1 477 26 is_stmt 1 discriminator 2 view .LVU890
 3689              		.loc 1 477 27 is_stmt 0 discriminator 2 view .LVU891
 3690 0140 0134     		adds	r4, r4, #1
 3691              	.LVL538:
 3692              	.L191:
 3693              		.loc 1 477 19 is_stmt 1 discriminator 1 view .LVU892
ARM GAS  C:\Users\86183\AppData\Local\Temp\ccdSsS0f.s 			page 79


 3694              		.loc 1 477 3 is_stmt 0 discriminator 1 view .LVU893
 3695 0142 012C     		cmp	r4, #1
 3696 0144 08DC     		bgt	.L182
 478:Core/Src/main.c ****     if(surveyDataCount[i] == 3)
 3697              		.loc 1 478 5 is_stmt 1 view .LVU894
 3698              		.loc 1 478 23 is_stmt 0 view .LVU895
 3699 0146 074B     		ldr	r3, .L200+4
 3700 0148 53F82430 		ldr	r3, [r3, r4, lsl #2]
 3701              		.loc 1 478 7 view .LVU896
 3702 014c 032B     		cmp	r3, #3
 3703 014e F7D1     		bne	.L192
 479:Core/Src/main.c ****     {
 480:Core/Src/main.c ****       Calculate_Package_Position(i);
 3704              		.loc 1 480 7 is_stmt 1 view .LVU897
 3705 0150 2046     		mov	r0, r4
 3706 0152 FFF7FEFF 		bl	Calculate_Package_Position
 3707              	.LVL539:
 3708 0156 F3E7     		b	.L192
 3709              	.LVL540:
 3710              	.L182:
 3711              		.loc 1 480 7 is_stmt 0 view .LVU898
 3712              	.LBE29:
 481:Core/Src/main.c ****     }
 482:Core/Src/main.c **** }
 3713              		.loc 1 482 1 view .LVU899
 3714 0158 05B0     		add	sp, sp, #20
 3715              	.LCFI22:
 3716              		.cfi_def_cfa_offset 28
 3717              		@ sp needed
 3718 015a BDE8F083 		pop	{r4, r5, r6, r7, r8, r9, pc}
 3719              	.L201:
 3720 015e 00BF     		.align	2
 3721              	.L200:
 3722 0160 00000000 		.word	.LANCHOR10
 3723 0164 00000000 		.word	.LANCHOR13
 3724              		.cfi_endproc
 3725              	.LFE80:
 3727              		.section	.text.Set_Beacon,"ax",%progbits
 3728              		.align	1
 3729              		.global	Set_Beacon
 3730              		.syntax unified
 3731              		.thumb
 3732              		.thumb_func
 3733              		.fpu softvfp
 3735              	Set_Beacon:
 3736              	.LFB83:
 483:Core/Src/main.c **** 
 484:Core/Src/main.c **** // void MoveTo(float x, float y)
 485:Core/Src/main.c **** // {
 486:Core/Src/main.c **** //   float TurningCoefficient = 1; //调参
 487:Core/Src/main.c **** //   uint16_t errX = x - getCarPosX();
 488:Core/Src/main.c **** //   uint16_t errY = y - getCarPosY();
 489:Core/Src/main.c **** //   float targetAngle = (float)atan2(errY, errX) * 57.296, errAngle, velosity = 20;
 490:Core/Src/main.c **** //   targetAngle = Add_Angle(targetAngle, absoluteAngle - angle0);
 491:Core/Src/main.c **** //   Turn(targetAngle);
 492:Core/Src/main.c **** //   Set_Left_Direction(1);
 493:Core/Src/main.c **** //   Set_Right_Direction(1);
ARM GAS  C:\Users\86183\AppData\Local\Temp\ccdSsS0f.s 			page 80


 494:Core/Src/main.c **** //   for (int i = 0; i < 4; i++)
 495:Core/Src/main.c **** //     Set_Speed(10, i);
 496:Core/Src/main.c **** //   while (1)
 497:Core/Src/main.c **** //   {
 498:Core/Src/main.c **** //     if (x * x + y * y < 25) //调参
 499:Core/Src/main.c **** //       break;
 500:Core/Src/main.c **** //     if (x * x + y * y < 200) //调参
 501:Core/Src/main.c **** //       velosity = 5;          //调参
 502:Core/Src/main.c **** //     errX = x - getCarPosX();
 503:Core/Src/main.c **** //     errY = y - getCarPosY();
 504:Core/Src/main.c **** //     errAngle = Add_Angle(atan2(errY, errX), absoluteAngle - GetYaw());
 505:Core/Src/main.c **** //     Set_Speed(velosity + TurningCoefficient * errAngle, 0);
 506:Core/Src/main.c **** //     Set_Speed(velosity + TurningCoefficient * errAngle, 1);
 507:Core/Src/main.c **** //     Set_Speed(velosity - TurningCoefficient * errAngle, 2);
 508:Core/Src/main.c **** //     Set_Speed(velosity - TurningCoefficient * errAngle, 3);
 509:Core/Src/main.c **** //   }
 510:Core/Src/main.c **** //   Set_Left_Direction(0);
 511:Core/Src/main.c **** //   Set_Right_Direction(0);
 512:Core/Src/main.c **** //   angle0 = GetYaw();
 513:Core/Src/main.c **** // }
 514:Core/Src/main.c **** 
 515:Core/Src/main.c **** // void MoveTo(float x, float y, uint16_t _mineType)
 516:Core/Src/main.c **** // {
 517:Core/Src/main.c **** //   if (x < 7 || x > 248 || y < 7 || y > 248)
 518:Core/Src/main.c **** //     return;
 519:Core/Src/main.c **** //   float velocity;
 520:Core/Src/main.c **** //   float errX = x - userGetCarPosX();
 521:Core/Src/main.c **** //   float errY = y - userGetCarPosY();
 522:Core/Src/main.c **** //   float targetAngle = 0, difference = sqrt(errX * errX + errY * errY);
 523:Core/Src/main.c **** //   clearDistance();
 524:Core/Src/main.c **** //   int flag = 0;
 525:Core/Src/main.c **** //   if (STATE == (uint8_t)GET_PACKAGE)
 526:Core/Src/main.c **** //     flag = getCarMineSumNum();
 527:Core/Src/main.c **** //   while (difference > 5)
 528:Core/Src/main.c **** //   {
 529:Core/Src/main.c **** //     if (STATE == (uint8_t)GET_PACKAGE && flag < getCarMineSumNum())
 530:Core/Src/main.c **** //       break;
 531:Core/Src/main.c **** //     else if (STATE == (uint8_t)SET_BEACON && difference < 15)
 532:Core/Src/main.c **** //       break;
 533:Core/Src/main.c **** //     if (difference < 10)
 534:Core/Src/main.c **** //       velocity = 3;
 535:Core/Src/main.c **** //     else if (difference < 20)
 536:Core/Src/main.c **** //       velocity = 7;
 537:Core/Src/main.c **** //     else if (difference < 30)
 538:Core/Src/main.c **** //       velocity = 10;
 539:Core/Src/main.c **** //     else if (difference < 50)
 540:Core/Src/main.c **** //     {
 541:Core/Src/main.c **** //       if (STATE == (uint8_t)PUT_PACKAGE)
 542:Core/Src/main.c **** //         velocity = 13;
 543:Core/Src/main.c **** //       else
 544:Core/Src/main.c **** //         velocity = 17;
 545:Core/Src/main.c **** //     }
 546:Core/Src/main.c **** //     else if (difference < 100)
 547:Core/Src/main.c **** //     {
 548:Core/Src/main.c **** //       if (STATE == (uint8_t)PUT_PACKAGE)
 549:Core/Src/main.c **** //         velocity = 17;
 550:Core/Src/main.c **** //       else
ARM GAS  C:\Users\86183\AppData\Local\Temp\ccdSsS0f.s 			page 81


 551:Core/Src/main.c **** //         velocity = 23;
 552:Core/Src/main.c **** //     }
 553:Core/Src/main.c **** //     else
 554:Core/Src/main.c **** //     {
 555:Core/Src/main.c **** //       if (STATE == (uint8_t)PUT_PACKAGE)
 556:Core/Src/main.c **** //         velocity = 20;
 557:Core/Src/main.c **** //       else
 558:Core/Src/main.c **** //         velocity = 27;
 559:Core/Src/main.c **** //     }
 560:Core/Src/main.c **** //     angle0 = GetYaw();
 561:Core/Src/main.c **** //     targetAngle = Add_Angle(atan2(errX, errY) * 57.296, absoluteAngle - angle0);
 562:Core/Src/main.c **** //     Turn(targetAngle);
 563:Core/Src/main.c **** //     clearDistance();
 564:Core/Src/main.c **** //     Set_Left_Direction(1);
 565:Core/Src/main.c **** //     Set_Right_Direction(1);
 566:Core/Src/main.c **** //     for (int i = 0; i < 4; i++)
 567:Core/Src/main.c **** //       Set_Speed(velocity, i);
 568:Core/Src/main.c **** //     while (getDistance() < 0.70 * difference)
 569:Core/Src/main.c **** //     {
 570:Core/Src/main.c **** //       HAL_Delay(20);
 571:Core/Src/main.c **** //       if (STATE == (uint8_t)GET_PACKAGE && flag < getCarMineSumNum())
 572:Core/Src/main.c **** //         break;
 573:Core/Src/main.c **** //     }
 574:Core/Src/main.c **** //     Set_Left_Direction(0);
 575:Core/Src/main.c **** //     Set_Right_Direction(0);
 576:Core/Src/main.c **** //     HAL_Delay(400);
 577:Core/Src/main.c **** //     // while (STATE == (uint8_t)PUT_PACKAGE && userGetMineNum(_mineType) != 0)
 578:Core/Src/main.c **** //     //   HAL_Delay(100);
 579:Core/Src/main.c **** //     errX = x - userGetCarPosX();
 580:Core/Src/main.c **** //     errY = y - userGetCarPosY();
 581:Core/Src/main.c **** //     difference = sqrt(errX * errX + errY * errY);
 582:Core/Src/main.c **** //   }
 583:Core/Src/main.c **** // }
 584:Core/Src/main.c **** void Set_RF_Direction(int direction);
 585:Core/Src/main.c **** void Set_LF_Direction(int direction);
 586:Core/Src/main.c **** 
 587:Core/Src/main.c **** void Move(float velocity, float angle)
 588:Core/Src/main.c **** {
 589:Core/Src/main.c ****   angle *= 2 * 3.14159 / 360;
 590:Core/Src/main.c ****   angle += 0.785398;
 591:Core/Src/main.c ****   float v1, v2;
 592:Core/Src/main.c ****   v1 = velocity * cos(angle);
 593:Core/Src/main.c ****   v2 = velocity * sin(angle);
 594:Core/Src/main.c ****   if (v1 >= 0)
 595:Core/Src/main.c ****   {
 596:Core/Src/main.c ****     Set_LF_Direction(1);
 597:Core/Src/main.c ****     Set_Speed(v1, 0);
 598:Core/Src/main.c ****     Set_Speed(v1, 2);
 599:Core/Src/main.c ****   }
 600:Core/Src/main.c ****   else
 601:Core/Src/main.c ****   {
 602:Core/Src/main.c ****     Set_LF_Direction(-1);
 603:Core/Src/main.c ****     Set_Speed(-v1, 0);
 604:Core/Src/main.c ****     Set_Speed(-v1, 2);
 605:Core/Src/main.c ****   }
 606:Core/Src/main.c **** 
 607:Core/Src/main.c ****   if (v2 >= 0)
ARM GAS  C:\Users\86183\AppData\Local\Temp\ccdSsS0f.s 			page 82


 608:Core/Src/main.c ****   {
 609:Core/Src/main.c ****     Set_RF_Direction(1);
 610:Core/Src/main.c ****     Set_Speed(v2, 1);
 611:Core/Src/main.c ****     Set_Speed(v2, 3);
 612:Core/Src/main.c ****   }
 613:Core/Src/main.c ****   else
 614:Core/Src/main.c ****   {
 615:Core/Src/main.c ****     Set_RF_Direction(-1);
 616:Core/Src/main.c ****     Set_Speed(-v2, 1);
 617:Core/Src/main.c ****     Set_Speed(-v2, 3);
 618:Core/Src/main.c ****   }
 619:Core/Src/main.c **** }
 620:Core/Src/main.c **** 
 621:Core/Src/main.c **** void MoveTo(float x, float y, uint16_t _mineType)
 622:Core/Src/main.c **** {
 623:Core/Src/main.c ****   if (x < 7 || x > 248 || y < 7 || y > 248)
 624:Core/Src/main.c ****     return;
 625:Core/Src/main.c ****   float velocity;
 626:Core/Src/main.c ****   struct MYCOORD coord = userGetCarPos();
 627:Core/Src/main.c ****   float errX = x - coord.x;
 628:Core/Src/main.c ****   float errY = y - coord.y;
 629:Core/Src/main.c ****   float targetAngle = 0, difference = sqrt(errX * errX + errY * errY);
 630:Core/Src/main.c ****   clearDistance();
 631:Core/Src/main.c ****   int flag = 0;
 632:Core/Src/main.c ****   if (STATE == (uint8_t)GET_PACKAGE)
 633:Core/Src/main.c ****     flag = getCarMineSumNum();
 634:Core/Src/main.c ****   while (difference > 3)
 635:Core/Src/main.c ****   {
 636:Core/Src/main.c ****     clearDistance();
 637:Core/Src/main.c ****     if (STATE == (uint8_t)GET_PACKAGE && flag < getCarMineSumNum())
 638:Core/Src/main.c ****       break;
 639:Core/Src/main.c ****     else if (STATE == (uint8_t)SET_BEACON && difference < 15)
 640:Core/Src/main.c ****       break;
 641:Core/Src/main.c ****     if (difference < 10)
 642:Core/Src/main.c ****       velocity = 3;
 643:Core/Src/main.c ****     else if (difference < 20)
 644:Core/Src/main.c ****       velocity = 7;
 645:Core/Src/main.c ****     else if (difference < 30)
 646:Core/Src/main.c ****       velocity = 10;
 647:Core/Src/main.c ****     else if (difference < 50)
 648:Core/Src/main.c ****     {
 649:Core/Src/main.c ****       if (STATE == (uint8_t)PUT_PACKAGE)
 650:Core/Src/main.c ****         velocity = 13;
 651:Core/Src/main.c ****       else
 652:Core/Src/main.c ****         velocity = 17;
 653:Core/Src/main.c ****     }
 654:Core/Src/main.c ****     else if (difference < 100)
 655:Core/Src/main.c ****     {
 656:Core/Src/main.c ****       if (STATE == (uint8_t)PUT_PACKAGE)
 657:Core/Src/main.c ****         velocity = 17;
 658:Core/Src/main.c ****       else
 659:Core/Src/main.c ****         velocity = 23;
 660:Core/Src/main.c ****     }
 661:Core/Src/main.c ****     else
 662:Core/Src/main.c ****     {
 663:Core/Src/main.c ****       if (STATE == (uint8_t)PUT_PACKAGE)
 664:Core/Src/main.c ****         velocity = 20;
ARM GAS  C:\Users\86183\AppData\Local\Temp\ccdSsS0f.s 			page 83


 665:Core/Src/main.c ****       else
 666:Core/Src/main.c ****         velocity = 27;
 667:Core/Src/main.c ****     }
 668:Core/Src/main.c **** 
 669:Core/Src/main.c ****     targetAngle = atan2(errX, errY) * 57.296 + absoluteAngle - GetYaw();
 670:Core/Src/main.c ****     Move(velocity, targetAngle);
 671:Core/Src/main.c **** 
 672:Core/Src/main.c ****     while (getDistance() < 0.70 * difference)
 673:Core/Src/main.c ****     {
 674:Core/Src/main.c ****       HAL_Delay(20);
 675:Core/Src/main.c ****       if (STATE == (uint8_t)GET_PACKAGE && flag < getCarMineSumNum())
 676:Core/Src/main.c ****         break;
 677:Core/Src/main.c ****     }
 678:Core/Src/main.c **** 
 679:Core/Src/main.c ****     Set_LF_Direction(0);
 680:Core/Src/main.c ****     Set_RF_Direction(0);
 681:Core/Src/main.c ****     HAL_Delay(200);
 682:Core/Src/main.c ****     // while (STATE == (uint8_t)PUT_PACKAGE && userGetMineNum(_mineType) != 0)
 683:Core/Src/main.c ****     //   HAL_Delay(100);
 684:Core/Src/main.c ****     coord = userGetCarPos();
 685:Core/Src/main.c ****     errX = x - coord.x;
 686:Core/Src/main.c ****     errY = y - coord.y;
 687:Core/Src/main.c ****     difference = sqrt(errX * errX + errY * errY);
 688:Core/Src/main.c ****   }
 689:Core/Src/main.c **** }
 690:Core/Src/main.c **** 
 691:Core/Src/main.c **** // void Calculate_Package_Position(void)
 692:Core/Src/main.c **** // {
 693:Core/Src/main.c **** //   float x[3], y[3];
 694:Core/Src/main.c **** //   float I[3][2];
 695:Core/Src/main.c **** //   float A[2], B[2], C[2][2], invdet;
 696:Core/Src/main.c **** //   Get_Survey_Data(&x[0], &y[0], I[0]);
 697:Core/Src/main.c **** //   do
 698:Core/Src/main.c **** //   {
 699:Core/Src/main.c **** //     Get_Survey_Data(&x[0], &y[0], I[0]);
 700:Core/Src/main.c **** //   } while (x[0] < 0 || y[0] < 0);
 701:Core/Src/main.c **** //   // u2_printf("%d, %d, %d, %d\n", x[0], y[0], I[0][0], I[0][1]);
 702:Core/Src/main.c **** //   Set_Speed(0, 0);
 703:Core/Src/main.c **** //   Set_Speed(0, 2);
 704:Core/Src/main.c **** //   Set_Speed(7, 1);
 705:Core/Src/main.c **** //   Set_Speed(7, 3);
 706:Core/Src/main.c **** //   Set_LF_Direction(0);
 707:Core/Src/main.c **** //   Set_RF_Direction(1);
 708:Core/Src/main.c **** //   do
 709:Core/Src/main.c **** //   {
 710:Core/Src/main.c **** //     HAL_Delay(100);
 711:Core/Src/main.c **** //     Get_Survey_Data(&x[1], &y[1], I[1]);
 712:Core/Src/main.c **** //     if (x[1] < 0 || y[1] < 0)
 713:Core/Src/main.c **** //       continue;
 714:Core/Src/main.c **** //   } while (((int)x[1] - (int)x[0]) == 0 && ((int)y[1] - (int)y[0]) == 0);
 715:Core/Src/main.c **** //   Set_Speed(7, 0);
 716:Core/Src/main.c **** //   Set_Speed(7, 2);
 717:Core/Src/main.c **** //   Set_Speed(0, 1);
 718:Core/Src/main.c **** //   Set_Speed(0, 3);
 719:Core/Src/main.c **** //   Set_LF_Direction(1);
 720:Core/Src/main.c **** //   Set_RF_Direction(0);
 721:Core/Src/main.c **** //   do
ARM GAS  C:\Users\86183\AppData\Local\Temp\ccdSsS0f.s 			page 84


 722:Core/Src/main.c **** //   {
 723:Core/Src/main.c **** //     HAL_Delay(100);
 724:Core/Src/main.c **** //     Get_Survey_Data(&x[2], &y[2], I[2]);
 725:Core/Src/main.c **** //     if (x[2] < 0 || y[2] < 0)
 726:Core/Src/main.c **** //       continue;
 727:Core/Src/main.c **** //   } while (((int)x[1] - (int)x[0]) * ((int)y[2] - (int)y[0]) - ((int)x[2] - (int)x[0]) * ((int)y
 728:Core/Src/main.c **** //   A[0] = (x[1] - x[0]);
 729:Core/Src/main.c **** //   A[1] = (x[2] - x[1]);
 730:Core/Src/main.c **** //   B[0] = (y[1] - y[0]);
 731:Core/Src/main.c **** //   B[1] = (y[2] - y[1]);
 732:Core/Src/main.c **** //   C[0][0] = 2.0e9 * (I[1][0] - I[0][0]) / (I[1][0] + I[0][0]) / (I[1][0] + I[0][0]) + (x[1] + x[
 733:Core/Src/main.c **** //   C[1][0] = 2.0e9 * (I[2][0] - I[1][0]) / (I[2][0] + I[1][0]) / (I[2][0] + I[1][0]) + (x[2] + x[
 734:Core/Src/main.c **** //   C[0][1] = 2.0e9 * (I[1][1] - I[0][1]) / (I[1][1] + I[0][1]) / (I[1][1] + I[0][1]) + (x[1] + x[
 735:Core/Src/main.c **** //   C[1][1] = 2.0e9 * (I[2][1] - I[1][1]) / (I[2][1] + I[1][1]) / (I[2][1] + I[1][1]) + (x[2] + x[
 736:Core/Src/main.c **** //   invdet = 1.0 / (A[0] * B[1] - A[1] * B[0]);
 737:Core/Src/main.c **** //   packageX[0] = (B[1] * C[0][0] - B[0] * C[1][0]) * invdet;
 738:Core/Src/main.c **** //   packageY[0] = (A[0] * C[1][0] - A[1] * C[0][0]) * invdet;
 739:Core/Src/main.c **** //   packageX[1] = (B[1] * C[0][1] - B[0] * C[1][1]) * invdet;
 740:Core/Src/main.c **** //   packageY[1] = (A[0] * C[1][1] - A[1] * C[0][1]) * invdet;
 741:Core/Src/main.c **** // }
 742:Core/Src/main.c **** 
 743:Core/Src/main.c **** void Set_Beacon()
 744:Core/Src/main.c **** {
 3737              		.loc 1 744 1 is_stmt 1 view -0
 3738              		.cfi_startproc
 3739              		@ args = 0, pretend = 0, frame = 0
 3740              		@ frame_needed = 0, uses_anonymous_args = 0
 3741 0000 10B5     		push	{r4, lr}
 3742              	.LCFI23:
 3743              		.cfi_def_cfa_offset 8
 3744              		.cfi_offset 4, -8
 3745              		.cfi_offset 14, -4
 745:Core/Src/main.c ****   Set_Right_Direction(0);
 3746              		.loc 1 745 3 view .LVU901
 3747 0002 0020     		movs	r0, #0
 3748 0004 FFF7FEFF 		bl	Set_Right_Direction
 3749              	.LVL541:
 746:Core/Src/main.c ****   Set_Left_Direction(0);
 3750              		.loc 1 746 3 view .LVU902
 3751 0008 0020     		movs	r0, #0
 3752 000a FFF7FEFF 		bl	Set_Left_Direction
 3753              	.LVL542:
 747:Core/Src/main.c ****   HAL_Delay(500);
 3754              		.loc 1 747 3 view .LVU903
 3755 000e 4FF4FA70 		mov	r0, #500
 3756 0012 FFF7FEFF 		bl	HAL_Delay
 3757              	.LVL543:
 748:Core/Src/main.c ****   HAL_GPIO_WritePin(LED_GPIO_Port, LED_Pin, SET);
 3758              		.loc 1 748 3 view .LVU904
 3759 0016 084C     		ldr	r4, .L204
 3760 0018 0122     		movs	r2, #1
 3761 001a 0421     		movs	r1, #4
 3762 001c 2046     		mov	r0, r4
 3763 001e FFF7FEFF 		bl	HAL_GPIO_WritePin
 3764              	.LVL544:
 749:Core/Src/main.c ****   HAL_Delay(1000);
 3765              		.loc 1 749 3 view .LVU905
ARM GAS  C:\Users\86183\AppData\Local\Temp\ccdSsS0f.s 			page 85


 3766 0022 4FF47A70 		mov	r0, #1000
 3767 0026 FFF7FEFF 		bl	HAL_Delay
 3768              	.LVL545:
 750:Core/Src/main.c ****   HAL_GPIO_WritePin(LED_GPIO_Port, LED_Pin, RESET);
 3769              		.loc 1 750 3 view .LVU906
 3770 002a 0022     		movs	r2, #0
 3771 002c 0421     		movs	r1, #4
 3772 002e 2046     		mov	r0, r4
 3773 0030 FFF7FEFF 		bl	HAL_GPIO_WritePin
 3774              	.LVL546:
 751:Core/Src/main.c **** }
 3775              		.loc 1 751 1 is_stmt 0 view .LVU907
 3776 0034 10BD     		pop	{r4, pc}
 3777              	.L205:
 3778 0036 00BF     		.align	2
 3779              	.L204:
 3780 0038 00140140 		.word	1073812480
 3781              		.cfi_endproc
 3782              	.LFE83:
 3784              		.section	.text.getNearestPark,"ax",%progbits
 3785              		.align	1
 3786              		.global	getNearestPark
 3787              		.syntax unified
 3788              		.thumb
 3789              		.thumb_func
 3790              		.fpu softvfp
 3792              	getNearestPark:
 3793              	.LVL547:
 3794              	.LFB84:
 752:Core/Src/main.c **** 
 753:Core/Src/main.c **** uint16_t getNearestPark(uint16_t _mineType)
 754:Core/Src/main.c **** {
 3795              		.loc 1 754 1 is_stmt 1 view -0
 3796              		.cfi_startproc
 3797              		@ args = 0, pretend = 0, frame = 16
 3798              		@ frame_needed = 0, uses_anonymous_args = 0
 3799              		.loc 1 754 1 is_stmt 0 view .LVU909
 3800 0000 2DE9F04F 		push	{r4, r5, r6, r7, r8, r9, r10, fp, lr}
 3801              	.LCFI24:
 3802              		.cfi_def_cfa_offset 36
 3803              		.cfi_offset 4, -36
 3804              		.cfi_offset 5, -32
 3805              		.cfi_offset 6, -28
 3806              		.cfi_offset 7, -24
 3807              		.cfi_offset 8, -20
 3808              		.cfi_offset 9, -16
 3809              		.cfi_offset 10, -12
 3810              		.cfi_offset 11, -8
 3811              		.cfi_offset 14, -4
 3812 0004 85B0     		sub	sp, sp, #20
 3813              	.LCFI25:
 3814              		.cfi_def_cfa_offset 56
 3815 0006 0546     		mov	r5, r0
 755:Core/Src/main.c ****   uint16_t tmp = 0;
 3816              		.loc 1 755 3 is_stmt 1 view .LVU910
 3817              	.LVL548:
 756:Core/Src/main.c ****   struct MYCOORD coord = userGetCarPos();
ARM GAS  C:\Users\86183\AppData\Local\Temp\ccdSsS0f.s 			page 86


 3818              		.loc 1 756 3 view .LVU911
 3819              		.loc 1 756 26 is_stmt 0 view .LVU912
 3820 0008 01A8     		add	r0, sp, #4
 3821              	.LVL549:
 3822              		.loc 1 756 26 view .LVU913
 3823 000a FFF7FEFF 		bl	userGetCarPos
 3824              	.LVL550:
 757:Core/Src/main.c ****   float x = coord.x, y = coord.y;
 3825              		.loc 1 757 3 is_stmt 1 view .LVU914
 3826              		.loc 1 757 9 is_stmt 0 view .LVU915
 3827 000e 019E     		ldr	r6, [sp, #4]	@ float
 3828              	.LVL551:
 3829              		.loc 1 757 22 view .LVU916
 3830 0010 029F     		ldr	r7, [sp, #8]	@ float
 3831              	.LVL552:
 758:Core/Src/main.c ****   float dist = 0, distMin = 1e9;
 3832              		.loc 1 758 3 is_stmt 1 view .LVU917
 759:Core/Src/main.c ****   if (getCarTask() == 0)
 3833              		.loc 1 759 3 view .LVU918
 3834              		.loc 1 759 7 is_stmt 0 view .LVU919
 3835 0012 FFF7FEFF 		bl	getCarTask
 3836              	.LVL553:
 3837              		.loc 1 759 6 view .LVU920
 3838 0016 60B3     		cbz	r0, .L216
 3839              	.LBB30:
 760:Core/Src/main.c ****   {
 761:Core/Src/main.c ****     for (int i = 0; i < 8; i++)
 762:Core/Src/main.c ****     {
 763:Core/Src/main.c ****       dist = sq(x - Park[i].x) + sq(y - Park[i].y);
 764:Core/Src/main.c ****       if (dist < distMin)
 765:Core/Src/main.c ****       {
 766:Core/Src/main.c ****         distMin = dist;
 767:Core/Src/main.c ****         tmp = i;
 768:Core/Src/main.c ****       }
 769:Core/Src/main.c ****     }
 770:Core/Src/main.c ****   }
 771:Core/Src/main.c ****   else
 772:Core/Src/main.c ****   {
 773:Core/Src/main.c ****     for (int i = 0; i < 11; i++)
 3840              		.loc 1 773 14 view .LVU921
 3841 0018 0024     		movs	r4, #0
 3842              	.LBE30:
 758:Core/Src/main.c ****   if (getCarTask() == 0)
 3843              		.loc 1 758 19 view .LVU922
 3844 001a DFF8C890 		ldr	r9, .L220
 755:Core/Src/main.c ****   struct MYCOORD coord = userGetCarPos();
 3845              		.loc 1 755 12 view .LVU923
 3846 001e A046     		mov	r8, r4
 3847 0020 2DE0     		b	.L208
 3848              	.LVL554:
 3849              	.L209:
 3850              	.LBB31:
 761:Core/Src/main.c ****     {
 3851              		.loc 1 761 28 is_stmt 1 discriminator 2 view .LVU924
 761:Core/Src/main.c ****     {
 3852              		.loc 1 761 29 is_stmt 0 discriminator 2 view .LVU925
 3853 0022 0134     		adds	r4, r4, #1
ARM GAS  C:\Users\86183\AppData\Local\Temp\ccdSsS0f.s 			page 87


 3854              	.LVL555:
 3855              	.L207:
 761:Core/Src/main.c ****     {
 3856              		.loc 1 761 21 is_stmt 1 discriminator 1 view .LVU926
 761:Core/Src/main.c ****     {
 3857              		.loc 1 761 5 is_stmt 0 discriminator 1 view .LVU927
 3858 0024 072C     		cmp	r4, #7
 3859 0026 59DC     		bgt	.L212
 763:Core/Src/main.c ****       if (dist < distMin)
 3860              		.loc 1 763 7 is_stmt 1 view .LVU928
 763:Core/Src/main.c ****       if (dist < distMin)
 3861              		.loc 1 763 14 is_stmt 0 view .LVU929
 3862 0028 2F4B     		ldr	r3, .L220+4
 3863 002a 04EB4402 		add	r2, r4, r4, lsl #1
 3864 002e 03EB820A 		add	r10, r3, r2, lsl #2
 3865 0032 53F82210 		ldr	r1, [r3, r2, lsl #2]	@ float
 3866 0036 3046     		mov	r0, r6
 3867 0038 FFF7FEFF 		bl	__aeabi_fsub
 3868              	.LVL556:
 3869 003c 0146     		mov	r1, r0
 3870 003e FFF7FEFF 		bl	__aeabi_fmul
 3871              	.LVL557:
 3872 0042 0546     		mov	r5, r0
 763:Core/Src/main.c ****       if (dist < distMin)
 3873              		.loc 1 763 34 view .LVU930
 3874 0044 DAF80410 		ldr	r1, [r10, #4]	@ float
 3875 0048 3846     		mov	r0, r7
 3876 004a FFF7FEFF 		bl	__aeabi_fsub
 3877              	.LVL558:
 3878 004e 0146     		mov	r1, r0
 3879 0050 FFF7FEFF 		bl	__aeabi_fmul
 3880              	.LVL559:
 3881 0054 0146     		mov	r1, r0
 763:Core/Src/main.c ****       if (dist < distMin)
 3882              		.loc 1 763 12 view .LVU931
 3883 0056 2846     		mov	r0, r5
 3884 0058 FFF7FEFF 		bl	__aeabi_fadd
 3885              	.LVL560:
 3886 005c 0546     		mov	r5, r0
 3887              	.LVL561:
 764:Core/Src/main.c ****       {
 3888              		.loc 1 764 7 is_stmt 1 view .LVU932
 764:Core/Src/main.c ****       {
 3889              		.loc 1 764 10 is_stmt 0 view .LVU933
 3890 005e 0146     		mov	r1, r0
 3891 0060 4846     		mov	r0, r9
 3892              	.LVL562:
 764:Core/Src/main.c ****       {
 3893              		.loc 1 764 10 view .LVU934
 3894 0062 FFF7FEFF 		bl	__aeabi_fcmpgt
 3895              	.LVL563:
 764:Core/Src/main.c ****       {
 3896              		.loc 1 764 10 view .LVU935
 3897 0066 0028     		cmp	r0, #0
 3898 0068 DBD0     		beq	.L209
 766:Core/Src/main.c ****         tmp = i;
 3899              		.loc 1 766 9 is_stmt 1 view .LVU936
ARM GAS  C:\Users\86183\AppData\Local\Temp\ccdSsS0f.s 			page 88


 3900              	.LVL564:
 767:Core/Src/main.c ****       }
 3901              		.loc 1 767 9 view .LVU937
 767:Core/Src/main.c ****       }
 3902              		.loc 1 767 13 is_stmt 0 view .LVU938
 3903 006a 1FFA84F8 		uxth	r8, r4
 3904              	.LVL565:
 766:Core/Src/main.c ****         tmp = i;
 3905              		.loc 1 766 17 view .LVU939
 3906 006e A946     		mov	r9, r5
 3907 0070 D7E7     		b	.L209
 3908              	.LVL566:
 3909              	.L216:
 766:Core/Src/main.c ****         tmp = i;
 3910              		.loc 1 766 17 view .LVU940
 3911 0072 8046     		mov	r8, r0
 761:Core/Src/main.c ****     {
 3912              		.loc 1 761 14 view .LVU941
 3913 0074 0024     		movs	r4, #0
 3914              	.LBE31:
 758:Core/Src/main.c ****   if (getCarTask() == 0)
 3915              		.loc 1 758 19 view .LVU942
 3916 0076 DFF86C90 		ldr	r9, .L220
 3917 007a D3E7     		b	.L207
 3918              	.LVL567:
 3919              	.L213:
 3920              	.LBB32:
 3921              		.loc 1 773 29 is_stmt 1 discriminator 2 view .LVU943
 3922              		.loc 1 773 30 is_stmt 0 discriminator 2 view .LVU944
 3923 007c 0134     		adds	r4, r4, #1
 3924              	.LVL568:
 3925              	.L208:
 3926              		.loc 1 773 21 is_stmt 1 discriminator 1 view .LVU945
 3927              		.loc 1 773 5 is_stmt 0 discriminator 1 view .LVU946
 3928 007e 0A2C     		cmp	r4, #10
 3929 0080 2CDC     		bgt	.L212
 774:Core/Src/main.c ****     {
 775:Core/Src/main.c ****       if (Park[i].mineType == _mineType)
 3930              		.loc 1 775 7 is_stmt 1 view .LVU947
 3931              		.loc 1 775 18 is_stmt 0 view .LVU948
 3932 0082 04EB4403 		add	r3, r4, r4, lsl #1
 3933 0086 184A     		ldr	r2, .L220+4
 3934 0088 02EB8303 		add	r3, r2, r3, lsl #2
 3935 008c 1B89     		ldrh	r3, [r3, #8]
 3936              		.loc 1 775 10 view .LVU949
 3937 008e AB42     		cmp	r3, r5
 3938 0090 F4D1     		bne	.L213
 776:Core/Src/main.c ****       {
 777:Core/Src/main.c ****         dist = sq(x - Park[i].x) + sq(y - Park[i].y);
 3939              		.loc 1 777 9 is_stmt 1 view .LVU950
 3940              		.loc 1 777 16 is_stmt 0 view .LVU951
 3941 0092 1346     		mov	r3, r2
 3942 0094 04EB4402 		add	r2, r4, r4, lsl #1
 3943 0098 03EB820B 		add	fp, r3, r2, lsl #2
 3944 009c 53F82210 		ldr	r1, [r3, r2, lsl #2]	@ float
 3945 00a0 3046     		mov	r0, r6
 3946 00a2 FFF7FEFF 		bl	__aeabi_fsub
ARM GAS  C:\Users\86183\AppData\Local\Temp\ccdSsS0f.s 			page 89


 3947              	.LVL569:
 3948 00a6 0146     		mov	r1, r0
 3949 00a8 FFF7FEFF 		bl	__aeabi_fmul
 3950              	.LVL570:
 3951 00ac 8246     		mov	r10, r0
 3952              		.loc 1 777 36 view .LVU952
 3953 00ae DBF80410 		ldr	r1, [fp, #4]	@ float
 3954 00b2 3846     		mov	r0, r7
 3955 00b4 FFF7FEFF 		bl	__aeabi_fsub
 3956              	.LVL571:
 3957 00b8 0146     		mov	r1, r0
 3958 00ba FFF7FEFF 		bl	__aeabi_fmul
 3959              	.LVL572:
 3960 00be 0146     		mov	r1, r0
 3961              		.loc 1 777 14 view .LVU953
 3962 00c0 5046     		mov	r0, r10
 3963 00c2 FFF7FEFF 		bl	__aeabi_fadd
 3964              	.LVL573:
 3965 00c6 8246     		mov	r10, r0
 3966              	.LVL574:
 778:Core/Src/main.c ****         if (dist < distMin)
 3967              		.loc 1 778 9 is_stmt 1 view .LVU954
 3968              		.loc 1 778 12 is_stmt 0 view .LVU955
 3969 00c8 0146     		mov	r1, r0
 3970 00ca 4846     		mov	r0, r9
 3971              	.LVL575:
 3972              		.loc 1 778 12 view .LVU956
 3973 00cc FFF7FEFF 		bl	__aeabi_fcmpgt
 3974              	.LVL576:
 3975              		.loc 1 778 12 view .LVU957
 3976 00d0 0028     		cmp	r0, #0
 3977 00d2 D3D0     		beq	.L213
 779:Core/Src/main.c ****         {
 780:Core/Src/main.c ****           distMin = dist;
 3978              		.loc 1 780 11 is_stmt 1 view .LVU958
 3979              	.LVL577:
 781:Core/Src/main.c ****           tmp = i;
 3980              		.loc 1 781 11 view .LVU959
 3981              		.loc 1 781 15 is_stmt 0 view .LVU960
 3982 00d4 1FFA84F8 		uxth	r8, r4
 3983              	.LVL578:
 780:Core/Src/main.c ****           tmp = i;
 3984              		.loc 1 780 19 view .LVU961
 3985 00d8 D146     		mov	r9, r10
 3986 00da CFE7     		b	.L213
 3987              	.LVL579:
 3988              	.L212:
 780:Core/Src/main.c ****           tmp = i;
 3989              		.loc 1 780 19 view .LVU962
 3990              	.LBE32:
 782:Core/Src/main.c ****         }
 783:Core/Src/main.c ****       }
 784:Core/Src/main.c ****     }
 785:Core/Src/main.c ****   }
 786:Core/Src/main.c ****   return tmp;
 3991              		.loc 1 786 3 is_stmt 1 view .LVU963
 787:Core/Src/main.c **** }
ARM GAS  C:\Users\86183\AppData\Local\Temp\ccdSsS0f.s 			page 90


 3992              		.loc 1 787 1 is_stmt 0 view .LVU964
 3993 00dc 4046     		mov	r0, r8
 3994 00de 05B0     		add	sp, sp, #20
 3995              	.LCFI26:
 3996              		.cfi_def_cfa_offset 36
 3997              		@ sp needed
 3998 00e0 BDE8F08F 		pop	{r4, r5, r6, r7, r8, r9, r10, fp, pc}
 3999              	.LVL580:
 4000              	.L221:
 4001              		.loc 1 787 1 view .LVU965
 4002              		.align	2
 4003              	.L220:
 4004 00e4 286B6E4E 		.word	1315859240
 4005 00e8 00000000 		.word	.LANCHOR14
 4006              		.cfi_endproc
 4007              	.LFE84:
 4009              		.section	.text.curMostMineType,"ax",%progbits
 4010              		.align	1
 4011              		.global	curMostMineType
 4012              		.syntax unified
 4013              		.thumb
 4014              		.thumb_func
 4015              		.fpu softvfp
 4017              	curMostMineType:
 4018              	.LFB87:
 788:Core/Src/main.c **** 
 789:Core/Src/main.c **** void getPackage()
 790:Core/Src/main.c **** {
 791:Core/Src/main.c ****   struct MYCOORD coord = userGetCarPos();
 792:Core/Src/main.c ****   float dist0 = sq(coord.x - packageX[0]) + sq(coord.y - packageY[0]);
 793:Core/Src/main.c ****   float dist1 = sq(coord.x - packageX[1]) + sq(coord.y - packageY[1]);
 794:Core/Src/main.c ****   if (dist0 < dist1)
 795:Core/Src/main.c ****   {
 796:Core/Src/main.c ****     MoveTo(packageX[0], packageY[0], 0);
 797:Core/Src/main.c ****     MoveTo(packageX[1], packageY[1], 0);
 798:Core/Src/main.c ****   }
 799:Core/Src/main.c ****   else
 800:Core/Src/main.c ****   {
 801:Core/Src/main.c ****     MoveTo(packageX[1], packageY[1], 0);
 802:Core/Src/main.c ****     MoveTo(packageX[0], packageY[0], 0);
 803:Core/Src/main.c ****   }
 804:Core/Src/main.c **** }
 805:Core/Src/main.c **** 
 806:Core/Src/main.c **** void SetBeacon()
 807:Core/Src/main.c **** {
 808:Core/Src/main.c ****   struct MYCOORD coord = userGetCarPos();
 809:Core/Src/main.c ****   int k = 0;
 810:Core/Src/main.c ****   float dist1[3], dist2[2];
 811:Core/Src/main.c ****   int tmp = 0, j = 0;
 812:Core/Src/main.c ****   for (int i = 0; i < 3; i++)
 813:Core/Src/main.c ****     dist1[i] = sq(coord.x - BeaconDir[i][0]) + sq(coord.y - BeaconDir[i][1]);
 814:Core/Src/main.c ****   for (int i = 0; i < 3; i++)
 815:Core/Src/main.c ****     tmp = dist1[tmp] < dist1[i] ? tmp : i;
 816:Core/Src/main.c ****   MoveTo(BeaconDir[tmp][0], BeaconDir[tmp][1], 0);
 817:Core/Src/main.c ****   zigbeeSend(k++);
 818:Core/Src/main.c ****   Set_Beacon();
 819:Core/Src/main.c ****   for (int i = 0; i < 3; i++)
ARM GAS  C:\Users\86183\AppData\Local\Temp\ccdSsS0f.s 			page 91


 820:Core/Src/main.c ****   {
 821:Core/Src/main.c ****     if (i != tmp)
 822:Core/Src/main.c ****     {
 823:Core/Src/main.c ****       coord = userGetCarPos();
 824:Core/Src/main.c ****       dist2[j] = sq(coord.x - BeaconDir[i][0]) + sq(coord.y - BeaconDir[i][1]);
 825:Core/Src/main.c ****       j++;
 826:Core/Src/main.c ****     }
 827:Core/Src/main.c ****   }
 828:Core/Src/main.c ****   if (dist2[0] < dist2[1])
 829:Core/Src/main.c ****   {
 830:Core/Src/main.c ****     for (int i = 0; i < 3; i++)
 831:Core/Src/main.c ****       if (i != tmp)
 832:Core/Src/main.c ****       {
 833:Core/Src/main.c ****         MoveTo(BeaconDir[i][0], BeaconDir[i][1], 0);
 834:Core/Src/main.c ****         zigbeeSend(k++);
 835:Core/Src/main.c ****         Set_Beacon();
 836:Core/Src/main.c ****       }
 837:Core/Src/main.c ****   }
 838:Core/Src/main.c ****   else
 839:Core/Src/main.c ****   {
 840:Core/Src/main.c ****     for (int i = 2; i >= 0; i--)
 841:Core/Src/main.c ****       if (i != tmp)
 842:Core/Src/main.c ****       {
 843:Core/Src/main.c ****         MoveTo(BeaconDir[i][0], BeaconDir[i][1], 0);
 844:Core/Src/main.c ****         zigbeeSend(k++);
 845:Core/Src/main.c ****         Set_Beacon();
 846:Core/Src/main.c ****       }
 847:Core/Src/main.c ****   }
 848:Core/Src/main.c **** }
 849:Core/Src/main.c **** 
 850:Core/Src/main.c **** uint16_t curMostMineType()
 851:Core/Src/main.c **** {
 4019              		.loc 1 851 1 is_stmt 1 view -0
 4020              		.cfi_startproc
 4021              		@ args = 0, pretend = 0, frame = 8
 4022              		@ frame_needed = 0, uses_anonymous_args = 0
 4023 0000 00B5     		push	{lr}
 4024              	.LCFI27:
 4025              		.cfi_def_cfa_offset 4
 4026              		.cfi_offset 14, -4
 4027 0002 83B0     		sub	sp, sp, #12
 4028              	.LCFI28:
 4029              		.cfi_def_cfa_offset 16
 852:Core/Src/main.c ****   uint16_t tmp = 0, mineNum[4];
 4030              		.loc 1 852 3 view .LVU967
 4031              	.LVL581:
 853:Core/Src/main.c ****   mineNum[0] = getCarMineANum();
 4032              		.loc 1 853 3 view .LVU968
 4033              		.loc 1 853 16 is_stmt 0 view .LVU969
 4034 0004 FFF7FEFF 		bl	getCarMineANum
 4035              	.LVL582:
 4036              		.loc 1 853 14 view .LVU970
 4037 0008 ADF80000 		strh	r0, [sp]	@ movhi
 854:Core/Src/main.c ****   mineNum[1] = getCarMineBNum();
 4038              		.loc 1 854 3 is_stmt 1 view .LVU971
 4039              		.loc 1 854 16 is_stmt 0 view .LVU972
 4040 000c FFF7FEFF 		bl	getCarMineBNum
ARM GAS  C:\Users\86183\AppData\Local\Temp\ccdSsS0f.s 			page 92


 4041              	.LVL583:
 4042              		.loc 1 854 14 view .LVU973
 4043 0010 ADF80200 		strh	r0, [sp, #2]	@ movhi
 855:Core/Src/main.c ****   mineNum[2] = getCarMineCNum();
 4044              		.loc 1 855 3 is_stmt 1 view .LVU974
 4045              		.loc 1 855 16 is_stmt 0 view .LVU975
 4046 0014 FFF7FEFF 		bl	getCarMineCNum
 4047              	.LVL584:
 4048              		.loc 1 855 14 view .LVU976
 4049 0018 ADF80400 		strh	r0, [sp, #4]	@ movhi
 856:Core/Src/main.c ****   mineNum[3] = getCarMineDNum();
 4050              		.loc 1 856 3 is_stmt 1 view .LVU977
 4051              		.loc 1 856 16 is_stmt 0 view .LVU978
 4052 001c FFF7FEFF 		bl	getCarMineDNum
 4053              	.LVL585:
 4054              		.loc 1 856 14 view .LVU979
 4055 0020 ADF80600 		strh	r0, [sp, #6]	@ movhi
 857:Core/Src/main.c ****   for (int i = 0; i < 4; i++)
 4056              		.loc 1 857 3 is_stmt 1 view .LVU980
 4057              	.LBB33:
 4058              		.loc 1 857 8 view .LVU981
 4059              	.LVL586:
 4060              		.loc 1 857 12 is_stmt 0 view .LVU982
 4061 0024 0023     		movs	r3, #0
 4062              	.LBE33:
 852:Core/Src/main.c ****   mineNum[0] = getCarMineANum();
 4063              		.loc 1 852 12 view .LVU983
 4064 0026 1846     		mov	r0, r3
 4065              	.LBB34:
 4066              		.loc 1 857 3 view .LVU984
 4067 0028 00E0     		b	.L223
 4068              	.LVL587:
 4069              	.L224:
 4070              		.loc 1 857 26 is_stmt 1 discriminator 2 view .LVU985
 4071              		.loc 1 857 27 is_stmt 0 discriminator 2 view .LVU986
 4072 002a 0133     		adds	r3, r3, #1
 4073              	.LVL588:
 4074              	.L223:
 4075              		.loc 1 857 19 is_stmt 1 discriminator 1 view .LVU987
 4076              		.loc 1 857 3 is_stmt 0 discriminator 1 view .LVU988
 4077 002c 032B     		cmp	r3, #3
 4078 002e 0DDC     		bgt	.L227
 858:Core/Src/main.c ****   {
 859:Core/Src/main.c ****     if (mineNum[i] > mineNum[tmp])
 4079              		.loc 1 859 5 is_stmt 1 view .LVU989
 4080              		.loc 1 859 16 is_stmt 0 view .LVU990
 4081 0030 02AA     		add	r2, sp, #8
 4082 0032 02EB4302 		add	r2, r2, r3, lsl #1
 4083 0036 32F8081C 		ldrh	r1, [r2, #-8]
 4084              		.loc 1 859 29 view .LVU991
 4085 003a 02AA     		add	r2, sp, #8
 4086 003c 02EB4002 		add	r2, r2, r0, lsl #1
 4087 0040 32F8082C 		ldrh	r2, [r2, #-8]
 4088              		.loc 1 859 8 view .LVU992
 4089 0044 9142     		cmp	r1, r2
 4090 0046 F0D9     		bls	.L224
 860:Core/Src/main.c ****       tmp = i;
ARM GAS  C:\Users\86183\AppData\Local\Temp\ccdSsS0f.s 			page 93


 4091              		.loc 1 860 7 is_stmt 1 view .LVU993
 4092              		.loc 1 860 11 is_stmt 0 view .LVU994
 4093 0048 98B2     		uxth	r0, r3
 4094              	.LVL589:
 4095              		.loc 1 860 11 view .LVU995
 4096 004a EEE7     		b	.L224
 4097              	.L227:
 4098              		.loc 1 860 11 view .LVU996
 4099              	.LBE34:
 861:Core/Src/main.c ****   }
 862:Core/Src/main.c ****   return tmp;
 4100              		.loc 1 862 3 is_stmt 1 view .LVU997
 863:Core/Src/main.c **** }
 4101              		.loc 1 863 1 is_stmt 0 view .LVU998
 4102 004c 03B0     		add	sp, sp, #12
 4103              	.LCFI29:
 4104              		.cfi_def_cfa_offset 4
 4105              		@ sp needed
 4106 004e 5DF804FB 		ldr	pc, [sp], #4
 4107              		.cfi_endproc
 4108              	.LFE87:
 4110              		.section	.text.initialParkMineType,"ax",%progbits
 4111              		.align	1
 4112              		.global	initialParkMineType
 4113              		.syntax unified
 4114              		.thumb
 4115              		.thumb_func
 4116              		.fpu softvfp
 4118              	initialParkMineType:
 4119              	.LFB88:
 864:Core/Src/main.c **** 
 865:Core/Src/main.c **** void initialParkMineType()
 866:Core/Src/main.c **** {
 4120              		.loc 1 866 1 is_stmt 1 view -0
 4121              		.cfi_startproc
 4122              		@ args = 0, pretend = 0, frame = 0
 4123              		@ frame_needed = 0, uses_anonymous_args = 0
 4124 0000 2DE9F041 		push	{r4, r5, r6, r7, r8, lr}
 4125              	.LCFI30:
 4126              		.cfi_def_cfa_offset 24
 4127              		.cfi_offset 4, -24
 4128              		.cfi_offset 5, -20
 4129              		.cfi_offset 6, -16
 4130              		.cfi_offset 7, -12
 4131              		.cfi_offset 8, -8
 4132              		.cfi_offset 14, -4
 867:Core/Src/main.c ****   for (int i = 0; i < 8; i++)
 4133              		.loc 1 867 3 view .LVU1000
 4134              	.LBB35:
 4135              		.loc 1 867 8 view .LVU1001
 4136              	.LVL590:
 4137              		.loc 1 867 12 is_stmt 0 view .LVU1002
 4138 0004 0024     		movs	r4, #0
 4139              		.loc 1 867 3 view .LVU1003
 4140 0006 09E0     		b	.L229
 4141              	.LVL591:
 4142              	.L230:
ARM GAS  C:\Users\86183\AppData\Local\Temp\ccdSsS0f.s 			page 94


 868:Core/Src/main.c ****     Park[i].mineType = (uint16_t)getParkDotMineType(i);
 4143              		.loc 1 868 5 is_stmt 1 discriminator 3 view .LVU1004
 4144              		.loc 1 868 34 is_stmt 0 discriminator 3 view .LVU1005
 4145 0008 2046     		mov	r0, r4
 4146 000a FFF7FEFF 		bl	getParkDotMineType
 4147              	.LVL592:
 4148              		.loc 1 868 22 discriminator 3 view .LVU1006
 4149 000e 04EB4402 		add	r2, r4, r4, lsl #1
 4150 0012 1C4B     		ldr	r3, .L234
 4151 0014 03EB8203 		add	r3, r3, r2, lsl #2
 4152 0018 1881     		strh	r0, [r3, #8]	@ movhi
 867:Core/Src/main.c ****   for (int i = 0; i < 8; i++)
 4153              		.loc 1 867 26 is_stmt 1 discriminator 3 view .LVU1007
 867:Core/Src/main.c ****   for (int i = 0; i < 8; i++)
 4154              		.loc 1 867 27 is_stmt 0 discriminator 3 view .LVU1008
 4155 001a 0134     		adds	r4, r4, #1
 4156              	.LVL593:
 4157              	.L229:
 867:Core/Src/main.c ****   for (int i = 0; i < 8; i++)
 4158              		.loc 1 867 19 is_stmt 1 discriminator 1 view .LVU1009
 867:Core/Src/main.c ****   for (int i = 0; i < 8; i++)
 4159              		.loc 1 867 3 is_stmt 0 discriminator 1 view .LVU1010
 4160 001c 072C     		cmp	r4, #7
 4161 001e F3DD     		ble	.L230
 4162              	.LBE35:
 4163              	.LBB36:
 869:Core/Src/main.c ****   for (int i = 0; i < 3; i++)
 4164              		.loc 1 869 12 view .LVU1011
 4165 0020 0024     		movs	r4, #0
 4166              	.LVL594:
 4167              		.loc 1 869 12 view .LVU1012
 4168 0022 2AE0     		b	.L231
 4169              	.LVL595:
 4170              	.L232:
 870:Core/Src/main.c ****   {
 871:Core/Src/main.c ****     Park[i + 8].x = (float)getMyBeaconPosX(i);
 4171              		.loc 1 871 5 is_stmt 1 discriminator 3 view .LVU1013
 4172              		.loc 1 871 28 is_stmt 0 discriminator 3 view .LVU1014
 4173 0024 2046     		mov	r0, r4
 4174 0026 FFF7FEFF 		bl	getMyBeaconPosX
 4175              	.LVL596:
 4176              		.loc 1 871 12 discriminator 3 view .LVU1015
 4177 002a 04F10806 		add	r6, r4, #8
 4178              		.loc 1 871 21 discriminator 3 view .LVU1016
 4179 002e FFF7FEFF 		bl	__aeabi_ui2f
 4180              	.LVL597:
 4181              		.loc 1 871 19 discriminator 3 view .LVU1017
 4182 0032 144D     		ldr	r5, .L234
 4183 0034 06EB4603 		add	r3, r6, r6, lsl #1
 4184 0038 05EB8308 		add	r8, r5, r3, lsl #2
 4185 003c 45F82300 		str	r0, [r5, r3, lsl #2]	@ float
 872:Core/Src/main.c ****     Park[i + 8].y = (float)getMyBeaconPosY(i);
 4186              		.loc 1 872 5 is_stmt 1 discriminator 3 view .LVU1018
 4187              		.loc 1 872 28 is_stmt 0 discriminator 3 view .LVU1019
 4188 0040 2046     		mov	r0, r4
 4189 0042 FFF7FEFF 		bl	getMyBeaconPosY
 4190              	.LVL598:
ARM GAS  C:\Users\86183\AppData\Local\Temp\ccdSsS0f.s 			page 95


 4191              		.loc 1 872 21 discriminator 3 view .LVU1020
 4192 0046 FFF7FEFF 		bl	__aeabi_ui2f
 4193              	.LVL599:
 4194              		.loc 1 872 19 discriminator 3 view .LVU1021
 4195 004a C8F80400 		str	r0, [r8, #4]	@ float
 873:Core/Src/main.c ****     Park[i + 8].mineType = getMyBeaconMineType(i);
 4196              		.loc 1 873 5 is_stmt 1 discriminator 3 view .LVU1022
 4197              		.loc 1 873 28 is_stmt 0 discriminator 3 view .LVU1023
 4198 004e 2046     		mov	r0, r4
 4199 0050 FFF7FEFF 		bl	getMyBeaconMineType
 4200              	.LVL600:
 4201              		.loc 1 873 26 discriminator 3 view .LVU1024
 4202 0054 A8F80800 		strh	r0, [r8, #8]	@ movhi
 874:Core/Src/main.c ****     RivalBeacon[i].x = (float)getRivalBeaconPosX(i);
 4203              		.loc 1 874 5 is_stmt 1 discriminator 3 view .LVU1025
 4204              		.loc 1 874 31 is_stmt 0 discriminator 3 view .LVU1026
 4205 0058 2046     		mov	r0, r4
 4206 005a FFF7FEFF 		bl	getRivalBeaconPosX
 4207              	.LVL601:
 4208              		.loc 1 874 24 discriminator 3 view .LVU1027
 4209 005e FFF7FEFF 		bl	__aeabi_ui2f
 4210              	.LVL602:
 4211              		.loc 1 874 22 discriminator 3 view .LVU1028
 4212 0062 094D     		ldr	r5, .L234+4
 4213 0064 45F83400 		str	r0, [r5, r4, lsl #3]	@ float
 875:Core/Src/main.c ****     RivalBeacon[i].y = (float)getRivalBeaconPosY(i);
 4214              		.loc 1 875 5 is_stmt 1 discriminator 3 view .LVU1029
 4215              		.loc 1 875 31 is_stmt 0 discriminator 3 view .LVU1030
 4216 0068 2046     		mov	r0, r4
 4217 006a FFF7FEFF 		bl	getRivalBeaconPosY
 4218              	.LVL603:
 4219              		.loc 1 875 24 discriminator 3 view .LVU1031
 4220 006e FFF7FEFF 		bl	__aeabi_ui2f
 4221              	.LVL604:
 4222              		.loc 1 875 22 discriminator 3 view .LVU1032
 4223 0072 05EBC405 		add	r5, r5, r4, lsl #3
 4224 0076 6860     		str	r0, [r5, #4]	@ float
 869:Core/Src/main.c ****   {
 4225              		.loc 1 869 26 is_stmt 1 discriminator 3 view .LVU1033
 869:Core/Src/main.c ****   {
 4226              		.loc 1 869 27 is_stmt 0 discriminator 3 view .LVU1034
 4227 0078 0134     		adds	r4, r4, #1
 4228              	.LVL605:
 4229              	.L231:
 869:Core/Src/main.c ****   {
 4230              		.loc 1 869 19 is_stmt 1 discriminator 1 view .LVU1035
 869:Core/Src/main.c ****   {
 4231              		.loc 1 869 3 is_stmt 0 discriminator 1 view .LVU1036
 4232 007a 022C     		cmp	r4, #2
 4233 007c D2DD     		ble	.L232
 4234              	.LBE36:
 876:Core/Src/main.c ****   }
 877:Core/Src/main.c **** }
 4235              		.loc 1 877 1 view .LVU1037
 4236 007e BDE8F081 		pop	{r4, r5, r6, r7, r8, pc}
 4237              	.LVL606:
 4238              	.L235:
ARM GAS  C:\Users\86183\AppData\Local\Temp\ccdSsS0f.s 			page 96


 4239              		.loc 1 877 1 view .LVU1038
 4240 0082 00BF     		.align	2
 4241              	.L234:
 4242 0084 00000000 		.word	.LANCHOR14
 4243 0088 00000000 		.word	.LANCHOR15
 4244              		.cfi_endproc
 4245              	.LFE88:
 4247              		.section	.text.Set_LF_Direction,"ax",%progbits
 4248              		.align	1
 4249              		.global	Set_LF_Direction
 4250              		.syntax unified
 4251              		.thumb
 4252              		.thumb_func
 4253              		.fpu softvfp
 4255              	Set_LF_Direction:
 4256              	.LVL607:
 4257              	.LFB89:
 878:Core/Src/main.c **** 
 879:Core/Src/main.c **** void Set_LF_Direction(int direction)
 880:Core/Src/main.c **** {
 4258              		.loc 1 880 1 is_stmt 1 view -0
 4259              		.cfi_startproc
 4260              		@ args = 0, pretend = 0, frame = 0
 4261              		@ frame_needed = 0, uses_anonymous_args = 0
 4262              		.loc 1 880 1 is_stmt 0 view .LVU1040
 4263 0000 38B5     		push	{r3, r4, r5, lr}
 4264              	.LCFI31:
 4265              		.cfi_def_cfa_offset 16
 4266              		.cfi_offset 3, -16
 4267              		.cfi_offset 4, -12
 4268              		.cfi_offset 5, -8
 4269              		.cfi_offset 14, -4
 4270 0002 0446     		mov	r4, r0
 881:Core/Src/main.c ****   HAL_GPIO_WritePin(IN3A_GPIO_Port, IN3A_Pin, RESET);
 4271              		.loc 1 881 3 is_stmt 1 view .LVU1041
 4272 0004 2A4D     		ldr	r5, .L243
 4273 0006 0022     		movs	r2, #0
 4274 0008 4FF40051 		mov	r1, #8192
 4275 000c 2846     		mov	r0, r5
 4276              	.LVL608:
 4277              		.loc 1 881 3 is_stmt 0 view .LVU1042
 4278 000e FFF7FEFF 		bl	HAL_GPIO_WritePin
 4279              	.LVL609:
 882:Core/Src/main.c ****   HAL_GPIO_WritePin(IN3B_GPIO_Port, IN3B_Pin, RESET);
 4280              		.loc 1 882 3 is_stmt 1 view .LVU1043
 4281 0012 0022     		movs	r2, #0
 4282 0014 4FF48041 		mov	r1, #16384
 4283 0018 2846     		mov	r0, r5
 4284 001a FFF7FEFF 		bl	HAL_GPIO_WritePin
 4285              	.LVL610:
 883:Core/Src/main.c ****   HAL_GPIO_WritePin(IN1A_GPIO_Port, IN1A_Pin, RESET);
 4286              		.loc 1 883 3 view .LVU1044
 4287 001e 05F58065 		add	r5, r5, #1024
 4288 0022 0022     		movs	r2, #0
 4289 0024 4FF48051 		mov	r1, #4096
 4290 0028 2846     		mov	r0, r5
 4291 002a FFF7FEFF 		bl	HAL_GPIO_WritePin
ARM GAS  C:\Users\86183\AppData\Local\Temp\ccdSsS0f.s 			page 97


 4292              	.LVL611:
 884:Core/Src/main.c ****   HAL_GPIO_WritePin(IN1B_GPIO_Port, IN1B_Pin, RESET);
 4293              		.loc 1 884 3 view .LVU1045
 4294 002e 0022     		movs	r2, #0
 4295 0030 4FF40061 		mov	r1, #2048
 4296 0034 2846     		mov	r0, r5
 4297 0036 FFF7FEFF 		bl	HAL_GPIO_WritePin
 4298              	.LVL612:
 885:Core/Src/main.c ****   if (direction == 1)
 4299              		.loc 1 885 3 view .LVU1046
 4300              		.loc 1 885 6 is_stmt 0 view .LVU1047
 4301 003a 012C     		cmp	r4, #1
 4302 003c 1ED0     		beq	.L241
 886:Core/Src/main.c ****   {
 887:Core/Src/main.c ****     HAL_GPIO_WritePin(IN3A_GPIO_Port, IN3A_Pin, SET);
 888:Core/Src/main.c ****     HAL_GPIO_WritePin(IN1A_GPIO_Port, IN1A_Pin, SET);
 889:Core/Src/main.c ****   }
 890:Core/Src/main.c ****   else if (direction == -1)
 4303              		.loc 1 890 8 is_stmt 1 view .LVU1048
 4304              		.loc 1 890 11 is_stmt 0 view .LVU1049
 4305 003e B4F1FF3F 		cmp	r4, #-1
 4306 0042 28D0     		beq	.L242
 891:Core/Src/main.c ****   {
 892:Core/Src/main.c ****     HAL_GPIO_WritePin(IN3B_GPIO_Port, IN3B_Pin, SET);
 893:Core/Src/main.c ****     HAL_GPIO_WritePin(IN1B_GPIO_Port, IN1B_Pin, SET);
 894:Core/Src/main.c ****   }
 895:Core/Src/main.c ****   else
 896:Core/Src/main.c ****   {
 897:Core/Src/main.c ****     HAL_GPIO_WritePin(IN3A_GPIO_Port, IN3A_Pin, SET);
 4307              		.loc 1 897 5 is_stmt 1 view .LVU1050
 4308 0044 1A4C     		ldr	r4, .L243
 4309              	.LVL613:
 4310              		.loc 1 897 5 is_stmt 0 view .LVU1051
 4311 0046 0122     		movs	r2, #1
 4312 0048 4FF40051 		mov	r1, #8192
 4313 004c 2046     		mov	r0, r4
 4314 004e FFF7FEFF 		bl	HAL_GPIO_WritePin
 4315              	.LVL614:
 898:Core/Src/main.c ****     HAL_GPIO_WritePin(IN3B_GPIO_Port, IN3B_Pin, SET);
 4316              		.loc 1 898 5 is_stmt 1 view .LVU1052
 4317 0052 0122     		movs	r2, #1
 4318 0054 4FF48041 		mov	r1, #16384
 4319 0058 2046     		mov	r0, r4
 4320 005a FFF7FEFF 		bl	HAL_GPIO_WritePin
 4321              	.LVL615:
 899:Core/Src/main.c ****     HAL_GPIO_WritePin(IN1A_GPIO_Port, IN1A_Pin, SET);
 4322              		.loc 1 899 5 view .LVU1053
 4323 005e 04F58064 		add	r4, r4, #1024
 4324 0062 0122     		movs	r2, #1
 4325 0064 4FF48051 		mov	r1, #4096
 4326 0068 2046     		mov	r0, r4
 4327 006a FFF7FEFF 		bl	HAL_GPIO_WritePin
 4328              	.LVL616:
 900:Core/Src/main.c ****     HAL_GPIO_WritePin(IN1B_GPIO_Port, IN1B_Pin, SET);
 4329              		.loc 1 900 5 view .LVU1054
 4330 006e 0122     		movs	r2, #1
 4331 0070 4FF40061 		mov	r1, #2048
ARM GAS  C:\Users\86183\AppData\Local\Temp\ccdSsS0f.s 			page 98


 4332 0074 2046     		mov	r0, r4
 4333 0076 FFF7FEFF 		bl	HAL_GPIO_WritePin
 4334              	.LVL617:
 4335              	.L236:
 901:Core/Src/main.c ****   }
 902:Core/Src/main.c **** }
 4336              		.loc 1 902 1 is_stmt 0 view .LVU1055
 4337 007a 38BD     		pop	{r3, r4, r5, pc}
 4338              	.LVL618:
 4339              	.L241:
 887:Core/Src/main.c ****     HAL_GPIO_WritePin(IN1A_GPIO_Port, IN1A_Pin, SET);
 4340              		.loc 1 887 5 is_stmt 1 view .LVU1056
 4341 007c 0122     		movs	r2, #1
 4342 007e 4FF40051 		mov	r1, #8192
 4343 0082 0B48     		ldr	r0, .L243
 4344 0084 FFF7FEFF 		bl	HAL_GPIO_WritePin
 4345              	.LVL619:
 888:Core/Src/main.c ****   }
 4346              		.loc 1 888 5 view .LVU1057
 4347 0088 0122     		movs	r2, #1
 4348 008a 4FF48051 		mov	r1, #4096
 4349 008e 2846     		mov	r0, r5
 4350 0090 FFF7FEFF 		bl	HAL_GPIO_WritePin
 4351              	.LVL620:
 4352 0094 F1E7     		b	.L236
 4353              	.L242:
 892:Core/Src/main.c ****     HAL_GPIO_WritePin(IN1B_GPIO_Port, IN1B_Pin, SET);
 4354              		.loc 1 892 5 view .LVU1058
 4355 0096 0122     		movs	r2, #1
 4356 0098 4FF48041 		mov	r1, #16384
 4357 009c 0448     		ldr	r0, .L243
 4358 009e FFF7FEFF 		bl	HAL_GPIO_WritePin
 4359              	.LVL621:
 893:Core/Src/main.c ****   }
 4360              		.loc 1 893 5 view .LVU1059
 4361 00a2 0122     		movs	r2, #1
 4362 00a4 4FF40061 		mov	r1, #2048
 4363 00a8 0248     		ldr	r0, .L243+4
 4364 00aa FFF7FEFF 		bl	HAL_GPIO_WritePin
 4365              	.LVL622:
 4366 00ae E4E7     		b	.L236
 4367              	.L244:
 4368              		.align	2
 4369              	.L243:
 4370 00b0 000C0140 		.word	1073810432
 4371 00b4 00100140 		.word	1073811456
 4372              		.cfi_endproc
 4373              	.LFE89:
 4375              		.section	.text.Set_RF_Direction,"ax",%progbits
 4376              		.align	1
 4377              		.global	Set_RF_Direction
 4378              		.syntax unified
 4379              		.thumb
 4380              		.thumb_func
 4381              		.fpu softvfp
 4383              	Set_RF_Direction:
 4384              	.LVL623:
ARM GAS  C:\Users\86183\AppData\Local\Temp\ccdSsS0f.s 			page 99


 4385              	.LFB90:
 903:Core/Src/main.c **** 
 904:Core/Src/main.c **** void Set_RF_Direction(int direction)
 905:Core/Src/main.c **** {
 4386              		.loc 1 905 1 view -0
 4387              		.cfi_startproc
 4388              		@ args = 0, pretend = 0, frame = 0
 4389              		@ frame_needed = 0, uses_anonymous_args = 0
 4390              		.loc 1 905 1 is_stmt 0 view .LVU1061
 4391 0000 38B5     		push	{r3, r4, r5, lr}
 4392              	.LCFI32:
 4393              		.cfi_def_cfa_offset 16
 4394              		.cfi_offset 3, -16
 4395              		.cfi_offset 4, -12
 4396              		.cfi_offset 5, -8
 4397              		.cfi_offset 14, -4
 4398 0002 0446     		mov	r4, r0
 906:Core/Src/main.c ****   HAL_GPIO_WritePin(IN2A_GPIO_Port, IN2A_Pin, RESET);
 4399              		.loc 1 906 3 is_stmt 1 view .LVU1062
 4400 0004 254D     		ldr	r5, .L252
 4401 0006 0022     		movs	r2, #0
 4402 0008 0121     		movs	r1, #1
 4403 000a 2846     		mov	r0, r5
 4404              	.LVL624:
 4405              		.loc 1 906 3 is_stmt 0 view .LVU1063
 4406 000c FFF7FEFF 		bl	HAL_GPIO_WritePin
 4407              	.LVL625:
 907:Core/Src/main.c ****   HAL_GPIO_WritePin(IN2B_GPIO_Port, IN2B_Pin, RESET);
 4408              		.loc 1 907 3 is_stmt 1 view .LVU1064
 4409 0010 0022     		movs	r2, #0
 4410 0012 0221     		movs	r1, #2
 4411 0014 2846     		mov	r0, r5
 4412 0016 FFF7FEFF 		bl	HAL_GPIO_WritePin
 4413              	.LVL626:
 908:Core/Src/main.c ****   HAL_GPIO_WritePin(IN4A_GPIO_Port, IN4A_Pin, RESET);
 4414              		.loc 1 908 3 view .LVU1065
 4415 001a 0022     		movs	r2, #0
 4416 001c 4FF48061 		mov	r1, #1024
 4417 0020 1F48     		ldr	r0, .L252+4
 4418 0022 FFF7FEFF 		bl	HAL_GPIO_WritePin
 4419              	.LVL627:
 909:Core/Src/main.c ****   HAL_GPIO_WritePin(IN4B_GPIO_Port, IN4B_Pin, RESET);
 4420              		.loc 1 909 3 view .LVU1066
 4421 0026 0022     		movs	r2, #0
 4422 0028 4FF40041 		mov	r1, #32768
 4423 002c 1D48     		ldr	r0, .L252+8
 4424 002e FFF7FEFF 		bl	HAL_GPIO_WritePin
 4425              	.LVL628:
 910:Core/Src/main.c ****   if (direction == 1)
 4426              		.loc 1 910 3 view .LVU1067
 4427              		.loc 1 910 6 is_stmt 0 view .LVU1068
 4428 0032 012C     		cmp	r4, #1
 4429 0034 1AD0     		beq	.L250
 911:Core/Src/main.c ****   {
 912:Core/Src/main.c ****     HAL_GPIO_WritePin(IN2B_GPIO_Port, IN2B_Pin, SET);
 913:Core/Src/main.c ****     HAL_GPIO_WritePin(IN4B_GPIO_Port, IN4B_Pin, SET);
 914:Core/Src/main.c ****   }
ARM GAS  C:\Users\86183\AppData\Local\Temp\ccdSsS0f.s 			page 100


 915:Core/Src/main.c ****   else if (direction == -1)
 4430              		.loc 1 915 8 is_stmt 1 view .LVU1069
 4431              		.loc 1 915 11 is_stmt 0 view .LVU1070
 4432 0036 B4F1FF3F 		cmp	r4, #-1
 4433 003a 23D0     		beq	.L251
 916:Core/Src/main.c ****   {
 917:Core/Src/main.c ****     HAL_GPIO_WritePin(IN2A_GPIO_Port, IN2A_Pin, SET);
 918:Core/Src/main.c ****     HAL_GPIO_WritePin(IN4A_GPIO_Port, IN4A_Pin, SET);
 919:Core/Src/main.c ****   }
 920:Core/Src/main.c ****   else
 921:Core/Src/main.c ****   {
 922:Core/Src/main.c ****     HAL_GPIO_WritePin(IN2A_GPIO_Port, IN2A_Pin, SET);
 4434              		.loc 1 922 5 is_stmt 1 view .LVU1071
 4435 003c 174C     		ldr	r4, .L252
 4436              	.LVL629:
 4437              		.loc 1 922 5 is_stmt 0 view .LVU1072
 4438 003e 0122     		movs	r2, #1
 4439 0040 1146     		mov	r1, r2
 4440 0042 2046     		mov	r0, r4
 4441 0044 FFF7FEFF 		bl	HAL_GPIO_WritePin
 4442              	.LVL630:
 923:Core/Src/main.c ****     HAL_GPIO_WritePin(IN2B_GPIO_Port, IN2B_Pin, SET);
 4443              		.loc 1 923 5 is_stmt 1 view .LVU1073
 4444 0048 0122     		movs	r2, #1
 4445 004a 0221     		movs	r1, #2
 4446 004c 2046     		mov	r0, r4
 4447 004e FFF7FEFF 		bl	HAL_GPIO_WritePin
 4448              	.LVL631:
 924:Core/Src/main.c ****     HAL_GPIO_WritePin(IN4A_GPIO_Port, IN4A_Pin, SET);
 4449              		.loc 1 924 5 view .LVU1074
 4450 0052 0122     		movs	r2, #1
 4451 0054 4FF48061 		mov	r1, #1024
 4452 0058 1148     		ldr	r0, .L252+4
 4453 005a FFF7FEFF 		bl	HAL_GPIO_WritePin
 4454              	.LVL632:
 925:Core/Src/main.c ****     HAL_GPIO_WritePin(IN4B_GPIO_Port, IN4B_Pin, SET);
 4455              		.loc 1 925 5 view .LVU1075
 4456 005e 0122     		movs	r2, #1
 4457 0060 4FF40041 		mov	r1, #32768
 4458 0064 0F48     		ldr	r0, .L252+8
 4459 0066 FFF7FEFF 		bl	HAL_GPIO_WritePin
 4460              	.LVL633:
 4461              	.L245:
 926:Core/Src/main.c ****   }
 927:Core/Src/main.c **** }
 4462              		.loc 1 927 1 is_stmt 0 view .LVU1076
 4463 006a 38BD     		pop	{r3, r4, r5, pc}
 4464              	.LVL634:
 4465              	.L250:
 912:Core/Src/main.c ****     HAL_GPIO_WritePin(IN4B_GPIO_Port, IN4B_Pin, SET);
 4466              		.loc 1 912 5 is_stmt 1 view .LVU1077
 4467 006c 0122     		movs	r2, #1
 4468 006e 0221     		movs	r1, #2
 4469 0070 2846     		mov	r0, r5
 4470 0072 FFF7FEFF 		bl	HAL_GPIO_WritePin
 4471              	.LVL635:
 913:Core/Src/main.c ****   }
ARM GAS  C:\Users\86183\AppData\Local\Temp\ccdSsS0f.s 			page 101


 4472              		.loc 1 913 5 view .LVU1078
 4473 0076 0122     		movs	r2, #1
 4474 0078 4FF40041 		mov	r1, #32768
 4475 007c 0948     		ldr	r0, .L252+8
 4476 007e FFF7FEFF 		bl	HAL_GPIO_WritePin
 4477              	.LVL636:
 4478 0082 F2E7     		b	.L245
 4479              	.L251:
 917:Core/Src/main.c ****     HAL_GPIO_WritePin(IN4A_GPIO_Port, IN4A_Pin, SET);
 4480              		.loc 1 917 5 view .LVU1079
 4481 0084 0122     		movs	r2, #1
 4482 0086 1146     		mov	r1, r2
 4483 0088 0448     		ldr	r0, .L252
 4484 008a FFF7FEFF 		bl	HAL_GPIO_WritePin
 4485              	.LVL637:
 918:Core/Src/main.c ****   }
 4486              		.loc 1 918 5 view .LVU1080
 4487 008e 0122     		movs	r2, #1
 4488 0090 4FF48061 		mov	r1, #1024
 4489 0094 0248     		ldr	r0, .L252+4
 4490 0096 FFF7FEFF 		bl	HAL_GPIO_WritePin
 4491              	.LVL638:
 4492 009a E6E7     		b	.L245
 4493              	.L253:
 4494              		.align	2
 4495              	.L252:
 4496 009c 000C0140 		.word	1073810432
 4497 00a0 00100140 		.word	1073811456
 4498 00a4 00080140 		.word	1073809408
 4499              		.cfi_endproc
 4500              	.LFE90:
 4502              		.global	__aeabi_fcmpge
 4503              		.section	.text.Move,"ax",%progbits
 4504              		.align	1
 4505              		.global	Move
 4506              		.syntax unified
 4507              		.thumb
 4508              		.thumb_func
 4509              		.fpu softvfp
 4511              	Move:
 4512              	.LVL639:
 4513              	.LFB81:
 588:Core/Src/main.c ****   angle *= 2 * 3.14159 / 360;
 4514              		.loc 1 588 1 view -0
 4515              		.cfi_startproc
 4516              		@ args = 0, pretend = 0, frame = 0
 4517              		@ frame_needed = 0, uses_anonymous_args = 0
 588:Core/Src/main.c ****   angle *= 2 * 3.14159 / 360;
 4518              		.loc 1 588 1 is_stmt 0 view .LVU1082
 4519 0000 2DE9F843 		push	{r3, r4, r5, r6, r7, r8, r9, lr}
 4520              	.LCFI33:
 4521              		.cfi_def_cfa_offset 32
 4522              		.cfi_offset 3, -32
 4523              		.cfi_offset 4, -28
 4524              		.cfi_offset 5, -24
 4525              		.cfi_offset 6, -20
 4526              		.cfi_offset 7, -16
ARM GAS  C:\Users\86183\AppData\Local\Temp\ccdSsS0f.s 			page 102


 4527              		.cfi_offset 8, -12
 4528              		.cfi_offset 9, -8
 4529              		.cfi_offset 14, -4
 4530 0004 0546     		mov	r5, r0
 589:Core/Src/main.c ****   angle += 0.785398;
 4531              		.loc 1 589 3 is_stmt 1 view .LVU1083
 589:Core/Src/main.c ****   angle += 0.785398;
 4532              		.loc 1 589 9 is_stmt 0 view .LVU1084
 4533 0006 0846     		mov	r0, r1
 4534              	.LVL640:
 589:Core/Src/main.c ****   angle += 0.785398;
 4535              		.loc 1 589 9 view .LVU1085
 4536 0008 FFF7FEFF 		bl	__aeabi_f2d
 4537              	.LVL641:
 589:Core/Src/main.c ****   angle += 0.785398;
 4538              		.loc 1 589 9 view .LVU1086
 4539 000c 3AA3     		adr	r3, .L266
 4540 000e D3E90023 		ldrd	r2, [r3]
 4541 0012 FFF7FEFF 		bl	__aeabi_dmul
 4542              	.LVL642:
 4543 0016 FFF7FEFF 		bl	__aeabi_d2f
 4544              	.LVL643:
 590:Core/Src/main.c ****   float v1, v2;
 4545              		.loc 1 590 3 is_stmt 1 view .LVU1087
 590:Core/Src/main.c ****   float v1, v2;
 4546              		.loc 1 590 9 is_stmt 0 view .LVU1088
 4547 001a FFF7FEFF 		bl	__aeabi_f2d
 4548              	.LVL644:
 590:Core/Src/main.c ****   float v1, v2;
 4549              		.loc 1 590 9 view .LVU1089
 4550 001e 38A3     		adr	r3, .L266+8
 4551 0020 D3E90023 		ldrd	r2, [r3]
 4552 0024 FFF7FEFF 		bl	__aeabi_dadd
 4553              	.LVL645:
 4554 0028 FFF7FEFF 		bl	__aeabi_d2f
 4555              	.LVL646:
 4556 002c 0446     		mov	r4, r0
 4557              	.LVL647:
 591:Core/Src/main.c ****   v1 = velocity * cos(angle);
 4558              		.loc 1 591 3 is_stmt 1 view .LVU1090
 592:Core/Src/main.c ****   v2 = velocity * sin(angle);
 4559              		.loc 1 592 3 view .LVU1091
 592:Core/Src/main.c ****   v2 = velocity * sin(angle);
 4560              		.loc 1 592 17 is_stmt 0 view .LVU1092
 4561 002e 2846     		mov	r0, r5
 4562              	.LVL648:
 592:Core/Src/main.c ****   v2 = velocity * sin(angle);
 4563              		.loc 1 592 17 view .LVU1093
 4564 0030 FFF7FEFF 		bl	__aeabi_f2d
 4565              	.LVL649:
 4566 0034 0646     		mov	r6, r0
 4567 0036 0F46     		mov	r7, r1
 592:Core/Src/main.c ****   v2 = velocity * sin(angle);
 4568              		.loc 1 592 19 view .LVU1094
 4569 0038 2046     		mov	r0, r4
 4570 003a FFF7FEFF 		bl	__aeabi_f2d
 4571              	.LVL650:
ARM GAS  C:\Users\86183\AppData\Local\Temp\ccdSsS0f.s 			page 103


 4572 003e 8046     		mov	r8, r0
 4573 0040 8946     		mov	r9, r1
 4574 0042 FFF7FEFF 		bl	cos
 4575              	.LVL651:
 4576 0046 0246     		mov	r2, r0
 4577 0048 0B46     		mov	r3, r1
 592:Core/Src/main.c ****   v2 = velocity * sin(angle);
 4578              		.loc 1 592 17 view .LVU1095
 4579 004a 3046     		mov	r0, r6
 4580 004c 3946     		mov	r1, r7
 4581 004e FFF7FEFF 		bl	__aeabi_dmul
 4582              	.LVL652:
 592:Core/Src/main.c ****   v2 = velocity * sin(angle);
 4583              		.loc 1 592 6 view .LVU1096
 4584 0052 FFF7FEFF 		bl	__aeabi_d2f
 4585              	.LVL653:
 4586 0056 0546     		mov	r5, r0
 4587              	.LVL654:
 593:Core/Src/main.c ****   if (v1 >= 0)
 4588              		.loc 1 593 3 is_stmt 1 view .LVU1097
 593:Core/Src/main.c ****   if (v1 >= 0)
 4589              		.loc 1 593 19 is_stmt 0 view .LVU1098
 4590 0058 4046     		mov	r0, r8
 4591              	.LVL655:
 593:Core/Src/main.c ****   if (v1 >= 0)
 4592              		.loc 1 593 19 view .LVU1099
 4593 005a 4946     		mov	r1, r9
 4594 005c FFF7FEFF 		bl	sin
 4595              	.LVL656:
 4596 0060 0246     		mov	r2, r0
 4597 0062 0B46     		mov	r3, r1
 593:Core/Src/main.c ****   if (v1 >= 0)
 4598              		.loc 1 593 17 view .LVU1100
 4599 0064 3046     		mov	r0, r6
 4600 0066 3946     		mov	r1, r7
 4601 0068 FFF7FEFF 		bl	__aeabi_dmul
 4602              	.LVL657:
 593:Core/Src/main.c ****   if (v1 >= 0)
 4603              		.loc 1 593 6 view .LVU1101
 4604 006c FFF7FEFF 		bl	__aeabi_d2f
 4605              	.LVL658:
 4606 0070 0446     		mov	r4, r0
 4607              	.LVL659:
 594:Core/Src/main.c ****   {
 4608              		.loc 1 594 3 is_stmt 1 view .LVU1102
 594:Core/Src/main.c ****   {
 4609              		.loc 1 594 6 is_stmt 0 view .LVU1103
 4610 0072 0021     		movs	r1, #0
 4611 0074 2846     		mov	r0, r5
 4612              	.LVL660:
 594:Core/Src/main.c ****   {
 4613              		.loc 1 594 6 view .LVU1104
 4614 0076 FFF7FEFF 		bl	__aeabi_fcmpge
 4615              	.LVL661:
 4616 007a E0B1     		cbz	r0, .L263
 596:Core/Src/main.c ****     Set_Speed(v1, 0);
 4617              		.loc 1 596 5 is_stmt 1 view .LVU1105
ARM GAS  C:\Users\86183\AppData\Local\Temp\ccdSsS0f.s 			page 104


 4618 007c 0120     		movs	r0, #1
 4619 007e FFF7FEFF 		bl	Set_LF_Direction
 4620              	.LVL662:
 597:Core/Src/main.c ****     Set_Speed(v1, 2);
 4621              		.loc 1 597 5 view .LVU1106
 4622 0082 0021     		movs	r1, #0
 4623 0084 2846     		mov	r0, r5
 4624 0086 FFF7FEFF 		bl	Set_Speed
 4625              	.LVL663:
 598:Core/Src/main.c ****   }
 4626              		.loc 1 598 5 view .LVU1107
 4627 008a 0221     		movs	r1, #2
 4628 008c 2846     		mov	r0, r5
 4629 008e FFF7FEFF 		bl	Set_Speed
 4630              	.LVL664:
 4631              	.L257:
 607:Core/Src/main.c ****   {
 4632              		.loc 1 607 3 view .LVU1108
 607:Core/Src/main.c ****   {
 4633              		.loc 1 607 6 is_stmt 0 view .LVU1109
 4634 0092 0021     		movs	r1, #0
 4635 0094 2046     		mov	r0, r4
 4636 0096 FFF7FEFF 		bl	__aeabi_fcmpge
 4637              	.LVL665:
 4638 009a D8B1     		cbz	r0, .L264
 609:Core/Src/main.c ****     Set_Speed(v2, 1);
 4639              		.loc 1 609 5 is_stmt 1 view .LVU1110
 4640 009c 0120     		movs	r0, #1
 4641 009e FFF7FEFF 		bl	Set_RF_Direction
 4642              	.LVL666:
 610:Core/Src/main.c ****     Set_Speed(v2, 3);
 4643              		.loc 1 610 5 view .LVU1111
 4644 00a2 0121     		movs	r1, #1
 4645 00a4 2046     		mov	r0, r4
 4646 00a6 FFF7FEFF 		bl	Set_Speed
 4647              	.LVL667:
 611:Core/Src/main.c ****   }
 4648              		.loc 1 611 5 view .LVU1112
 4649 00aa 0321     		movs	r1, #3
 4650 00ac 2046     		mov	r0, r4
 4651 00ae FFF7FEFF 		bl	Set_Speed
 4652              	.LVL668:
 4653              	.L254:
 619:Core/Src/main.c **** 
 4654              		.loc 1 619 1 is_stmt 0 view .LVU1113
 4655 00b2 BDE8F883 		pop	{r3, r4, r5, r6, r7, r8, r9, pc}
 4656              	.LVL669:
 4657              	.L263:
 602:Core/Src/main.c ****     Set_Speed(-v1, 0);
 4658              		.loc 1 602 5 is_stmt 1 view .LVU1114
 4659 00b6 4FF0FF30 		mov	r0, #-1
 4660 00ba FFF7FEFF 		bl	Set_LF_Direction
 4661              	.LVL670:
 603:Core/Src/main.c ****     Set_Speed(-v1, 2);
 4662              		.loc 1 603 5 view .LVU1115
 4663 00be 05F10045 		add	r5, r5, #-2147483648
 4664              	.LVL671:
ARM GAS  C:\Users\86183\AppData\Local\Temp\ccdSsS0f.s 			page 105


 603:Core/Src/main.c ****     Set_Speed(-v1, 2);
 4665              		.loc 1 603 5 is_stmt 0 view .LVU1116
 4666 00c2 0021     		movs	r1, #0
 4667 00c4 2846     		mov	r0, r5
 4668 00c6 FFF7FEFF 		bl	Set_Speed
 4669              	.LVL672:
 604:Core/Src/main.c ****   }
 4670              		.loc 1 604 5 is_stmt 1 view .LVU1117
 4671 00ca 0221     		movs	r1, #2
 4672 00cc 2846     		mov	r0, r5
 4673 00ce FFF7FEFF 		bl	Set_Speed
 4674              	.LVL673:
 4675 00d2 DEE7     		b	.L257
 4676              	.L264:
 615:Core/Src/main.c ****     Set_Speed(-v2, 1);
 4677              		.loc 1 615 5 view .LVU1118
 4678 00d4 4FF0FF30 		mov	r0, #-1
 4679 00d8 FFF7FEFF 		bl	Set_RF_Direction
 4680              	.LVL674:
 616:Core/Src/main.c ****     Set_Speed(-v2, 3);
 4681              		.loc 1 616 5 view .LVU1119
 4682 00dc 04F10044 		add	r4, r4, #-2147483648
 4683              	.LVL675:
 616:Core/Src/main.c ****     Set_Speed(-v2, 3);
 4684              		.loc 1 616 5 is_stmt 0 view .LVU1120
 4685 00e0 0121     		movs	r1, #1
 4686 00e2 2046     		mov	r0, r4
 4687 00e4 FFF7FEFF 		bl	Set_Speed
 4688              	.LVL676:
 617:Core/Src/main.c ****   }
 4689              		.loc 1 617 5 is_stmt 1 view .LVU1121
 4690 00e8 0321     		movs	r1, #3
 4691 00ea 2046     		mov	r0, r4
 4692 00ec FFF7FEFF 		bl	Set_Speed
 4693              	.LVL677:
 619:Core/Src/main.c **** 
 4694              		.loc 1 619 1 is_stmt 0 view .LVU1122
 4695 00f0 DFE7     		b	.L254
 4696              	.L267:
 4697 00f2 00BFAFF3 		.align	3
 4697      0080
 4698              	.L266:
 4699 00f8 70E20DA5 		.word	-1525816720
 4700 00fc 45DF913F 		.word	1066524485
 4701 0100 7A008BFC 		.word	-57999238
 4702 0104 FA21E93F 		.word	1072243194
 4703              		.cfi_endproc
 4704              	.LFE81:
 4706              		.global	__aeabi_dsub
 4707              		.global	__aeabi_dcmplt
 4708              		.section	.text.MoveTo,"ax",%progbits
 4709              		.align	1
 4710              		.global	MoveTo
 4711              		.syntax unified
 4712              		.thumb
 4713              		.thumb_func
 4714              		.fpu softvfp
ARM GAS  C:\Users\86183\AppData\Local\Temp\ccdSsS0f.s 			page 106


 4716              	MoveTo:
 4717              	.LVL678:
 4718              	.LFB82:
 622:Core/Src/main.c ****   if (x < 7 || x > 248 || y < 7 || y > 248)
 4719              		.loc 1 622 1 is_stmt 1 view -0
 4720              		.cfi_startproc
 4721              		@ args = 0, pretend = 0, frame = 32
 4722              		@ frame_needed = 0, uses_anonymous_args = 0
 622:Core/Src/main.c ****   if (x < 7 || x > 248 || y < 7 || y > 248)
 4723              		.loc 1 622 1 is_stmt 0 view .LVU1124
 4724 0000 2DE9F04F 		push	{r4, r5, r6, r7, r8, r9, r10, fp, lr}
 4725              	.LCFI34:
 4726              		.cfi_def_cfa_offset 36
 4727              		.cfi_offset 4, -36
 4728              		.cfi_offset 5, -32
 4729              		.cfi_offset 6, -28
 4730              		.cfi_offset 7, -24
 4731              		.cfi_offset 8, -20
 4732              		.cfi_offset 9, -16
 4733              		.cfi_offset 10, -12
 4734              		.cfi_offset 11, -8
 4735              		.cfi_offset 14, -4
 4736 0004 89B0     		sub	sp, sp, #36
 4737              	.LCFI35:
 4738              		.cfi_def_cfa_offset 72
 4739 0006 8046     		mov	r8, r0
 4740 0008 0F46     		mov	r7, r1
 623:Core/Src/main.c ****     return;
 4741              		.loc 1 623 3 is_stmt 1 view .LVU1125
 623:Core/Src/main.c ****     return;
 4742              		.loc 1 623 6 is_stmt 0 view .LVU1126
 4743 000a 9349     		ldr	r1, .L307+16
 4744              	.LVL679:
 623:Core/Src/main.c ****     return;
 4745              		.loc 1 623 6 view .LVU1127
 4746 000c FFF7FEFF 		bl	__aeabi_fcmplt
 4747              	.LVL680:
 623:Core/Src/main.c ****     return;
 4748              		.loc 1 623 6 view .LVU1128
 4749 0010 70B9     		cbnz	r0, .L268
 623:Core/Src/main.c ****     return;
 4750              		.loc 1 623 13 discriminator 1 view .LVU1129
 4751 0012 9249     		ldr	r1, .L307+20
 4752 0014 4046     		mov	r0, r8
 4753 0016 FFF7FEFF 		bl	__aeabi_fcmpgt
 4754              	.LVL681:
 4755 001a 48B9     		cbnz	r0, .L268
 623:Core/Src/main.c ****     return;
 4756              		.loc 1 623 24 discriminator 2 view .LVU1130
 4757 001c 8E49     		ldr	r1, .L307+16
 4758 001e 3846     		mov	r0, r7
 4759 0020 FFF7FEFF 		bl	__aeabi_fcmplt
 4760              	.LVL682:
 4761 0024 20B9     		cbnz	r0, .L268
 623:Core/Src/main.c ****     return;
 4762              		.loc 1 623 33 discriminator 3 view .LVU1131
 4763 0026 8D49     		ldr	r1, .L307+20
ARM GAS  C:\Users\86183\AppData\Local\Temp\ccdSsS0f.s 			page 107


 4764 0028 3846     		mov	r0, r7
 4765 002a FFF7FEFF 		bl	__aeabi_fcmpgt
 4766              	.LVL683:
 4767 002e 10B1     		cbz	r0, .L300
 4768              	.L268:
 689:Core/Src/main.c **** 
 4769              		.loc 1 689 1 view .LVU1132
 4770 0030 09B0     		add	sp, sp, #36
 4771              	.LCFI36:
 4772              		.cfi_remember_state
 4773              		.cfi_def_cfa_offset 36
 4774              		@ sp needed
 4775 0032 BDE8F08F 		pop	{r4, r5, r6, r7, r8, r9, r10, fp, pc}
 4776              	.LVL684:
 4777              	.L300:
 4778              	.LCFI37:
 4779              		.cfi_restore_state
 625:Core/Src/main.c ****   struct MYCOORD coord = userGetCarPos();
 4780              		.loc 1 625 3 is_stmt 1 discriminator 3 view .LVU1133
 626:Core/Src/main.c ****   float errX = x - coord.x;
 4781              		.loc 1 626 3 discriminator 3 view .LVU1134
 626:Core/Src/main.c ****   float errX = x - coord.x;
 4782              		.loc 1 626 26 is_stmt 0 discriminator 3 view .LVU1135
 4783 0036 05A8     		add	r0, sp, #20
 4784 0038 FFF7FEFF 		bl	userGetCarPos
 4785              	.LVL685:
 627:Core/Src/main.c ****   float errY = y - coord.y;
 4786              		.loc 1 627 3 is_stmt 1 discriminator 3 view .LVU1136
 627:Core/Src/main.c ****   float errY = y - coord.y;
 4787              		.loc 1 627 9 is_stmt 0 discriminator 3 view .LVU1137
 4788 003c 0599     		ldr	r1, [sp, #20]	@ float
 4789 003e 4046     		mov	r0, r8
 4790 0040 FFF7FEFF 		bl	__aeabi_fsub
 4791              	.LVL686:
 4792 0044 8346     		mov	fp, r0
 4793              	.LVL687:
 628:Core/Src/main.c ****   float targetAngle = 0, difference = sqrt(errX * errX + errY * errY);
 4794              		.loc 1 628 3 is_stmt 1 discriminator 3 view .LVU1138
 628:Core/Src/main.c ****   float targetAngle = 0, difference = sqrt(errX * errX + errY * errY);
 4795              		.loc 1 628 9 is_stmt 0 discriminator 3 view .LVU1139
 4796 0046 0699     		ldr	r1, [sp, #24]	@ float
 4797 0048 3846     		mov	r0, r7
 4798              	.LVL688:
 628:Core/Src/main.c ****   float targetAngle = 0, difference = sqrt(errX * errX + errY * errY);
 4799              		.loc 1 628 9 discriminator 3 view .LVU1140
 4800 004a FFF7FEFF 		bl	__aeabi_fsub
 4801              	.LVL689:
 4802 004e 0446     		mov	r4, r0
 4803              	.LVL690:
 629:Core/Src/main.c ****   clearDistance();
 4804              		.loc 1 629 3 is_stmt 1 discriminator 3 view .LVU1141
 629:Core/Src/main.c ****   clearDistance();
 4805              		.loc 1 629 49 is_stmt 0 discriminator 3 view .LVU1142
 4806 0050 5946     		mov	r1, fp
 4807 0052 5846     		mov	r0, fp
 4808              	.LVL691:
 629:Core/Src/main.c ****   clearDistance();
ARM GAS  C:\Users\86183\AppData\Local\Temp\ccdSsS0f.s 			page 108


 4809              		.loc 1 629 49 discriminator 3 view .LVU1143
 4810 0054 FFF7FEFF 		bl	__aeabi_fmul
 4811              	.LVL692:
 4812 0058 0546     		mov	r5, r0
 629:Core/Src/main.c ****   clearDistance();
 4813              		.loc 1 629 63 discriminator 3 view .LVU1144
 4814 005a 2146     		mov	r1, r4
 4815 005c 2046     		mov	r0, r4
 4816 005e FFF7FEFF 		bl	__aeabi_fmul
 4817              	.LVL693:
 4818 0062 0146     		mov	r1, r0
 629:Core/Src/main.c ****   clearDistance();
 4819              		.loc 1 629 56 discriminator 3 view .LVU1145
 4820 0064 2846     		mov	r0, r5
 4821 0066 FFF7FEFF 		bl	__aeabi_fadd
 4822              	.LVL694:
 629:Core/Src/main.c ****   clearDistance();
 4823              		.loc 1 629 39 discriminator 3 view .LVU1146
 4824 006a FFF7FEFF 		bl	__aeabi_f2d
 4825              	.LVL695:
 4826 006e FFF7FEFF 		bl	sqrt
 4827              	.LVL696:
 629:Core/Src/main.c ****   clearDistance();
 4828              		.loc 1 629 26 discriminator 3 view .LVU1147
 4829 0072 FFF7FEFF 		bl	__aeabi_d2f
 4830              	.LVL697:
 4831 0076 0646     		mov	r6, r0
 4832              	.LVL698:
 630:Core/Src/main.c ****   int flag = 0;
 4833              		.loc 1 630 3 is_stmt 1 discriminator 3 view .LVU1148
 4834 0078 FFF7FEFF 		bl	clearDistance
 4835              	.LVL699:
 631:Core/Src/main.c ****   if (STATE == (uint8_t)GET_PACKAGE)
 4836              		.loc 1 631 3 discriminator 3 view .LVU1149
 632:Core/Src/main.c ****     flag = getCarMineSumNum();
 4837              		.loc 1 632 3 discriminator 3 view .LVU1150
 632:Core/Src/main.c ****     flag = getCarMineSumNum();
 4838              		.loc 1 632 13 is_stmt 0 discriminator 3 view .LVU1151
 4839 007c 784B     		ldr	r3, .L307+24
 4840 007e 1B78     		ldrb	r3, [r3]	@ zero_extendqisi2
 632:Core/Src/main.c ****     flag = getCarMineSumNum();
 4841              		.loc 1 632 6 discriminator 3 view .LVU1152
 4842 0080 13B1     		cbz	r3, .L301
 631:Core/Src/main.c ****   if (STATE == (uint8_t)GET_PACKAGE)
 4843              		.loc 1 631 7 view .LVU1153
 4844 0082 4FF00009 		mov	r9, #0
 4845 0086 A8E0     		b	.L286
 4846              	.L301:
 633:Core/Src/main.c ****   while (difference > 3)
 4847              		.loc 1 633 5 is_stmt 1 view .LVU1154
 633:Core/Src/main.c ****   while (difference > 3)
 4848              		.loc 1 633 12 is_stmt 0 view .LVU1155
 4849 0088 FFF7FEFF 		bl	getCarMineSumNum
 4850              	.LVL700:
 633:Core/Src/main.c ****   while (difference > 3)
 4851              		.loc 1 633 10 view .LVU1156
 4852 008c 8146     		mov	r9, r0
ARM GAS  C:\Users\86183\AppData\Local\Temp\ccdSsS0f.s 			page 109


 4853              	.LVL701:
 633:Core/Src/main.c ****   while (difference > 3)
 4854              		.loc 1 633 10 view .LVU1157
 4855 008e A4E0     		b	.L286
 4856              	.LVL702:
 4857              	.L304:
 637:Core/Src/main.c ****       break;
 4858              		.loc 1 637 49 discriminator 1 view .LVU1158
 4859 0090 FFF7FEFF 		bl	getCarMineSumNum
 4860              	.LVL703:
 637:Core/Src/main.c ****       break;
 4861              		.loc 1 637 39 discriminator 1 view .LVU1159
 4862 0094 4845     		cmp	r0, r9
 4863 0096 40F3AE80 		ble	.L274
 637:Core/Src/main.c ****       break;
 4864              		.loc 1 637 39 discriminator 1 view .LVU1160
 4865 009a C9E7     		b	.L268
 4866              	.L305:
 639:Core/Src/main.c ****       break;
 4867              		.loc 1 639 43 discriminator 1 view .LVU1161
 4868 009c 7149     		ldr	r1, .L307+28
 4869 009e 3046     		mov	r0, r6
 4870 00a0 FFF7FEFF 		bl	__aeabi_fcmplt
 4871              	.LVL704:
 4872 00a4 0028     		cmp	r0, #0
 4873 00a6 00F0AB80 		beq	.L276
 639:Core/Src/main.c ****       break;
 4874              		.loc 1 639 43 discriminator 1 view .LVU1162
 4875 00aa C1E7     		b	.L268
 4876              	.L306:
 650:Core/Src/main.c ****       else
 4877              		.loc 1 650 18 view .LVU1163
 4878 00ac DFF8B8A1 		ldr	r10, .L307+32
 4879 00b0 16E0     		b	.L277
 4880              	.L297:
 654:Core/Src/main.c ****     {
 4881              		.loc 1 654 10 is_stmt 1 view .LVU1164
 654:Core/Src/main.c ****     {
 4882              		.loc 1 654 13 is_stmt 0 view .LVU1165
 4883 00b2 6E49     		ldr	r1, .L307+36
 4884 00b4 3046     		mov	r0, r6
 4885 00b6 FFF7FEFF 		bl	__aeabi_fcmplt
 4886              	.LVL705:
 4887 00ba 38B1     		cbz	r0, .L298
 656:Core/Src/main.c ****         velocity = 17;
 4888              		.loc 1 656 7 is_stmt 1 view .LVU1166
 656:Core/Src/main.c ****         velocity = 17;
 4889              		.loc 1 656 10 is_stmt 0 view .LVU1167
 4890 00bc 012D     		cmp	r5, #1
 4891 00be 02D0     		beq	.L302
 659:Core/Src/main.c ****     }
 4892              		.loc 1 659 18 view .LVU1168
 4893 00c0 DFF8ACA1 		ldr	r10, .L307+40
 4894 00c4 0CE0     		b	.L277
 4895              	.L302:
 657:Core/Src/main.c ****       else
 4896              		.loc 1 657 18 view .LVU1169
ARM GAS  C:\Users\86183\AppData\Local\Temp\ccdSsS0f.s 			page 110


 4897 00c6 DFF8ACA1 		ldr	r10, .L307+44
 4898 00ca 09E0     		b	.L277
 4899              	.L298:
 663:Core/Src/main.c ****         velocity = 20;
 4900              		.loc 1 663 7 is_stmt 1 view .LVU1170
 663:Core/Src/main.c ****         velocity = 20;
 4901              		.loc 1 663 10 is_stmt 0 view .LVU1171
 4902 00cc 012D     		cmp	r5, #1
 4903 00ce 02D0     		beq	.L303
 666:Core/Src/main.c ****     }
 4904              		.loc 1 666 18 view .LVU1172
 4905 00d0 DFF8A4A1 		ldr	r10, .L307+48
 4906 00d4 04E0     		b	.L277
 4907              	.L303:
 664:Core/Src/main.c ****       else
 4908              		.loc 1 664 18 view .LVU1173
 4909 00d6 DFF8A4A1 		ldr	r10, .L307+52
 4910 00da 01E0     		b	.L277
 4911              	.L289:
 642:Core/Src/main.c ****     else if (difference < 20)
 4912              		.loc 1 642 16 view .LVU1174
 4913 00dc DFF8A0A1 		ldr	r10, .L307+56
 4914              	.L277:
 4915              	.LVL706:
 669:Core/Src/main.c ****     Move(velocity, targetAngle);
 4916              		.loc 1 669 5 is_stmt 1 view .LVU1175
 669:Core/Src/main.c ****     Move(velocity, targetAngle);
 4917              		.loc 1 669 19 is_stmt 0 view .LVU1176
 4918 00e0 2046     		mov	r0, r4
 4919 00e2 FFF7FEFF 		bl	__aeabi_f2d
 4920              	.LVL707:
 4921 00e6 0446     		mov	r4, r0
 4922              	.LVL708:
 669:Core/Src/main.c ****     Move(velocity, targetAngle);
 4923              		.loc 1 669 19 view .LVU1177
 4924 00e8 0D46     		mov	r5, r1
 4925 00ea 5846     		mov	r0, fp
 4926 00ec FFF7FEFF 		bl	__aeabi_f2d
 4927              	.LVL709:
 4928 00f0 2246     		mov	r2, r4
 4929 00f2 2B46     		mov	r3, r5
 4930 00f4 FFF7FEFF 		bl	atan2
 4931              	.LVL710:
 669:Core/Src/main.c ****     Move(velocity, targetAngle);
 4932              		.loc 1 669 37 view .LVU1178
 4933 00f8 53A3     		adr	r3, .L307
 4934 00fa D3E90023 		ldrd	r2, [r3]
 4935 00fe FFF7FEFF 		bl	__aeabi_dmul
 4936              	.LVL711:
 4937 0102 0446     		mov	r4, r0
 4938 0104 0D46     		mov	r5, r1
 669:Core/Src/main.c ****     Move(velocity, targetAngle);
 4939              		.loc 1 669 46 view .LVU1179
 4940 0106 5F4B     		ldr	r3, .L307+60
 4941 0108 1868     		ldr	r0, [r3]	@ float
 4942 010a FFF7FEFF 		bl	__aeabi_f2d
 4943              	.LVL712:
ARM GAS  C:\Users\86183\AppData\Local\Temp\ccdSsS0f.s 			page 111


 4944 010e 2246     		mov	r2, r4
 4945 0110 2B46     		mov	r3, r5
 4946 0112 FFF7FEFF 		bl	__aeabi_dadd
 4947              	.LVL713:
 4948 0116 0446     		mov	r4, r0
 4949 0118 0D46     		mov	r5, r1
 669:Core/Src/main.c ****     Move(velocity, targetAngle);
 4950              		.loc 1 669 64 view .LVU1180
 4951 011a FFF7FEFF 		bl	GetYaw
 4952              	.LVL714:
 4953 011e FFF7FEFF 		bl	__aeabi_f2d
 4954              	.LVL715:
 4955 0122 0246     		mov	r2, r0
 4956 0124 0B46     		mov	r3, r1
 669:Core/Src/main.c ****     Move(velocity, targetAngle);
 4957              		.loc 1 669 62 view .LVU1181
 4958 0126 2046     		mov	r0, r4
 4959 0128 2946     		mov	r1, r5
 4960 012a FFF7FEFF 		bl	__aeabi_dsub
 4961              	.LVL716:
 669:Core/Src/main.c ****     Move(velocity, targetAngle);
 4962              		.loc 1 669 17 view .LVU1182
 4963 012e FFF7FEFF 		bl	__aeabi_d2f
 4964              	.LVL717:
 4965 0132 0146     		mov	r1, r0
 4966              	.LVL718:
 670:Core/Src/main.c **** 
 4967              		.loc 1 670 5 is_stmt 1 view .LVU1183
 4968 0134 5046     		mov	r0, r10
 4969              	.LVL719:
 670:Core/Src/main.c **** 
 4970              		.loc 1 670 5 is_stmt 0 view .LVU1184
 4971 0136 FFF7FEFF 		bl	Move
 4972              	.LVL720:
 672:Core/Src/main.c ****     {
 4973              		.loc 1 672 5 is_stmt 1 view .LVU1185
 4974              	.L283:
 672:Core/Src/main.c ****     {
 4975              		.loc 1 672 11 view .LVU1186
 672:Core/Src/main.c ****     {
 4976              		.loc 1 672 12 is_stmt 0 view .LVU1187
 4977 013a FFF7FEFF 		bl	getDistance
 4978              	.LVL721:
 4979 013e FFF7FEFF 		bl	__aeabi_f2d
 4980              	.LVL722:
 4981 0142 0446     		mov	r4, r0
 4982 0144 0D46     		mov	r5, r1
 672:Core/Src/main.c ****     {
 4983              		.loc 1 672 33 view .LVU1188
 4984 0146 3046     		mov	r0, r6
 4985 0148 FFF7FEFF 		bl	__aeabi_f2d
 4986              	.LVL723:
 4987 014c 40A3     		adr	r3, .L307+8
 4988 014e D3E90023 		ldrd	r2, [r3]
 4989 0152 FFF7FEFF 		bl	__aeabi_dmul
 4990              	.LVL724:
 4991 0156 0246     		mov	r2, r0
ARM GAS  C:\Users\86183\AppData\Local\Temp\ccdSsS0f.s 			page 112


 4992 0158 0B46     		mov	r3, r1
 672:Core/Src/main.c ****     {
 4993              		.loc 1 672 11 view .LVU1189
 4994 015a 2046     		mov	r0, r4
 4995 015c 2946     		mov	r1, r5
 4996 015e FFF7FEFF 		bl	__aeabi_dcmplt
 4997              	.LVL725:
 4998 0162 50B1     		cbz	r0, .L284
 674:Core/Src/main.c ****       if (STATE == (uint8_t)GET_PACKAGE && flag < getCarMineSumNum())
 4999              		.loc 1 674 7 is_stmt 1 view .LVU1190
 5000 0164 1420     		movs	r0, #20
 5001 0166 FFF7FEFF 		bl	HAL_Delay
 5002              	.LVL726:
 675:Core/Src/main.c ****         break;
 5003              		.loc 1 675 7 view .LVU1191
 675:Core/Src/main.c ****         break;
 5004              		.loc 1 675 17 is_stmt 0 view .LVU1192
 5005 016a 3D4B     		ldr	r3, .L307+24
 5006 016c 1B78     		ldrb	r3, [r3]	@ zero_extendqisi2
 675:Core/Src/main.c ****         break;
 5007              		.loc 1 675 10 view .LVU1193
 5008 016e 002B     		cmp	r3, #0
 5009 0170 E3D1     		bne	.L283
 675:Core/Src/main.c ****         break;
 5010              		.loc 1 675 51 discriminator 1 view .LVU1194
 5011 0172 FFF7FEFF 		bl	getCarMineSumNum
 5012              	.LVL727:
 675:Core/Src/main.c ****         break;
 5013              		.loc 1 675 41 discriminator 1 view .LVU1195
 5014 0176 4845     		cmp	r0, r9
 5015 0178 DFDD     		ble	.L283
 5016              	.L284:
 679:Core/Src/main.c ****     Set_RF_Direction(0);
 5017              		.loc 1 679 5 is_stmt 1 view .LVU1196
 5018 017a 0020     		movs	r0, #0
 5019 017c FFF7FEFF 		bl	Set_LF_Direction
 5020              	.LVL728:
 680:Core/Src/main.c ****     HAL_Delay(200);
 5021              		.loc 1 680 5 view .LVU1197
 5022 0180 0020     		movs	r0, #0
 5023 0182 FFF7FEFF 		bl	Set_RF_Direction
 5024              	.LVL729:
 681:Core/Src/main.c ****     // while (STATE == (uint8_t)PUT_PACKAGE && userGetMineNum(_mineType) != 0)
 5025              		.loc 1 681 5 view .LVU1198
 5026 0186 C820     		movs	r0, #200
 5027 0188 FFF7FEFF 		bl	HAL_Delay
 5028              	.LVL730:
 684:Core/Src/main.c ****     errX = x - coord.x;
 5029              		.loc 1 684 5 view .LVU1199
 684:Core/Src/main.c ****     errX = x - coord.x;
 5030              		.loc 1 684 13 is_stmt 0 view .LVU1200
 5031 018c 6C46     		mov	r4, sp
 5032 018e 2046     		mov	r0, r4
 5033 0190 FFF7FEFF 		bl	userGetCarPos
 5034              	.LVL731:
 5035 0194 94E80700 		ldm	r4, {r0, r1, r2}
 5036 0198 08AB     		add	r3, sp, #32
ARM GAS  C:\Users\86183\AppData\Local\Temp\ccdSsS0f.s 			page 113


 5037 019a 03E90700 		stmdb	r3, {r0, r1, r2}
 685:Core/Src/main.c ****     errY = y - coord.y;
 5038              		.loc 1 685 5 is_stmt 1 view .LVU1201
 685:Core/Src/main.c ****     errY = y - coord.y;
 5039              		.loc 1 685 10 is_stmt 0 view .LVU1202
 5040 019e 0599     		ldr	r1, [sp, #20]	@ float
 5041 01a0 4046     		mov	r0, r8
 5042 01a2 FFF7FEFF 		bl	__aeabi_fsub
 5043              	.LVL732:
 5044 01a6 8346     		mov	fp, r0
 5045              	.LVL733:
 686:Core/Src/main.c ****     difference = sqrt(errX * errX + errY * errY);
 5046              		.loc 1 686 5 is_stmt 1 view .LVU1203
 686:Core/Src/main.c ****     difference = sqrt(errX * errX + errY * errY);
 5047              		.loc 1 686 10 is_stmt 0 view .LVU1204
 5048 01a8 0699     		ldr	r1, [sp, #24]	@ float
 5049 01aa 3846     		mov	r0, r7
 5050              	.LVL734:
 686:Core/Src/main.c ****     difference = sqrt(errX * errX + errY * errY);
 5051              		.loc 1 686 10 view .LVU1205
 5052 01ac FFF7FEFF 		bl	__aeabi_fsub
 5053              	.LVL735:
 5054 01b0 0446     		mov	r4, r0
 5055              	.LVL736:
 687:Core/Src/main.c ****   }
 5056              		.loc 1 687 5 is_stmt 1 view .LVU1206
 687:Core/Src/main.c ****   }
 5057              		.loc 1 687 28 is_stmt 0 view .LVU1207
 5058 01b2 5946     		mov	r1, fp
 5059 01b4 5846     		mov	r0, fp
 5060              	.LVL737:
 687:Core/Src/main.c ****   }
 5061              		.loc 1 687 28 view .LVU1208
 5062 01b6 FFF7FEFF 		bl	__aeabi_fmul
 5063              	.LVL738:
 5064 01ba 0546     		mov	r5, r0
 687:Core/Src/main.c ****   }
 5065              		.loc 1 687 42 view .LVU1209
 5066 01bc 2146     		mov	r1, r4
 5067 01be 2046     		mov	r0, r4
 5068 01c0 FFF7FEFF 		bl	__aeabi_fmul
 5069              	.LVL739:
 5070 01c4 0146     		mov	r1, r0
 687:Core/Src/main.c ****   }
 5071              		.loc 1 687 35 view .LVU1210
 5072 01c6 2846     		mov	r0, r5
 5073 01c8 FFF7FEFF 		bl	__aeabi_fadd
 5074              	.LVL740:
 687:Core/Src/main.c ****   }
 5075              		.loc 1 687 18 view .LVU1211
 5076 01cc FFF7FEFF 		bl	__aeabi_f2d
 5077              	.LVL741:
 5078 01d0 FFF7FEFF 		bl	sqrt
 5079              	.LVL742:
 687:Core/Src/main.c ****   }
 5080              		.loc 1 687 16 view .LVU1212
 5081 01d4 FFF7FEFF 		bl	__aeabi_d2f
ARM GAS  C:\Users\86183\AppData\Local\Temp\ccdSsS0f.s 			page 114


 5082              	.LVL743:
 5083 01d8 0646     		mov	r6, r0
 5084              	.LVL744:
 5085              	.L286:
 634:Core/Src/main.c ****   {
 5086              		.loc 1 634 9 is_stmt 1 view .LVU1213
 5087 01da 2949     		ldr	r1, .L307+56
 5088 01dc 3046     		mov	r0, r6
 5089 01de FFF7FEFF 		bl	__aeabi_fcmpgt
 5090              	.LVL745:
 5091 01e2 0028     		cmp	r0, #0
 5092 01e4 3FF424AF 		beq	.L268
 636:Core/Src/main.c ****     if (STATE == (uint8_t)GET_PACKAGE && flag < getCarMineSumNum())
 5093              		.loc 1 636 5 view .LVU1214
 5094 01e8 FFF7FEFF 		bl	clearDistance
 5095              	.LVL746:
 637:Core/Src/main.c ****       break;
 5096              		.loc 1 637 5 view .LVU1215
 637:Core/Src/main.c ****       break;
 5097              		.loc 1 637 15 is_stmt 0 view .LVU1216
 5098 01ec 1C4B     		ldr	r3, .L307+24
 5099 01ee 1B78     		ldrb	r3, [r3]	@ zero_extendqisi2
 637:Core/Src/main.c ****       break;
 5100              		.loc 1 637 8 view .LVU1217
 5101 01f0 002B     		cmp	r3, #0
 5102 01f2 3FF44DAF 		beq	.L304
 5103              	.L274:
 639:Core/Src/main.c ****       break;
 5104              		.loc 1 639 10 is_stmt 1 view .LVU1218
 639:Core/Src/main.c ****       break;
 5105              		.loc 1 639 20 is_stmt 0 view .LVU1219
 5106 01f6 1A4B     		ldr	r3, .L307+24
 5107 01f8 1D78     		ldrb	r5, [r3]	@ zero_extendqisi2
 639:Core/Src/main.c ****       break;
 5108              		.loc 1 639 13 view .LVU1220
 5109 01fa 022D     		cmp	r5, #2
 5110 01fc 3FF44EAF 		beq	.L305
 5111              	.L276:
 641:Core/Src/main.c ****       velocity = 3;
 5112              		.loc 1 641 5 is_stmt 1 view .LVU1221
 641:Core/Src/main.c ****       velocity = 3;
 5113              		.loc 1 641 8 is_stmt 0 view .LVU1222
 5114 0200 2149     		ldr	r1, .L307+64
 5115 0202 3046     		mov	r0, r6
 5116 0204 FFF7FEFF 		bl	__aeabi_fcmplt
 5117              	.LVL747:
 5118 0208 0028     		cmp	r0, #0
 5119 020a 7FF467AF 		bne	.L289
 643:Core/Src/main.c ****       velocity = 7;
 5120              		.loc 1 643 10 is_stmt 1 view .LVU1223
 643:Core/Src/main.c ****       velocity = 7;
 5121              		.loc 1 643 13 is_stmt 0 view .LVU1224
 5122 020e 1B49     		ldr	r1, .L307+52
 5123 0210 3046     		mov	r0, r6
 5124 0212 FFF7FEFF 		bl	__aeabi_fcmplt
 5125              	.LVL748:
 5126 0216 88B9     		cbnz	r0, .L290
ARM GAS  C:\Users\86183\AppData\Local\Temp\ccdSsS0f.s 			page 115


 645:Core/Src/main.c ****       velocity = 10;
 5127              		.loc 1 645 10 is_stmt 1 view .LVU1225
 645:Core/Src/main.c ****       velocity = 10;
 5128              		.loc 1 645 13 is_stmt 0 view .LVU1226
 5129 0218 1C49     		ldr	r1, .L307+68
 5130 021a 3046     		mov	r0, r6
 5131 021c FFF7FEFF 		bl	__aeabi_fcmplt
 5132              	.LVL749:
 5133 0220 78B9     		cbnz	r0, .L291
 647:Core/Src/main.c ****     {
 5134              		.loc 1 647 10 is_stmt 1 view .LVU1227
 647:Core/Src/main.c ****     {
 5135              		.loc 1 647 13 is_stmt 0 view .LVU1228
 5136 0222 1B49     		ldr	r1, .L307+72
 5137 0224 3046     		mov	r0, r6
 5138 0226 FFF7FEFF 		bl	__aeabi_fcmplt
 5139              	.LVL750:
 5140 022a 0028     		cmp	r0, #0
 5141 022c 3FF441AF 		beq	.L297
 649:Core/Src/main.c ****         velocity = 13;
 5142              		.loc 1 649 7 is_stmt 1 view .LVU1229
 649:Core/Src/main.c ****         velocity = 13;
 5143              		.loc 1 649 10 is_stmt 0 view .LVU1230
 5144 0230 012D     		cmp	r5, #1
 5145 0232 3FF43BAF 		beq	.L306
 652:Core/Src/main.c ****     }
 5146              		.loc 1 652 18 view .LVU1231
 5147 0236 DFF83CA0 		ldr	r10, .L307+44
 5148 023a 51E7     		b	.L277
 5149              	.L290:
 644:Core/Src/main.c ****     else if (difference < 30)
 5150              		.loc 1 644 16 view .LVU1232
 5151 023c DFF818A0 		ldr	r10, .L307+16
 5152 0240 4EE7     		b	.L277
 5153              	.L291:
 646:Core/Src/main.c ****     else if (difference < 50)
 5154              		.loc 1 646 16 view .LVU1233
 5155 0242 DFF844A0 		ldr	r10, .L307+64
 5156 0246 4BE7     		b	.L277
 5157              	.L308:
 5158              		.align	3
 5159              	.L307:
 5160 0248 D9CEF753 		.word	1408749273
 5161 024c E3A54C40 		.word	1078765027
 5162 0250 66666666 		.word	1717986918
 5163 0254 6666E63F 		.word	1072064102
 5164 0258 0000E040 		.word	1088421888
 5165 025c 00007843 		.word	1131937792
 5166 0260 00000000 		.word	.LANCHOR16
 5167 0264 00007041 		.word	1097859072
 5168 0268 00005041 		.word	1095761920
 5169 026c 0000C842 		.word	1120403456
 5170 0270 0000B841 		.word	1102577664
 5171 0274 00008841 		.word	1099431936
 5172 0278 0000D841 		.word	1104674816
 5173 027c 0000A041 		.word	1101004800
 5174 0280 00004040 		.word	1077936128
ARM GAS  C:\Users\86183\AppData\Local\Temp\ccdSsS0f.s 			page 116


 5175 0284 00000000 		.word	.LANCHOR8
 5176 0288 00002041 		.word	1092616192
 5177 028c 0000F041 		.word	1106247680
 5178 0290 00004842 		.word	1112014848
 5179              		.cfi_endproc
 5180              	.LFE82:
 5182              		.section	.text.getPackage,"ax",%progbits
 5183              		.align	1
 5184              		.global	getPackage
 5185              		.syntax unified
 5186              		.thumb
 5187              		.thumb_func
 5188              		.fpu softvfp
 5190              	getPackage:
 5191              	.LFB85:
 790:Core/Src/main.c ****   struct MYCOORD coord = userGetCarPos();
 5192              		.loc 1 790 1 is_stmt 1 view -0
 5193              		.cfi_startproc
 5194              		@ args = 0, pretend = 0, frame = 16
 5195              		@ frame_needed = 0, uses_anonymous_args = 0
 5196 0000 2DE9F047 		push	{r4, r5, r6, r7, r8, r9, r10, lr}
 5197              	.LCFI38:
 5198              		.cfi_def_cfa_offset 32
 5199              		.cfi_offset 4, -32
 5200              		.cfi_offset 5, -28
 5201              		.cfi_offset 6, -24
 5202              		.cfi_offset 7, -20
 5203              		.cfi_offset 8, -16
 5204              		.cfi_offset 9, -12
 5205              		.cfi_offset 10, -8
 5206              		.cfi_offset 14, -4
 5207 0004 84B0     		sub	sp, sp, #16
 5208              	.LCFI39:
 5209              		.cfi_def_cfa_offset 48
 791:Core/Src/main.c ****   float dist0 = sq(coord.x - packageX[0]) + sq(coord.y - packageY[0]);
 5210              		.loc 1 791 3 view .LVU1235
 791:Core/Src/main.c ****   float dist0 = sq(coord.x - packageX[0]) + sq(coord.y - packageY[0]);
 5211              		.loc 1 791 26 is_stmt 0 view .LVU1236
 5212 0006 01A8     		add	r0, sp, #4
 5213 0008 FFF7FEFF 		bl	userGetCarPos
 5214              	.LVL751:
 792:Core/Src/main.c ****   float dist1 = sq(coord.x - packageX[1]) + sq(coord.y - packageY[1]);
 5215              		.loc 1 792 3 is_stmt 1 view .LVU1237
 792:Core/Src/main.c ****   float dist1 = sq(coord.x - packageX[1]) + sq(coord.y - packageY[1]);
 5216              		.loc 1 792 17 is_stmt 0 view .LVU1238
 5217 000c 019D     		ldr	r5, [sp, #4]	@ float
 5218 000e DFF8A4A0 		ldr	r10, .L316
 5219 0012 DAF80080 		ldr	r8, [r10]	@ float
 5220 0016 4146     		mov	r1, r8
 5221 0018 2846     		mov	r0, r5
 5222 001a FFF7FEFF 		bl	__aeabi_fsub
 5223              	.LVL752:
 5224 001e 0146     		mov	r1, r0
 5225 0020 FFF7FEFF 		bl	__aeabi_fmul
 5226              	.LVL753:
 5227 0024 0446     		mov	r4, r0
 792:Core/Src/main.c ****   float dist1 = sq(coord.x - packageX[1]) + sq(coord.y - packageY[1]);
ARM GAS  C:\Users\86183\AppData\Local\Temp\ccdSsS0f.s 			page 117


 5228              		.loc 1 792 45 view .LVU1239
 5229 0026 029E     		ldr	r6, [sp, #8]	@ float
 5230 0028 234F     		ldr	r7, .L316+4
 5231 002a D7F80090 		ldr	r9, [r7]	@ float
 5232 002e 4946     		mov	r1, r9
 5233 0030 3046     		mov	r0, r6
 5234 0032 FFF7FEFF 		bl	__aeabi_fsub
 5235              	.LVL754:
 5236 0036 0146     		mov	r1, r0
 5237 0038 FFF7FEFF 		bl	__aeabi_fmul
 5238              	.LVL755:
 5239 003c 0146     		mov	r1, r0
 792:Core/Src/main.c ****   float dist1 = sq(coord.x - packageX[1]) + sq(coord.y - packageY[1]);
 5240              		.loc 1 792 9 view .LVU1240
 5241 003e 2046     		mov	r0, r4
 5242 0040 FFF7FEFF 		bl	__aeabi_fadd
 5243              	.LVL756:
 5244 0044 0446     		mov	r4, r0
 5245              	.LVL757:
 793:Core/Src/main.c ****   if (dist0 < dist1)
 5246              		.loc 1 793 3 is_stmt 1 view .LVU1241
 793:Core/Src/main.c ****   if (dist0 < dist1)
 5247              		.loc 1 793 17 is_stmt 0 view .LVU1242
 5248 0046 DAF804A0 		ldr	r10, [r10, #4]	@ float
 5249 004a 5146     		mov	r1, r10
 5250 004c 2846     		mov	r0, r5
 5251              	.LVL758:
 793:Core/Src/main.c ****   if (dist0 < dist1)
 5252              		.loc 1 793 17 view .LVU1243
 5253 004e FFF7FEFF 		bl	__aeabi_fsub
 5254              	.LVL759:
 5255 0052 0146     		mov	r1, r0
 5256 0054 FFF7FEFF 		bl	__aeabi_fmul
 5257              	.LVL760:
 5258 0058 0546     		mov	r5, r0
 793:Core/Src/main.c ****   if (dist0 < dist1)
 5259              		.loc 1 793 45 view .LVU1244
 5260 005a 7F68     		ldr	r7, [r7, #4]	@ float
 5261 005c 3946     		mov	r1, r7
 5262 005e 3046     		mov	r0, r6
 5263 0060 FFF7FEFF 		bl	__aeabi_fsub
 5264              	.LVL761:
 5265 0064 0146     		mov	r1, r0
 5266 0066 FFF7FEFF 		bl	__aeabi_fmul
 5267              	.LVL762:
 5268 006a 0146     		mov	r1, r0
 793:Core/Src/main.c ****   if (dist0 < dist1)
 5269              		.loc 1 793 9 view .LVU1245
 5270 006c 2846     		mov	r0, r5
 5271 006e FFF7FEFF 		bl	__aeabi_fadd
 5272              	.LVL763:
 5273 0072 0146     		mov	r1, r0
 5274              	.LVL764:
 794:Core/Src/main.c ****   {
 5275              		.loc 1 794 3 is_stmt 1 view .LVU1246
 794:Core/Src/main.c ****   {
 5276              		.loc 1 794 6 is_stmt 0 view .LVU1247
ARM GAS  C:\Users\86183\AppData\Local\Temp\ccdSsS0f.s 			page 118


 5277 0074 2046     		mov	r0, r4
 5278              	.LVL765:
 794:Core/Src/main.c ****   {
 5279              		.loc 1 794 6 view .LVU1248
 5280 0076 FFF7FEFF 		bl	__aeabi_fcmplt
 5281              	.LVL766:
 794:Core/Src/main.c ****   {
 5282              		.loc 1 794 6 view .LVU1249
 5283 007a 70B1     		cbz	r0, .L314
 796:Core/Src/main.c ****     MoveTo(packageX[1], packageY[1], 0);
 5284              		.loc 1 796 5 is_stmt 1 view .LVU1250
 5285 007c 0022     		movs	r2, #0
 5286 007e 4946     		mov	r1, r9
 5287 0080 4046     		mov	r0, r8
 5288 0082 FFF7FEFF 		bl	MoveTo
 5289              	.LVL767:
 797:Core/Src/main.c ****   }
 5290              		.loc 1 797 5 view .LVU1251
 5291 0086 0022     		movs	r2, #0
 5292 0088 0B4B     		ldr	r3, .L316+4
 5293 008a 5968     		ldr	r1, [r3, #4]	@ float
 5294 008c 094B     		ldr	r3, .L316
 5295 008e 5868     		ldr	r0, [r3, #4]	@ float
 5296 0090 FFF7FEFF 		bl	MoveTo
 5297              	.LVL768:
 5298              	.L309:
 804:Core/Src/main.c **** 
 5299              		.loc 1 804 1 is_stmt 0 view .LVU1252
 5300 0094 04B0     		add	sp, sp, #16
 5301              	.LCFI40:
 5302              		.cfi_remember_state
 5303              		.cfi_def_cfa_offset 32
 5304              		@ sp needed
 5305 0096 BDE8F087 		pop	{r4, r5, r6, r7, r8, r9, r10, pc}
 5306              	.LVL769:
 5307              	.L314:
 5308              	.LCFI41:
 5309              		.cfi_restore_state
 801:Core/Src/main.c ****     MoveTo(packageX[0], packageY[0], 0);
 5310              		.loc 1 801 5 is_stmt 1 view .LVU1253
 5311 009a 0022     		movs	r2, #0
 5312 009c 3946     		mov	r1, r7
 5313 009e 5046     		mov	r0, r10
 5314 00a0 FFF7FEFF 		bl	MoveTo
 5315              	.LVL770:
 802:Core/Src/main.c ****   }
 5316              		.loc 1 802 5 view .LVU1254
 5317 00a4 0022     		movs	r2, #0
 5318 00a6 044B     		ldr	r3, .L316+4
 5319 00a8 1968     		ldr	r1, [r3]	@ float
 5320 00aa 024B     		ldr	r3, .L316
 5321 00ac 1868     		ldr	r0, [r3]	@ float
 5322 00ae FFF7FEFF 		bl	MoveTo
 5323              	.LVL771:
 804:Core/Src/main.c **** 
 5324              		.loc 1 804 1 is_stmt 0 view .LVU1255
 5325 00b2 EFE7     		b	.L309
ARM GAS  C:\Users\86183\AppData\Local\Temp\ccdSsS0f.s 			page 119


 5326              	.L317:
 5327              		.align	2
 5328              	.L316:
 5329 00b4 00000000 		.word	.LANCHOR11
 5330 00b8 00000000 		.word	.LANCHOR12
 5331              		.cfi_endproc
 5332              	.LFE85:
 5334              		.section	.text.SetBeacon,"ax",%progbits
 5335              		.align	1
 5336              		.global	SetBeacon
 5337              		.syntax unified
 5338              		.thumb
 5339              		.thumb_func
 5340              		.fpu softvfp
 5342              	SetBeacon:
 5343              	.LFB86:
 807:Core/Src/main.c ****   struct MYCOORD coord = userGetCarPos();
 5344              		.loc 1 807 1 is_stmt 1 view -0
 5345              		.cfi_startproc
 5346              		@ args = 0, pretend = 0, frame = 48
 5347              		@ frame_needed = 0, uses_anonymous_args = 0
 5348 0000 2DE9F041 		push	{r4, r5, r6, r7, r8, lr}
 5349              	.LCFI42:
 5350              		.cfi_def_cfa_offset 24
 5351              		.cfi_offset 4, -24
 5352              		.cfi_offset 5, -20
 5353              		.cfi_offset 6, -16
 5354              		.cfi_offset 7, -12
 5355              		.cfi_offset 8, -8
 5356              		.cfi_offset 14, -4
 5357 0004 8CB0     		sub	sp, sp, #48
 5358              	.LCFI43:
 5359              		.cfi_def_cfa_offset 72
 808:Core/Src/main.c ****   int k = 0;
 5360              		.loc 1 808 3 view .LVU1257
 808:Core/Src/main.c ****   int k = 0;
 5361              		.loc 1 808 26 is_stmt 0 view .LVU1258
 5362 0006 09A8     		add	r0, sp, #36
 5363 0008 FFF7FEFF 		bl	userGetCarPos
 5364              	.LVL772:
 809:Core/Src/main.c ****   float dist1[3], dist2[2];
 5365              		.loc 1 809 3 is_stmt 1 view .LVU1259
 810:Core/Src/main.c ****   int tmp = 0, j = 0;
 5366              		.loc 1 810 3 view .LVU1260
 811:Core/Src/main.c ****   for (int i = 0; i < 3; i++)
 5367              		.loc 1 811 3 view .LVU1261
 812:Core/Src/main.c ****     dist1[i] = sq(coord.x - BeaconDir[i][0]) + sq(coord.y - BeaconDir[i][1]);
 5368              		.loc 1 812 3 view .LVU1262
 5369              	.LBB37:
 812:Core/Src/main.c ****     dist1[i] = sq(coord.x - BeaconDir[i][0]) + sq(coord.y - BeaconDir[i][1]);
 5370              		.loc 1 812 8 view .LVU1263
 812:Core/Src/main.c ****     dist1[i] = sq(coord.x - BeaconDir[i][0]) + sq(coord.y - BeaconDir[i][1]);
 5371              		.loc 1 812 12 is_stmt 0 view .LVU1264
 5372 000c 0024     		movs	r4, #0
 812:Core/Src/main.c ****     dist1[i] = sq(coord.x - BeaconDir[i][0]) + sq(coord.y - BeaconDir[i][1]);
 5373              		.loc 1 812 3 view .LVU1265
 5374 000e 1CE0     		b	.L319
ARM GAS  C:\Users\86183\AppData\Local\Temp\ccdSsS0f.s 			page 120


 5375              	.LVL773:
 5376              	.L320:
 813:Core/Src/main.c ****   for (int i = 0; i < 3; i++)
 5377              		.loc 1 813 5 is_stmt 1 discriminator 3 view .LVU1266
 813:Core/Src/main.c ****   for (int i = 0; i < 3; i++)
 5378              		.loc 1 813 16 is_stmt 0 discriminator 3 view .LVU1267
 5379 0010 564D     		ldr	r5, .L340
 5380 0012 55F83410 		ldr	r1, [r5, r4, lsl #3]	@ float
 5381 0016 0998     		ldr	r0, [sp, #36]	@ float
 5382 0018 FFF7FEFF 		bl	__aeabi_fsub
 5383              	.LVL774:
 5384 001c 0146     		mov	r1, r0
 5385 001e FFF7FEFF 		bl	__aeabi_fmul
 5386              	.LVL775:
 5387 0022 0646     		mov	r6, r0
 813:Core/Src/main.c ****   for (int i = 0; i < 3; i++)
 5388              		.loc 1 813 48 discriminator 3 view .LVU1268
 5389 0024 05EBC405 		add	r5, r5, r4, lsl #3
 5390 0028 6968     		ldr	r1, [r5, #4]	@ float
 5391 002a 0A98     		ldr	r0, [sp, #40]	@ float
 5392 002c FFF7FEFF 		bl	__aeabi_fsub
 5393              	.LVL776:
 5394 0030 0146     		mov	r1, r0
 5395 0032 FFF7FEFF 		bl	__aeabi_fmul
 5396              	.LVL777:
 5397 0036 0146     		mov	r1, r0
 813:Core/Src/main.c ****   for (int i = 0; i < 3; i++)
 5398              		.loc 1 813 46 discriminator 3 view .LVU1269
 5399 0038 3046     		mov	r0, r6
 5400 003a FFF7FEFF 		bl	__aeabi_fadd
 5401              	.LVL778:
 813:Core/Src/main.c ****   for (int i = 0; i < 3; i++)
 5402              		.loc 1 813 14 discriminator 3 view .LVU1270
 5403 003e 0CAB     		add	r3, sp, #48
 5404 0040 03EB8403 		add	r3, r3, r4, lsl #2
 5405 0044 43F8180C 		str	r0, [r3, #-24]	@ float
 812:Core/Src/main.c ****     dist1[i] = sq(coord.x - BeaconDir[i][0]) + sq(coord.y - BeaconDir[i][1]);
 5406              		.loc 1 812 26 is_stmt 1 discriminator 3 view .LVU1271
 812:Core/Src/main.c ****     dist1[i] = sq(coord.x - BeaconDir[i][0]) + sq(coord.y - BeaconDir[i][1]);
 5407              		.loc 1 812 27 is_stmt 0 discriminator 3 view .LVU1272
 5408 0048 0134     		adds	r4, r4, #1
 5409              	.LVL779:
 5410              	.L319:
 812:Core/Src/main.c ****     dist1[i] = sq(coord.x - BeaconDir[i][0]) + sq(coord.y - BeaconDir[i][1]);
 5411              		.loc 1 812 19 is_stmt 1 discriminator 1 view .LVU1273
 812:Core/Src/main.c ****     dist1[i] = sq(coord.x - BeaconDir[i][0]) + sq(coord.y - BeaconDir[i][1]);
 5412              		.loc 1 812 3 is_stmt 0 discriminator 1 view .LVU1274
 5413 004a 022C     		cmp	r4, #2
 5414 004c E0DD     		ble	.L320
 5415              	.LBE37:
 5416              	.LBB38:
 814:Core/Src/main.c ****     tmp = dist1[tmp] < dist1[i] ? tmp : i;
 5417              		.loc 1 814 12 view .LVU1275
 5418 004e 0024     		movs	r4, #0
 5419              	.LVL780:
 814:Core/Src/main.c ****     tmp = dist1[tmp] < dist1[i] ? tmp : i;
 5420              		.loc 1 814 12 view .LVU1276
ARM GAS  C:\Users\86183\AppData\Local\Temp\ccdSsS0f.s 			page 121


 5421              	.LBE38:
 811:Core/Src/main.c ****   for (int i = 0; i < 3; i++)
 5422              		.loc 1 811 7 view .LVU1277
 5423 0050 2546     		mov	r5, r4
 5424 0052 00E0     		b	.L321
 5425              	.LVL781:
 5426              	.L322:
 5427              	.LBB39:
 814:Core/Src/main.c ****     tmp = dist1[tmp] < dist1[i] ? tmp : i;
 5428              		.loc 1 814 26 is_stmt 1 discriminator 4 view .LVU1278
 814:Core/Src/main.c ****     tmp = dist1[tmp] < dist1[i] ? tmp : i;
 5429              		.loc 1 814 27 is_stmt 0 discriminator 4 view .LVU1279
 5430 0054 0134     		adds	r4, r4, #1
 5431              	.LVL782:
 5432              	.L321:
 814:Core/Src/main.c ****     tmp = dist1[tmp] < dist1[i] ? tmp : i;
 5433              		.loc 1 814 19 is_stmt 1 discriminator 2 view .LVU1280
 814:Core/Src/main.c ****     tmp = dist1[tmp] < dist1[i] ? tmp : i;
 5434              		.loc 1 814 3 is_stmt 0 discriminator 2 view .LVU1281
 5435 0056 022C     		cmp	r4, #2
 5436 0058 0FDC     		bgt	.L338
 815:Core/Src/main.c ****   MoveTo(BeaconDir[tmp][0], BeaconDir[tmp][1], 0);
 5437              		.loc 1 815 5 is_stmt 1 view .LVU1282
 815:Core/Src/main.c ****   MoveTo(BeaconDir[tmp][0], BeaconDir[tmp][1], 0);
 5438              		.loc 1 815 29 is_stmt 0 view .LVU1283
 5439 005a 0CAB     		add	r3, sp, #48
 5440 005c 03EB8403 		add	r3, r3, r4, lsl #2
 815:Core/Src/main.c ****   MoveTo(BeaconDir[tmp][0], BeaconDir[tmp][1], 0);
 5441              		.loc 1 815 39 view .LVU1284
 5442 0060 53F8181C 		ldr	r1, [r3, #-24]	@ float
 5443 0064 0CAB     		add	r3, sp, #48
 5444 0066 03EB8503 		add	r3, r3, r5, lsl #2
 5445 006a 53F8180C 		ldr	r0, [r3, #-24]	@ float
 5446 006e FFF7FEFF 		bl	__aeabi_fcmplt
 5447              	.LVL783:
 5448 0072 0028     		cmp	r0, #0
 5449 0074 EED1     		bne	.L322
 5450 0076 2546     		mov	r5, r4
 5451              	.LVL784:
 815:Core/Src/main.c ****   MoveTo(BeaconDir[tmp][0], BeaconDir[tmp][1], 0);
 5452              		.loc 1 815 39 view .LVU1285
 5453 0078 ECE7     		b	.L322
 5454              	.LVL785:
 5455              	.L338:
 815:Core/Src/main.c ****   MoveTo(BeaconDir[tmp][0], BeaconDir[tmp][1], 0);
 5456              		.loc 1 815 39 view .LVU1286
 5457              	.LBE39:
 816:Core/Src/main.c ****   zigbeeSend(k++);
 5458              		.loc 1 816 3 is_stmt 1 view .LVU1287
 5459 007a 3C4B     		ldr	r3, .L340
 5460 007c 03EBC501 		add	r1, r3, r5, lsl #3
 5461 0080 0022     		movs	r2, #0
 5462 0082 4968     		ldr	r1, [r1, #4]	@ float
 5463 0084 53F83500 		ldr	r0, [r3, r5, lsl #3]	@ float
 5464 0088 FFF7FEFF 		bl	MoveTo
 5465              	.LVL786:
 817:Core/Src/main.c ****   Set_Beacon();
ARM GAS  C:\Users\86183\AppData\Local\Temp\ccdSsS0f.s 			page 122


 5466              		.loc 1 817 3 view .LVU1288
 817:Core/Src/main.c ****   Set_Beacon();
 5467              		.loc 1 817 3 is_stmt 0 view .LVU1289
 5468 008c 0020     		movs	r0, #0
 5469 008e FFF7FEFF 		bl	zigbeeSend
 5470              	.LVL787:
 818:Core/Src/main.c ****   for (int i = 0; i < 3; i++)
 5471              		.loc 1 818 3 is_stmt 1 view .LVU1290
 5472 0092 FFF7FEFF 		bl	Set_Beacon
 5473              	.LVL788:
 819:Core/Src/main.c ****   {
 5474              		.loc 1 819 3 view .LVU1291
 5475              	.LBB40:
 819:Core/Src/main.c ****   {
 5476              		.loc 1 819 8 view .LVU1292
 819:Core/Src/main.c ****   {
 5477              		.loc 1 819 12 is_stmt 0 view .LVU1293
 5478 0096 0024     		movs	r4, #0
 5479              	.LVL789:
 819:Core/Src/main.c ****   {
 5480              		.loc 1 819 12 view .LVU1294
 5481              	.LBE40:
 811:Core/Src/main.c ****   for (int i = 0; i < 3; i++)
 5482              		.loc 1 811 16 view .LVU1295
 5483 0098 A046     		mov	r8, r4
 5484              	.LBB41:
 819:Core/Src/main.c ****   {
 5485              		.loc 1 819 3 view .LVU1296
 5486 009a 00E0     		b	.L325
 5487              	.LVL790:
 5488              	.L326:
 819:Core/Src/main.c ****   {
 5489              		.loc 1 819 26 is_stmt 1 discriminator 2 view .LVU1297
 819:Core/Src/main.c ****   {
 5490              		.loc 1 819 27 is_stmt 0 discriminator 2 view .LVU1298
 5491 009c 0134     		adds	r4, r4, #1
 5492              	.LVL791:
 5493              	.L325:
 819:Core/Src/main.c ****   {
 5494              		.loc 1 819 19 is_stmt 1 discriminator 1 view .LVU1299
 819:Core/Src/main.c ****   {
 5495              		.loc 1 819 3 is_stmt 0 discriminator 1 view .LVU1300
 5496 009e 022C     		cmp	r4, #2
 5497 00a0 29DC     		bgt	.L339
 821:Core/Src/main.c ****     {
 5498              		.loc 1 821 5 is_stmt 1 view .LVU1301
 821:Core/Src/main.c ****     {
 5499              		.loc 1 821 8 is_stmt 0 view .LVU1302
 5500 00a2 A542     		cmp	r5, r4
 5501 00a4 FAD0     		beq	.L326
 823:Core/Src/main.c ****       dist2[j] = sq(coord.x - BeaconDir[i][0]) + sq(coord.y - BeaconDir[i][1]);
 5502              		.loc 1 823 7 is_stmt 1 view .LVU1303
 823:Core/Src/main.c ****       dist2[j] = sq(coord.x - BeaconDir[i][0]) + sq(coord.y - BeaconDir[i][1]);
 5503              		.loc 1 823 15 is_stmt 0 view .LVU1304
 5504 00a6 6E46     		mov	r6, sp
 5505 00a8 3046     		mov	r0, r6
 5506 00aa FFF7FEFF 		bl	userGetCarPos
ARM GAS  C:\Users\86183\AppData\Local\Temp\ccdSsS0f.s 			page 123


 5507              	.LVL792:
 5508 00ae 96E80700 		ldm	r6, {r0, r1, r2}
 5509 00b2 0CAB     		add	r3, sp, #48
 5510 00b4 03E90700 		stmdb	r3, {r0, r1, r2}
 824:Core/Src/main.c ****       j++;
 5511              		.loc 1 824 7 is_stmt 1 view .LVU1305
 824:Core/Src/main.c ****       j++;
 5512              		.loc 1 824 18 is_stmt 0 view .LVU1306
 5513 00b8 2C4E     		ldr	r6, .L340
 5514 00ba 56F83410 		ldr	r1, [r6, r4, lsl #3]	@ float
 5515 00be 0998     		ldr	r0, [sp, #36]	@ float
 5516 00c0 FFF7FEFF 		bl	__aeabi_fsub
 5517              	.LVL793:
 5518 00c4 0146     		mov	r1, r0
 5519 00c6 FFF7FEFF 		bl	__aeabi_fmul
 5520              	.LVL794:
 5521 00ca 0746     		mov	r7, r0
 824:Core/Src/main.c ****       j++;
 5522              		.loc 1 824 50 view .LVU1307
 5523 00cc 06EBC406 		add	r6, r6, r4, lsl #3
 5524 00d0 7168     		ldr	r1, [r6, #4]	@ float
 5525 00d2 0A98     		ldr	r0, [sp, #40]	@ float
 5526 00d4 FFF7FEFF 		bl	__aeabi_fsub
 5527              	.LVL795:
 5528 00d8 0146     		mov	r1, r0
 5529 00da FFF7FEFF 		bl	__aeabi_fmul
 5530              	.LVL796:
 5531 00de 0146     		mov	r1, r0
 824:Core/Src/main.c ****       j++;
 5532              		.loc 1 824 48 view .LVU1308
 5533 00e0 3846     		mov	r0, r7
 5534 00e2 FFF7FEFF 		bl	__aeabi_fadd
 5535              	.LVL797:
 824:Core/Src/main.c ****       j++;
 5536              		.loc 1 824 16 view .LVU1309
 5537 00e6 0CAB     		add	r3, sp, #48
 5538 00e8 03EB8803 		add	r3, r3, r8, lsl #2
 5539 00ec 43F8200C 		str	r0, [r3, #-32]	@ float
 825:Core/Src/main.c ****     }
 5540              		.loc 1 825 7 is_stmt 1 view .LVU1310
 825:Core/Src/main.c ****     }
 5541              		.loc 1 825 8 is_stmt 0 view .LVU1311
 5542 00f0 08F10108 		add	r8, r8, #1
 5543              	.LVL798:
 825:Core/Src/main.c ****     }
 5544              		.loc 1 825 8 view .LVU1312
 5545 00f4 D2E7     		b	.L326
 5546              	.L339:
 825:Core/Src/main.c ****     }
 5547              		.loc 1 825 8 view .LVU1313
 5548              	.LBE41:
 828:Core/Src/main.c ****   {
 5549              		.loc 1 828 3 is_stmt 1 view .LVU1314
 828:Core/Src/main.c ****   {
 5550              		.loc 1 828 6 is_stmt 0 view .LVU1315
 5551 00f6 0599     		ldr	r1, [sp, #20]	@ float
 5552 00f8 0498     		ldr	r0, [sp, #16]	@ float
ARM GAS  C:\Users\86183\AppData\Local\Temp\ccdSsS0f.s 			page 124


 5553 00fa FFF7FEFF 		bl	__aeabi_fcmplt
 5554              	.LVL799:
 5555 00fe C0B9     		cbnz	r0, .L336
 5556              	.LBB42:
 840:Core/Src/main.c ****       if (i != tmp)
 5557              		.loc 1 840 14 view .LVU1316
 5558 0100 0224     		movs	r4, #2
 5559              	.LVL800:
 840:Core/Src/main.c ****       if (i != tmp)
 5560              		.loc 1 840 14 view .LVU1317
 5561              	.LBE42:
 817:Core/Src/main.c ****   Set_Beacon();
 5562              		.loc 1 817 3 view .LVU1318
 5563 0102 0126     		movs	r6, #1
 5564 0104 19E0     		b	.L329
 5565              	.LVL801:
 5566              	.L330:
 5567              	.LBB43:
 830:Core/Src/main.c ****       if (i != tmp)
 5568              		.loc 1 830 28 is_stmt 1 discriminator 2 view .LVU1319
 830:Core/Src/main.c ****       if (i != tmp)
 5569              		.loc 1 830 29 is_stmt 0 discriminator 2 view .LVU1320
 5570 0106 0134     		adds	r4, r4, #1
 5571              	.LVL802:
 5572              	.L328:
 830:Core/Src/main.c ****       if (i != tmp)
 5573              		.loc 1 830 21 is_stmt 1 discriminator 1 view .LVU1321
 830:Core/Src/main.c ****       if (i != tmp)
 5574              		.loc 1 830 5 is_stmt 0 discriminator 1 view .LVU1322
 5575 0108 022C     		cmp	r4, #2
 5576 010a 2BDC     		bgt	.L318
 831:Core/Src/main.c ****       {
 5577              		.loc 1 831 7 is_stmt 1 view .LVU1323
 831:Core/Src/main.c ****       {
 5578              		.loc 1 831 10 is_stmt 0 view .LVU1324
 5579 010c A542     		cmp	r5, r4
 5580 010e FAD0     		beq	.L330
 833:Core/Src/main.c ****         zigbeeSend(k++);
 5581              		.loc 1 833 9 is_stmt 1 view .LVU1325
 5582 0110 164B     		ldr	r3, .L340
 5583 0112 03EBC401 		add	r1, r3, r4, lsl #3
 5584 0116 0022     		movs	r2, #0
 5585 0118 4968     		ldr	r1, [r1, #4]	@ float
 5586 011a 53F83400 		ldr	r0, [r3, r4, lsl #3]	@ float
 5587 011e FFF7FEFF 		bl	MoveTo
 5588              	.LVL803:
 834:Core/Src/main.c ****         Set_Beacon();
 5589              		.loc 1 834 9 view .LVU1326
 5590 0122 771C     		adds	r7, r6, #1
 5591              	.LVL804:
 834:Core/Src/main.c ****         Set_Beacon();
 5592              		.loc 1 834 9 is_stmt 0 view .LVU1327
 5593 0124 3046     		mov	r0, r6
 5594 0126 FFF7FEFF 		bl	zigbeeSend
 5595              	.LVL805:
 835:Core/Src/main.c ****       }
 5596              		.loc 1 835 9 is_stmt 1 view .LVU1328
ARM GAS  C:\Users\86183\AppData\Local\Temp\ccdSsS0f.s 			page 125


 5597 012a FFF7FEFF 		bl	Set_Beacon
 5598              	.LVL806:
 834:Core/Src/main.c ****         Set_Beacon();
 5599              		.loc 1 834 9 is_stmt 0 view .LVU1329
 5600 012e 3E46     		mov	r6, r7
 5601 0130 E9E7     		b	.L330
 5602              	.LVL807:
 5603              	.L336:
 830:Core/Src/main.c ****       if (i != tmp)
 5604              		.loc 1 830 14 view .LVU1330
 5605 0132 0024     		movs	r4, #0
 5606              	.LVL808:
 830:Core/Src/main.c ****       if (i != tmp)
 5607              		.loc 1 830 14 view .LVU1331
 5608              	.LBE43:
 817:Core/Src/main.c ****   Set_Beacon();
 5609              		.loc 1 817 3 view .LVU1332
 5610 0134 0126     		movs	r6, #1
 5611 0136 E7E7     		b	.L328
 5612              	.LVL809:
 5613              	.L333:
 5614              	.LBB44:
 840:Core/Src/main.c ****       if (i != tmp)
 5615              		.loc 1 840 29 is_stmt 1 discriminator 2 view .LVU1333
 840:Core/Src/main.c ****       if (i != tmp)
 5616              		.loc 1 840 30 is_stmt 0 discriminator 2 view .LVU1334
 5617 0138 013C     		subs	r4, r4, #1
 5618              	.LVL810:
 5619              	.L329:
 840:Core/Src/main.c ****       if (i != tmp)
 5620              		.loc 1 840 21 is_stmt 1 discriminator 1 view .LVU1335
 840:Core/Src/main.c ****       if (i != tmp)
 5621              		.loc 1 840 5 is_stmt 0 discriminator 1 view .LVU1336
 5622 013a 002C     		cmp	r4, #0
 5623 013c 12DB     		blt	.L318
 841:Core/Src/main.c ****       {
 5624              		.loc 1 841 7 is_stmt 1 view .LVU1337
 841:Core/Src/main.c ****       {
 5625              		.loc 1 841 10 is_stmt 0 view .LVU1338
 5626 013e A542     		cmp	r5, r4
 5627 0140 FAD0     		beq	.L333
 843:Core/Src/main.c ****         zigbeeSend(k++);
 5628              		.loc 1 843 9 is_stmt 1 view .LVU1339
 5629 0142 0A4B     		ldr	r3, .L340
 5630 0144 03EBC401 		add	r1, r3, r4, lsl #3
 5631 0148 0022     		movs	r2, #0
 5632 014a 4968     		ldr	r1, [r1, #4]	@ float
 5633 014c 53F83400 		ldr	r0, [r3, r4, lsl #3]	@ float
 5634 0150 FFF7FEFF 		bl	MoveTo
 5635              	.LVL811:
 844:Core/Src/main.c ****         Set_Beacon();
 5636              		.loc 1 844 9 view .LVU1340
 5637 0154 771C     		adds	r7, r6, #1
 5638              	.LVL812:
 844:Core/Src/main.c ****         Set_Beacon();
 5639              		.loc 1 844 9 is_stmt 0 view .LVU1341
 5640 0156 3046     		mov	r0, r6
ARM GAS  C:\Users\86183\AppData\Local\Temp\ccdSsS0f.s 			page 126


 5641 0158 FFF7FEFF 		bl	zigbeeSend
 5642              	.LVL813:
 845:Core/Src/main.c ****       }
 5643              		.loc 1 845 9 is_stmt 1 view .LVU1342
 5644 015c FFF7FEFF 		bl	Set_Beacon
 5645              	.LVL814:
 844:Core/Src/main.c ****         Set_Beacon();
 5646              		.loc 1 844 9 is_stmt 0 view .LVU1343
 5647 0160 3E46     		mov	r6, r7
 5648 0162 E9E7     		b	.L333
 5649              	.LVL815:
 5650              	.L318:
 844:Core/Src/main.c ****         Set_Beacon();
 5651              		.loc 1 844 9 view .LVU1344
 5652              	.LBE44:
 848:Core/Src/main.c **** 
 5653              		.loc 1 848 1 view .LVU1345
 5654 0164 0CB0     		add	sp, sp, #48
 5655              	.LCFI44:
 5656              		.cfi_def_cfa_offset 24
 5657              		@ sp needed
 5658 0166 BDE8F081 		pop	{r4, r5, r6, r7, r8, pc}
 5659              	.LVL816:
 5660              	.L341:
 848:Core/Src/main.c **** 
 5661              		.loc 1 848 1 view .LVU1346
 5662 016a 00BF     		.align	2
 5663              	.L340:
 5664 016c 00000000 		.word	.LANCHOR17
 5665              		.cfi_endproc
 5666              	.LFE86:
 5668              		.section	.text.Error_Handler,"ax",%progbits
 5669              		.align	1
 5670              		.global	Error_Handler
 5671              		.syntax unified
 5672              		.thumb
 5673              		.thumb_func
 5674              		.fpu softvfp
 5676              	Error_Handler:
 5677              	.LFB93:
 928:Core/Src/main.c **** 
 929:Core/Src/main.c **** /* USER CODE END 0 */
 930:Core/Src/main.c **** 
 931:Core/Src/main.c **** /**
 932:Core/Src/main.c ****  * @brief  The application entry point.
 933:Core/Src/main.c ****  * @retval int
 934:Core/Src/main.c ****  */
 935:Core/Src/main.c **** int main(void)
 936:Core/Src/main.c **** {
 937:Core/Src/main.c ****   /* USER CODE BEGIN 1 */
 938:Core/Src/main.c **** 
 939:Core/Src/main.c ****   /* USER CODE END 1 */
 940:Core/Src/main.c **** 
 941:Core/Src/main.c ****   /* MCU Configuration--------------------------------------------------------*/
 942:Core/Src/main.c **** 
 943:Core/Src/main.c ****   /* Reset of all peripherals, Initializes the Flash interface and the Systick. */
 944:Core/Src/main.c ****   HAL_Init();
ARM GAS  C:\Users\86183\AppData\Local\Temp\ccdSsS0f.s 			page 127


 945:Core/Src/main.c **** 
 946:Core/Src/main.c ****   /* USER CODE BEGIN Init */
 947:Core/Src/main.c **** 
 948:Core/Src/main.c ****   /* USER CODE END Init */
 949:Core/Src/main.c **** 
 950:Core/Src/main.c ****   /* Configure the system clock */
 951:Core/Src/main.c ****   SystemClock_Config();
 952:Core/Src/main.c **** 
 953:Core/Src/main.c ****   /* USER CODE BEGIN SysInit */
 954:Core/Src/main.c **** 
 955:Core/Src/main.c ****   /* USER CODE END SysInit */
 956:Core/Src/main.c **** 
 957:Core/Src/main.c ****   /* Initialize all configured peripherals */
 958:Core/Src/main.c ****   MX_GPIO_Init();
 959:Core/Src/main.c ****   MX_TIM1_Init();
 960:Core/Src/main.c ****   MX_TIM2_Init();
 961:Core/Src/main.c ****   MX_TIM3_Init();
 962:Core/Src/main.c ****   MX_TIM4_Init();
 963:Core/Src/main.c ****   MX_TIM5_Init();
 964:Core/Src/main.c ****   MX_TIM8_Init();
 965:Core/Src/main.c ****   MX_DMA_Init();
 966:Core/Src/main.c ****   MX_USART3_UART_Init();
 967:Core/Src/main.c ****   MX_USART2_UART_Init();
 968:Core/Src/main.c ****   /* USER CODE BEGIN 2 */
 969:Core/Src/main.c ****   HAL_TIM_Base_Start_IT(&htim2);
 970:Core/Src/main.c ****   HAL_TIM_PWM_Start(&htim1, TIM_CHANNEL_1);
 971:Core/Src/main.c ****   HAL_TIM_PWM_Start(&htim1, TIM_CHANNEL_2);
 972:Core/Src/main.c ****   HAL_TIM_PWM_Start(&htim1, TIM_CHANNEL_3);
 973:Core/Src/main.c ****   HAL_TIM_PWM_Start(&htim1, TIM_CHANNEL_4);
 974:Core/Src/main.c ****   HAL_TIM_Encoder_Start(&htim3, TIM_CHANNEL_ALL);
 975:Core/Src/main.c ****   HAL_TIM_Encoder_Start(&htim4, TIM_CHANNEL_ALL);
 976:Core/Src/main.c ****   HAL_TIM_Encoder_Start(&htim5, TIM_CHANNEL_ALL);
 977:Core/Src/main.c ****   HAL_TIM_Encoder_Start(&htim8, TIM_CHANNEL_ALL);
 978:Core/Src/main.c ****   HAL_Delay(500);
 979:Core/Src/main.c ****   jy62_Init(&huart2);
 980:Core/Src/main.c ****   zigbee_Init(&huart3);
 981:Core/Src/main.c ****   Calibrate_Angle();
 982:Core/Src/main.c ****   /* USER CODE END 2 */
 983:Core/Src/main.c **** 
 984:Core/Src/main.c ****   /* Infinite loop */
 985:Core/Src/main.c ****   /* USER CODE BEGIN WHILE */
 986:Core/Src/main.c ****   while (1)
 987:Core/Src/main.c ****   {
 988:Core/Src/main.c ****     /* USER CODE END WHILE */
 989:Core/Src/main.c **** 
 990:Core/Src/main.c ****     /* USER CODE BEGIN 3 */
 991:Core/Src/main.c ****     // if (getGameState() == 1)
 992:Core/Src/main.c ****     //   HAL_GPIO_TogglePin(LED_GPIO_Port, LED_Pin);
 993:Core/Src/main.c ****     // HAL_Delay(500);
 994:Core/Src/main.c ****     // for (int i = 0; i < 3; i++)
 995:Core/Src/main.c ****     // {
 996:Core/Src/main.c ****     //   BeaconDir[i][0] = getMyBeaconPosX(i);
 997:Core/Src/main.c ****     //   BeaconDir[i][1] = getMyBeaconPosY(i);
 998:Core/Src/main.c ****     // }
 999:Core/Src/main.c ****     // CalculateNowDir();
1000:Core/Src/main.c ****     // u2_printf("%d,%d,%d,%d\n", BeaconDir[0][0], BeaconDir[0][1], now_X, now_Y);
1001:Core/Src/main.c ****     // HAL_Delay(1000);
ARM GAS  C:\Users\86183\AppData\Local\Temp\ccdSsS0f.s 			page 128


1002:Core/Src/main.c **** 
1003:Core/Src/main.c ****     // 测量资源位置 work了
1004:Core/Src/main.c ****     // Calculate_Package_Position();
1005:Core/Src/main.c ****     // u2_printf("%f, %f, %f, %f\n", packageX[0], packageY[0], packageX[1], packageY[1]);
1006:Core/Src/main.c ****     // HAL_Delay(1000);
1007:Core/Src/main.c **** 
1008:Core/Src/main.c ****     // if (getGameState() == 1)
1009:Core/Src/main.c ****     // {
1010:Core/Src/main.c ****     //   MoveTo(127, 127);
1011:Core/Src/main.c ****     //   MoveTo(15, 15);
1012:Core/Src/main.c ****     //   MoveTo(127, 127);
1013:Core/Src/main.c ****     //   MoveTo(160, 170);
1014:Core/Src/main.c ****     // }
1015:Core/Src/main.c **** 
1016:Core/Src/main.c ****     // uint16_t x = getMyBeaconPosX(0), y = getMyBeaconPosY(0);
1017:Core/Src/main.c ****     // u2_printf("%d, %d\n", x, y);
1018:Core/Src/main.c ****     // HAL_Delay(500);
1019:Core/Src/main.c ****     // Set_Right_Direction(0);
1020:Core/Src/main.c ****     // Set_Left_Direction(0);
1021:Core/Src/main.c ****     // u3_printf("%f\n", getDistance());
1022:Core/Src/main.c ****     // HAL_Delay(500);
1023:Core/Src/main.c **** 
1024:Core/Src/main.c ****     // u2_printf("%d,%d,%d,%d\n", getCarMineANum(), getCarMineBNum(), getCarMineCNum(), getCarMineD
1025:Core/Src/main.c ****     // u2_printf("%d\n", curMostMineType());
1026:Core/Src/main.c ****     // if (getCarTask() == 1 && getGameState() == 1)
1027:Core/Src/main.c ****     //   if (!isInitialMinePark)
1028:Core/Src/main.c ****     //   {
1029:Core/Src/main.c ****     //     initialParkMineType();
1030:Core/Src/main.c ****     //     isInitialMinePark = 1;
1031:Core/Src/main.c ****     //   }
1032:Core/Src/main.c ****     // u2_printf("%d,%d,%d\n", getParkDotMineType(0), getParkDotMineType(1), getParkDotMineType(2))
1033:Core/Src/main.c ****     // u2_printf("%d,%d,%d\n", Park[0].mineType, Park[1].mineType, Park[2].mineType);
1034:Core/Src/main.c ****     // HAL_Delay(500);
1035:Core/Src/main.c **** 
1036:Core/Src/main.c ****     /*********************主逻辑******************/
1037:Core/Src/main.c ****     uint8_t nearParkId;
1038:Core/Src/main.c ****     uint8_t gameState = getGameState();
1039:Core/Src/main.c **** 
1040:Core/Src/main.c ****     if (gameState == 0 || gameState == 2 || gameState == 3)
1041:Core/Src/main.c ****     {
1042:Core/Src/main.c ****       Set_LF_Direction(0);
1043:Core/Src/main.c ****       Set_RF_Direction(0);
1044:Core/Src/main.c ****     }
1045:Core/Src/main.c **** 
1046:Core/Src/main.c ****     while (gameState == 1)
1047:Core/Src/main.c ****     {
1048:Core/Src/main.c ****       uint8_t ROUND = getCarTask();
1049:Core/Src/main.c ****       if (ROUND == 0)
1050:Core/Src/main.c ****       {
1051:Core/Src/main.c ****         switch (STATE)
1052:Core/Src/main.c ****         {
1053:Core/Src/main.c ****         case GET_PACKAGE:
1054:Core/Src/main.c ****           getPackage();
1055:Core/Src/main.c ****           if (getCarMineSumNum() == 2)
1056:Core/Src/main.c ****             STATE = (uint8_t)SET_BEACON;
1057:Core/Src/main.c ****           break;
1058:Core/Src/main.c **** 
ARM GAS  C:\Users\86183\AppData\Local\Temp\ccdSsS0f.s 			page 129


1059:Core/Src/main.c ****         case PUT_PACKAGE:
1060:Core/Src/main.c ****           nearParkId = getNearestPark(0);
1061:Core/Src/main.c ****           MoveTo(Park[nearParkId].x, Park[nearParkId].y, 0);
1062:Core/Src/main.c ****           STATE = (uint8_t)EMPTY_STATE;
1063:Core/Src/main.c ****           break;
1064:Core/Src/main.c **** 
1065:Core/Src/main.c ****         case SET_BEACON:
1066:Core/Src/main.c ****           SetBeacon();
1067:Core/Src/main.c ****           STATE = (uint8_t)PUT_PACKAGE;
1068:Core/Src/main.c ****           break;
1069:Core/Src/main.c **** 
1070:Core/Src/main.c ****         default:
1071:Core/Src/main.c ****           Set_Right_Direction(0);
1072:Core/Src/main.c ****           Set_Left_Direction(0);
1073:Core/Src/main.c ****           break;
1074:Core/Src/main.c ****         }
1075:Core/Src/main.c ****       }
1076:Core/Src/main.c **** 
1077:Core/Src/main.c ****       if (ROUND == 1)
1078:Core/Src/main.c ****       {
1079:Core/Src/main.c ****         int m;
1080:Core/Src/main.c ****         if (!isInitialMinePark)
1081:Core/Src/main.c ****         {
1082:Core/Src/main.c ****           initialParkMineType();
1083:Core/Src/main.c ****           isInitialMinePark = 1;
1084:Core/Src/main.c ****           STATE = (uint8_t)GET_PACKAGE;
1085:Core/Src/main.c ****         }
1086:Core/Src/main.c **** 
1087:Core/Src/main.c ****         if (getGameTime() > 900 && getCarMineSumNum() != 0)
1088:Core/Src/main.c ****           STATE = (uint8_t)PUT_PACKAGE;
1089:Core/Src/main.c **** 
1090:Core/Src/main.c ****         switch (STATE)
1091:Core/Src/main.c ****         {
1092:Core/Src/main.c ****         case GET_PACKAGE:
1093:Core/Src/main.c ****           getPackage();
1094:Core/Src/main.c ****           if (getCarMineSumNum() > 8)
1095:Core/Src/main.c ****             STATE = (uint8_t)PUT_PACKAGE;
1096:Core/Src/main.c ****           break;
1097:Core/Src/main.c **** 
1098:Core/Src/main.c ****         case PUT_PACKAGE:
1099:Core/Src/main.c ****           m = getNearestPark(curMostMineType());
1100:Core/Src/main.c ****           MoveTo(Park[m].x, Park[m].y, Park[m].mineType);
1101:Core/Src/main.c ****           STATE = (uint8_t)GET_PACKAGE;
1102:Core/Src/main.c ****           break;
1103:Core/Src/main.c **** 
1104:Core/Src/main.c ****         default:
1105:Core/Src/main.c ****           STATE = (uint8_t)GET_PACKAGE;
1106:Core/Src/main.c ****           break;
1107:Core/Src/main.c ****         }
1108:Core/Src/main.c ****       }
1109:Core/Src/main.c ****     }
1110:Core/Src/main.c ****     /* USER CODE END 3 */
1111:Core/Src/main.c ****   }
1112:Core/Src/main.c **** }
1113:Core/Src/main.c **** 
1114:Core/Src/main.c **** /**
1115:Core/Src/main.c ****  * @brief System Clock Configuration
ARM GAS  C:\Users\86183\AppData\Local\Temp\ccdSsS0f.s 			page 130


1116:Core/Src/main.c ****  * @retval None
1117:Core/Src/main.c ****  */
1118:Core/Src/main.c **** void SystemClock_Config(void)
1119:Core/Src/main.c **** {
1120:Core/Src/main.c ****   RCC_OscInitTypeDef RCC_OscInitStruct = {0};
1121:Core/Src/main.c ****   RCC_ClkInitTypeDef RCC_ClkInitStruct = {0};
1122:Core/Src/main.c **** 
1123:Core/Src/main.c ****   /** Initializes the RCC Oscillators according to the specified parameters
1124:Core/Src/main.c ****    * in the RCC_OscInitTypeDef structure.
1125:Core/Src/main.c ****    */
1126:Core/Src/main.c ****   RCC_OscInitStruct.OscillatorType = RCC_OSCILLATORTYPE_HSE;
1127:Core/Src/main.c ****   RCC_OscInitStruct.HSEState = RCC_HSE_ON;
1128:Core/Src/main.c ****   RCC_OscInitStruct.HSEPredivValue = RCC_HSE_PREDIV_DIV1;
1129:Core/Src/main.c ****   RCC_OscInitStruct.HSIState = RCC_HSI_ON;
1130:Core/Src/main.c ****   RCC_OscInitStruct.PLL.PLLState = RCC_PLL_ON;
1131:Core/Src/main.c ****   RCC_OscInitStruct.PLL.PLLSource = RCC_PLLSOURCE_HSE;
1132:Core/Src/main.c ****   RCC_OscInitStruct.PLL.PLLMUL = RCC_PLL_MUL9;
1133:Core/Src/main.c ****   if (HAL_RCC_OscConfig(&RCC_OscInitStruct) != HAL_OK)
1134:Core/Src/main.c ****   {
1135:Core/Src/main.c ****     Error_Handler();
1136:Core/Src/main.c ****   }
1137:Core/Src/main.c ****   /** Initializes the CPU, AHB and APB buses clocks
1138:Core/Src/main.c ****    */
1139:Core/Src/main.c ****   RCC_ClkInitStruct.ClockType = RCC_CLOCKTYPE_HCLK | RCC_CLOCKTYPE_SYSCLK | RCC_CLOCKTYPE_PCLK1 | R
1140:Core/Src/main.c ****   RCC_ClkInitStruct.SYSCLKSource = RCC_SYSCLKSOURCE_PLLCLK;
1141:Core/Src/main.c ****   RCC_ClkInitStruct.AHBCLKDivider = RCC_SYSCLK_DIV1;
1142:Core/Src/main.c ****   RCC_ClkInitStruct.APB1CLKDivider = RCC_HCLK_DIV2;
1143:Core/Src/main.c ****   RCC_ClkInitStruct.APB2CLKDivider = RCC_HCLK_DIV1;
1144:Core/Src/main.c **** 
1145:Core/Src/main.c ****   if (HAL_RCC_ClockConfig(&RCC_ClkInitStruct, FLASH_LATENCY_2) != HAL_OK)
1146:Core/Src/main.c ****   {
1147:Core/Src/main.c ****     Error_Handler();
1148:Core/Src/main.c ****   }
1149:Core/Src/main.c **** }
1150:Core/Src/main.c **** 
1151:Core/Src/main.c **** /* USER CODE BEGIN 4 */
1152:Core/Src/main.c **** 
1153:Core/Src/main.c **** /* USER CODE END 4 */
1154:Core/Src/main.c **** 
1155:Core/Src/main.c **** /**
1156:Core/Src/main.c ****  * @brief  This function is executed in case of error occurrence.
1157:Core/Src/main.c ****  * @retval None
1158:Core/Src/main.c ****  */
1159:Core/Src/main.c **** void Error_Handler(void)
1160:Core/Src/main.c **** {
 5678              		.loc 1 1160 1 is_stmt 1 view -0
 5679              		.cfi_startproc
 5680              		@ Volatile: function does not return.
 5681              		@ args = 0, pretend = 0, frame = 0
 5682              		@ frame_needed = 0, uses_anonymous_args = 0
 5683              		@ link register save eliminated.
1161:Core/Src/main.c ****   /* USER CODE BEGIN Error_Handler_Debug */
1162:Core/Src/main.c ****   /* User can add his own implementation to report the HAL error return state */
1163:Core/Src/main.c ****   __disable_irq();
 5684              		.loc 1 1163 3 view .LVU1348
 5685              	.LBB45:
 5686              	.LBI45:
ARM GAS  C:\Users\86183\AppData\Local\Temp\ccdSsS0f.s 			page 131


 5687              		.file 2 "Drivers/CMSIS/Include/cmsis_gcc.h"
   1:Drivers/CMSIS/Include/cmsis_gcc.h **** /**************************************************************************//**
   2:Drivers/CMSIS/Include/cmsis_gcc.h ****  * @file     cmsis_gcc.h
   3:Drivers/CMSIS/Include/cmsis_gcc.h ****  * @brief    CMSIS compiler GCC header file
   4:Drivers/CMSIS/Include/cmsis_gcc.h ****  * @version  V5.0.4
   5:Drivers/CMSIS/Include/cmsis_gcc.h ****  * @date     09. April 2018
   6:Drivers/CMSIS/Include/cmsis_gcc.h ****  ******************************************************************************/
   7:Drivers/CMSIS/Include/cmsis_gcc.h **** /*
   8:Drivers/CMSIS/Include/cmsis_gcc.h ****  * Copyright (c) 2009-2018 Arm Limited. All rights reserved.
   9:Drivers/CMSIS/Include/cmsis_gcc.h ****  *
  10:Drivers/CMSIS/Include/cmsis_gcc.h ****  * SPDX-License-Identifier: Apache-2.0
  11:Drivers/CMSIS/Include/cmsis_gcc.h ****  *
  12:Drivers/CMSIS/Include/cmsis_gcc.h ****  * Licensed under the Apache License, Version 2.0 (the License); you may
  13:Drivers/CMSIS/Include/cmsis_gcc.h ****  * not use this file except in compliance with the License.
  14:Drivers/CMSIS/Include/cmsis_gcc.h ****  * You may obtain a copy of the License at
  15:Drivers/CMSIS/Include/cmsis_gcc.h ****  *
  16:Drivers/CMSIS/Include/cmsis_gcc.h ****  * www.apache.org/licenses/LICENSE-2.0
  17:Drivers/CMSIS/Include/cmsis_gcc.h ****  *
  18:Drivers/CMSIS/Include/cmsis_gcc.h ****  * Unless required by applicable law or agreed to in writing, software
  19:Drivers/CMSIS/Include/cmsis_gcc.h ****  * distributed under the License is distributed on an AS IS BASIS, WITHOUT
  20:Drivers/CMSIS/Include/cmsis_gcc.h ****  * WARRANTIES OR CONDITIONS OF ANY KIND, either express or implied.
  21:Drivers/CMSIS/Include/cmsis_gcc.h ****  * See the License for the specific language governing permissions and
  22:Drivers/CMSIS/Include/cmsis_gcc.h ****  * limitations under the License.
  23:Drivers/CMSIS/Include/cmsis_gcc.h ****  */
  24:Drivers/CMSIS/Include/cmsis_gcc.h **** 
  25:Drivers/CMSIS/Include/cmsis_gcc.h **** #ifndef __CMSIS_GCC_H
  26:Drivers/CMSIS/Include/cmsis_gcc.h **** #define __CMSIS_GCC_H
  27:Drivers/CMSIS/Include/cmsis_gcc.h **** 
  28:Drivers/CMSIS/Include/cmsis_gcc.h **** /* ignore some GCC warnings */
  29:Drivers/CMSIS/Include/cmsis_gcc.h **** #pragma GCC diagnostic push
  30:Drivers/CMSIS/Include/cmsis_gcc.h **** #pragma GCC diagnostic ignored "-Wsign-conversion"
  31:Drivers/CMSIS/Include/cmsis_gcc.h **** #pragma GCC diagnostic ignored "-Wconversion"
  32:Drivers/CMSIS/Include/cmsis_gcc.h **** #pragma GCC diagnostic ignored "-Wunused-parameter"
  33:Drivers/CMSIS/Include/cmsis_gcc.h **** 
  34:Drivers/CMSIS/Include/cmsis_gcc.h **** /* Fallback for __has_builtin */
  35:Drivers/CMSIS/Include/cmsis_gcc.h **** #ifndef __has_builtin
  36:Drivers/CMSIS/Include/cmsis_gcc.h ****   #define __has_builtin(x) (0)
  37:Drivers/CMSIS/Include/cmsis_gcc.h **** #endif
  38:Drivers/CMSIS/Include/cmsis_gcc.h **** 
  39:Drivers/CMSIS/Include/cmsis_gcc.h **** /* CMSIS compiler specific defines */
  40:Drivers/CMSIS/Include/cmsis_gcc.h **** #ifndef   __ASM
  41:Drivers/CMSIS/Include/cmsis_gcc.h ****   #define __ASM                                  __asm
  42:Drivers/CMSIS/Include/cmsis_gcc.h **** #endif
  43:Drivers/CMSIS/Include/cmsis_gcc.h **** #ifndef   __INLINE
  44:Drivers/CMSIS/Include/cmsis_gcc.h ****   #define __INLINE                               inline
  45:Drivers/CMSIS/Include/cmsis_gcc.h **** #endif
  46:Drivers/CMSIS/Include/cmsis_gcc.h **** #ifndef   __STATIC_INLINE
  47:Drivers/CMSIS/Include/cmsis_gcc.h ****   #define __STATIC_INLINE                        static inline
  48:Drivers/CMSIS/Include/cmsis_gcc.h **** #endif
  49:Drivers/CMSIS/Include/cmsis_gcc.h **** #ifndef   __STATIC_FORCEINLINE                 
  50:Drivers/CMSIS/Include/cmsis_gcc.h ****   #define __STATIC_FORCEINLINE                   __attribute__((always_inline)) static inline
  51:Drivers/CMSIS/Include/cmsis_gcc.h **** #endif                                           
  52:Drivers/CMSIS/Include/cmsis_gcc.h **** #ifndef   __NO_RETURN
  53:Drivers/CMSIS/Include/cmsis_gcc.h ****   #define __NO_RETURN                            __attribute__((__noreturn__))
  54:Drivers/CMSIS/Include/cmsis_gcc.h **** #endif
  55:Drivers/CMSIS/Include/cmsis_gcc.h **** #ifndef   __USED
  56:Drivers/CMSIS/Include/cmsis_gcc.h ****   #define __USED                                 __attribute__((used))
ARM GAS  C:\Users\86183\AppData\Local\Temp\ccdSsS0f.s 			page 132


  57:Drivers/CMSIS/Include/cmsis_gcc.h **** #endif
  58:Drivers/CMSIS/Include/cmsis_gcc.h **** #ifndef   __WEAK
  59:Drivers/CMSIS/Include/cmsis_gcc.h ****   #define __WEAK                                 __attribute__((weak))
  60:Drivers/CMSIS/Include/cmsis_gcc.h **** #endif
  61:Drivers/CMSIS/Include/cmsis_gcc.h **** #ifndef   __PACKED
  62:Drivers/CMSIS/Include/cmsis_gcc.h ****   #define __PACKED                               __attribute__((packed, aligned(1)))
  63:Drivers/CMSIS/Include/cmsis_gcc.h **** #endif
  64:Drivers/CMSIS/Include/cmsis_gcc.h **** #ifndef   __PACKED_STRUCT
  65:Drivers/CMSIS/Include/cmsis_gcc.h ****   #define __PACKED_STRUCT                        struct __attribute__((packed, aligned(1)))
  66:Drivers/CMSIS/Include/cmsis_gcc.h **** #endif
  67:Drivers/CMSIS/Include/cmsis_gcc.h **** #ifndef   __PACKED_UNION
  68:Drivers/CMSIS/Include/cmsis_gcc.h ****   #define __PACKED_UNION                         union __attribute__((packed, aligned(1)))
  69:Drivers/CMSIS/Include/cmsis_gcc.h **** #endif
  70:Drivers/CMSIS/Include/cmsis_gcc.h **** #ifndef   __UNALIGNED_UINT32        /* deprecated */
  71:Drivers/CMSIS/Include/cmsis_gcc.h ****   #pragma GCC diagnostic push
  72:Drivers/CMSIS/Include/cmsis_gcc.h ****   #pragma GCC diagnostic ignored "-Wpacked"
  73:Drivers/CMSIS/Include/cmsis_gcc.h ****   #pragma GCC diagnostic ignored "-Wattributes"
  74:Drivers/CMSIS/Include/cmsis_gcc.h ****   struct __attribute__((packed)) T_UINT32 { uint32_t v; };
  75:Drivers/CMSIS/Include/cmsis_gcc.h ****   #pragma GCC diagnostic pop
  76:Drivers/CMSIS/Include/cmsis_gcc.h ****   #define __UNALIGNED_UINT32(x)                  (((struct T_UINT32 *)(x))->v)
  77:Drivers/CMSIS/Include/cmsis_gcc.h **** #endif
  78:Drivers/CMSIS/Include/cmsis_gcc.h **** #ifndef   __UNALIGNED_UINT16_WRITE
  79:Drivers/CMSIS/Include/cmsis_gcc.h ****   #pragma GCC diagnostic push
  80:Drivers/CMSIS/Include/cmsis_gcc.h ****   #pragma GCC diagnostic ignored "-Wpacked"
  81:Drivers/CMSIS/Include/cmsis_gcc.h ****   #pragma GCC diagnostic ignored "-Wattributes"
  82:Drivers/CMSIS/Include/cmsis_gcc.h ****   __PACKED_STRUCT T_UINT16_WRITE { uint16_t v; };
  83:Drivers/CMSIS/Include/cmsis_gcc.h ****   #pragma GCC diagnostic pop
  84:Drivers/CMSIS/Include/cmsis_gcc.h ****   #define __UNALIGNED_UINT16_WRITE(addr, val)    (void)((((struct T_UINT16_WRITE *)(void *)(addr))-
  85:Drivers/CMSIS/Include/cmsis_gcc.h **** #endif
  86:Drivers/CMSIS/Include/cmsis_gcc.h **** #ifndef   __UNALIGNED_UINT16_READ
  87:Drivers/CMSIS/Include/cmsis_gcc.h ****   #pragma GCC diagnostic push
  88:Drivers/CMSIS/Include/cmsis_gcc.h ****   #pragma GCC diagnostic ignored "-Wpacked"
  89:Drivers/CMSIS/Include/cmsis_gcc.h ****   #pragma GCC diagnostic ignored "-Wattributes"
  90:Drivers/CMSIS/Include/cmsis_gcc.h ****   __PACKED_STRUCT T_UINT16_READ { uint16_t v; };
  91:Drivers/CMSIS/Include/cmsis_gcc.h ****   #pragma GCC diagnostic pop
  92:Drivers/CMSIS/Include/cmsis_gcc.h ****   #define __UNALIGNED_UINT16_READ(addr)          (((const struct T_UINT16_READ *)(const void *)(add
  93:Drivers/CMSIS/Include/cmsis_gcc.h **** #endif
  94:Drivers/CMSIS/Include/cmsis_gcc.h **** #ifndef   __UNALIGNED_UINT32_WRITE
  95:Drivers/CMSIS/Include/cmsis_gcc.h ****   #pragma GCC diagnostic push
  96:Drivers/CMSIS/Include/cmsis_gcc.h ****   #pragma GCC diagnostic ignored "-Wpacked"
  97:Drivers/CMSIS/Include/cmsis_gcc.h ****   #pragma GCC diagnostic ignored "-Wattributes"
  98:Drivers/CMSIS/Include/cmsis_gcc.h ****   __PACKED_STRUCT T_UINT32_WRITE { uint32_t v; };
  99:Drivers/CMSIS/Include/cmsis_gcc.h ****   #pragma GCC diagnostic pop
 100:Drivers/CMSIS/Include/cmsis_gcc.h ****   #define __UNALIGNED_UINT32_WRITE(addr, val)    (void)((((struct T_UINT32_WRITE *)(void *)(addr))-
 101:Drivers/CMSIS/Include/cmsis_gcc.h **** #endif
 102:Drivers/CMSIS/Include/cmsis_gcc.h **** #ifndef   __UNALIGNED_UINT32_READ
 103:Drivers/CMSIS/Include/cmsis_gcc.h ****   #pragma GCC diagnostic push
 104:Drivers/CMSIS/Include/cmsis_gcc.h ****   #pragma GCC diagnostic ignored "-Wpacked"
 105:Drivers/CMSIS/Include/cmsis_gcc.h ****   #pragma GCC diagnostic ignored "-Wattributes"
 106:Drivers/CMSIS/Include/cmsis_gcc.h ****   __PACKED_STRUCT T_UINT32_READ { uint32_t v; };
 107:Drivers/CMSIS/Include/cmsis_gcc.h ****   #pragma GCC diagnostic pop
 108:Drivers/CMSIS/Include/cmsis_gcc.h ****   #define __UNALIGNED_UINT32_READ(addr)          (((const struct T_UINT32_READ *)(const void *)(add
 109:Drivers/CMSIS/Include/cmsis_gcc.h **** #endif
 110:Drivers/CMSIS/Include/cmsis_gcc.h **** #ifndef   __ALIGNED
 111:Drivers/CMSIS/Include/cmsis_gcc.h ****   #define __ALIGNED(x)                           __attribute__((aligned(x)))
 112:Drivers/CMSIS/Include/cmsis_gcc.h **** #endif
 113:Drivers/CMSIS/Include/cmsis_gcc.h **** #ifndef   __RESTRICT
ARM GAS  C:\Users\86183\AppData\Local\Temp\ccdSsS0f.s 			page 133


 114:Drivers/CMSIS/Include/cmsis_gcc.h ****   #define __RESTRICT                             __restrict
 115:Drivers/CMSIS/Include/cmsis_gcc.h **** #endif
 116:Drivers/CMSIS/Include/cmsis_gcc.h **** 
 117:Drivers/CMSIS/Include/cmsis_gcc.h **** 
 118:Drivers/CMSIS/Include/cmsis_gcc.h **** /* ###########################  Core Function Access  ########################### */
 119:Drivers/CMSIS/Include/cmsis_gcc.h **** /** \ingroup  CMSIS_Core_FunctionInterface
 120:Drivers/CMSIS/Include/cmsis_gcc.h ****     \defgroup CMSIS_Core_RegAccFunctions CMSIS Core Register Access Functions
 121:Drivers/CMSIS/Include/cmsis_gcc.h ****   @{
 122:Drivers/CMSIS/Include/cmsis_gcc.h ****  */
 123:Drivers/CMSIS/Include/cmsis_gcc.h **** 
 124:Drivers/CMSIS/Include/cmsis_gcc.h **** /**
 125:Drivers/CMSIS/Include/cmsis_gcc.h ****   \brief   Enable IRQ Interrupts
 126:Drivers/CMSIS/Include/cmsis_gcc.h ****   \details Enables IRQ interrupts by clearing the I-bit in the CPSR.
 127:Drivers/CMSIS/Include/cmsis_gcc.h ****            Can only be executed in Privileged modes.
 128:Drivers/CMSIS/Include/cmsis_gcc.h ****  */
 129:Drivers/CMSIS/Include/cmsis_gcc.h **** __STATIC_FORCEINLINE void __enable_irq(void)
 130:Drivers/CMSIS/Include/cmsis_gcc.h **** {
 131:Drivers/CMSIS/Include/cmsis_gcc.h ****   __ASM volatile ("cpsie i" : : : "memory");
 132:Drivers/CMSIS/Include/cmsis_gcc.h **** }
 133:Drivers/CMSIS/Include/cmsis_gcc.h **** 
 134:Drivers/CMSIS/Include/cmsis_gcc.h **** 
 135:Drivers/CMSIS/Include/cmsis_gcc.h **** /**
 136:Drivers/CMSIS/Include/cmsis_gcc.h ****   \brief   Disable IRQ Interrupts
 137:Drivers/CMSIS/Include/cmsis_gcc.h ****   \details Disables IRQ interrupts by setting the I-bit in the CPSR.
 138:Drivers/CMSIS/Include/cmsis_gcc.h ****            Can only be executed in Privileged modes.
 139:Drivers/CMSIS/Include/cmsis_gcc.h ****  */
 140:Drivers/CMSIS/Include/cmsis_gcc.h **** __STATIC_FORCEINLINE void __disable_irq(void)
 5688              		.loc 2 140 27 view .LVU1349
 5689              	.LBB46:
 141:Drivers/CMSIS/Include/cmsis_gcc.h **** {
 142:Drivers/CMSIS/Include/cmsis_gcc.h ****   __ASM volatile ("cpsid i" : : : "memory");
 5690              		.loc 2 142 3 view .LVU1350
 5691              		.syntax unified
 5692              	@ 142 "Drivers/CMSIS/Include/cmsis_gcc.h" 1
 5693 0000 72B6     		cpsid i
 5694              	@ 0 "" 2
 5695              		.thumb
 5696              		.syntax unified
 5697              	.L343:
 5698              	.LBE46:
 5699              	.LBE45:
1164:Core/Src/main.c ****   while (1)
 5700              		.loc 1 1164 3 discriminator 1 view .LVU1351
1165:Core/Src/main.c ****   {
1166:Core/Src/main.c ****   }
 5701              		.loc 1 1166 3 discriminator 1 view .LVU1352
1164:Core/Src/main.c ****   while (1)
 5702              		.loc 1 1164 9 discriminator 1 view .LVU1353
 5703 0002 FEE7     		b	.L343
 5704              		.cfi_endproc
 5705              	.LFE93:
 5707              		.section	.text.SystemClock_Config,"ax",%progbits
 5708              		.align	1
 5709              		.global	SystemClock_Config
 5710              		.syntax unified
 5711              		.thumb
 5712              		.thumb_func
ARM GAS  C:\Users\86183\AppData\Local\Temp\ccdSsS0f.s 			page 134


 5713              		.fpu softvfp
 5715              	SystemClock_Config:
 5716              	.LFB92:
1119:Core/Src/main.c ****   RCC_OscInitTypeDef RCC_OscInitStruct = {0};
 5717              		.loc 1 1119 1 view -0
 5718              		.cfi_startproc
 5719              		@ args = 0, pretend = 0, frame = 64
 5720              		@ frame_needed = 0, uses_anonymous_args = 0
 5721 0000 00B5     		push	{lr}
 5722              	.LCFI45:
 5723              		.cfi_def_cfa_offset 4
 5724              		.cfi_offset 14, -4
 5725 0002 91B0     		sub	sp, sp, #68
 5726              	.LCFI46:
 5727              		.cfi_def_cfa_offset 72
1120:Core/Src/main.c ****   RCC_ClkInitTypeDef RCC_ClkInitStruct = {0};
 5728              		.loc 1 1120 3 view .LVU1355
1120:Core/Src/main.c ****   RCC_ClkInitTypeDef RCC_ClkInitStruct = {0};
 5729              		.loc 1 1120 22 is_stmt 0 view .LVU1356
 5730 0004 2822     		movs	r2, #40
 5731 0006 0021     		movs	r1, #0
 5732 0008 06A8     		add	r0, sp, #24
 5733 000a FFF7FEFF 		bl	memset
 5734              	.LVL817:
1121:Core/Src/main.c **** 
 5735              		.loc 1 1121 3 is_stmt 1 view .LVU1357
1121:Core/Src/main.c **** 
 5736              		.loc 1 1121 22 is_stmt 0 view .LVU1358
 5737 000e 0023     		movs	r3, #0
 5738 0010 0193     		str	r3, [sp, #4]
 5739 0012 0293     		str	r3, [sp, #8]
 5740 0014 0393     		str	r3, [sp, #12]
 5741 0016 0493     		str	r3, [sp, #16]
 5742 0018 0593     		str	r3, [sp, #20]
1126:Core/Src/main.c ****   RCC_OscInitStruct.HSEState = RCC_HSE_ON;
 5743              		.loc 1 1126 3 is_stmt 1 view .LVU1359
1126:Core/Src/main.c ****   RCC_OscInitStruct.HSEState = RCC_HSE_ON;
 5744              		.loc 1 1126 36 is_stmt 0 view .LVU1360
 5745 001a 0122     		movs	r2, #1
 5746 001c 0692     		str	r2, [sp, #24]
1127:Core/Src/main.c ****   RCC_OscInitStruct.HSEPredivValue = RCC_HSE_PREDIV_DIV1;
 5747              		.loc 1 1127 3 is_stmt 1 view .LVU1361
1127:Core/Src/main.c ****   RCC_OscInitStruct.HSEPredivValue = RCC_HSE_PREDIV_DIV1;
 5748              		.loc 1 1127 30 is_stmt 0 view .LVU1362
 5749 001e 4FF48033 		mov	r3, #65536
 5750 0022 0793     		str	r3, [sp, #28]
1128:Core/Src/main.c ****   RCC_OscInitStruct.HSIState = RCC_HSI_ON;
 5751              		.loc 1 1128 3 is_stmt 1 view .LVU1363
1129:Core/Src/main.c ****   RCC_OscInitStruct.PLL.PLLState = RCC_PLL_ON;
 5752              		.loc 1 1129 3 view .LVU1364
1129:Core/Src/main.c ****   RCC_OscInitStruct.PLL.PLLState = RCC_PLL_ON;
 5753              		.loc 1 1129 30 is_stmt 0 view .LVU1365
 5754 0024 0A92     		str	r2, [sp, #40]
1130:Core/Src/main.c ****   RCC_OscInitStruct.PLL.PLLSource = RCC_PLLSOURCE_HSE;
 5755              		.loc 1 1130 3 is_stmt 1 view .LVU1366
1130:Core/Src/main.c ****   RCC_OscInitStruct.PLL.PLLSource = RCC_PLLSOURCE_HSE;
 5756              		.loc 1 1130 34 is_stmt 0 view .LVU1367
ARM GAS  C:\Users\86183\AppData\Local\Temp\ccdSsS0f.s 			page 135


 5757 0026 0222     		movs	r2, #2
 5758 0028 0D92     		str	r2, [sp, #52]
1131:Core/Src/main.c ****   RCC_OscInitStruct.PLL.PLLMUL = RCC_PLL_MUL9;
 5759              		.loc 1 1131 3 is_stmt 1 view .LVU1368
1131:Core/Src/main.c ****   RCC_OscInitStruct.PLL.PLLMUL = RCC_PLL_MUL9;
 5760              		.loc 1 1131 35 is_stmt 0 view .LVU1369
 5761 002a 0E93     		str	r3, [sp, #56]
1132:Core/Src/main.c ****   if (HAL_RCC_OscConfig(&RCC_OscInitStruct) != HAL_OK)
 5762              		.loc 1 1132 3 is_stmt 1 view .LVU1370
1132:Core/Src/main.c ****   if (HAL_RCC_OscConfig(&RCC_OscInitStruct) != HAL_OK)
 5763              		.loc 1 1132 32 is_stmt 0 view .LVU1371
 5764 002c 4FF4E013 		mov	r3, #1835008
 5765 0030 0F93     		str	r3, [sp, #60]
1133:Core/Src/main.c ****   {
 5766              		.loc 1 1133 3 is_stmt 1 view .LVU1372
1133:Core/Src/main.c ****   {
 5767              		.loc 1 1133 7 is_stmt 0 view .LVU1373
 5768 0032 06A8     		add	r0, sp, #24
 5769 0034 FFF7FEFF 		bl	HAL_RCC_OscConfig
 5770              	.LVL818:
1133:Core/Src/main.c ****   {
 5771              		.loc 1 1133 6 view .LVU1374
 5772 0038 80B9     		cbnz	r0, .L348
1139:Core/Src/main.c ****   RCC_ClkInitStruct.SYSCLKSource = RCC_SYSCLKSOURCE_PLLCLK;
 5773              		.loc 1 1139 3 is_stmt 1 view .LVU1375
1139:Core/Src/main.c ****   RCC_ClkInitStruct.SYSCLKSource = RCC_SYSCLKSOURCE_PLLCLK;
 5774              		.loc 1 1139 31 is_stmt 0 view .LVU1376
 5775 003a 0F23     		movs	r3, #15
 5776 003c 0193     		str	r3, [sp, #4]
1140:Core/Src/main.c ****   RCC_ClkInitStruct.AHBCLKDivider = RCC_SYSCLK_DIV1;
 5777              		.loc 1 1140 3 is_stmt 1 view .LVU1377
1140:Core/Src/main.c ****   RCC_ClkInitStruct.AHBCLKDivider = RCC_SYSCLK_DIV1;
 5778              		.loc 1 1140 34 is_stmt 0 view .LVU1378
 5779 003e 0221     		movs	r1, #2
 5780 0040 0291     		str	r1, [sp, #8]
1141:Core/Src/main.c ****   RCC_ClkInitStruct.APB1CLKDivider = RCC_HCLK_DIV2;
 5781              		.loc 1 1141 3 is_stmt 1 view .LVU1379
1141:Core/Src/main.c ****   RCC_ClkInitStruct.APB1CLKDivider = RCC_HCLK_DIV2;
 5782              		.loc 1 1141 35 is_stmt 0 view .LVU1380
 5783 0042 0023     		movs	r3, #0
 5784 0044 0393     		str	r3, [sp, #12]
1142:Core/Src/main.c ****   RCC_ClkInitStruct.APB2CLKDivider = RCC_HCLK_DIV1;
 5785              		.loc 1 1142 3 is_stmt 1 view .LVU1381
1142:Core/Src/main.c ****   RCC_ClkInitStruct.APB2CLKDivider = RCC_HCLK_DIV1;
 5786              		.loc 1 1142 36 is_stmt 0 view .LVU1382
 5787 0046 4FF48062 		mov	r2, #1024
 5788 004a 0492     		str	r2, [sp, #16]
1143:Core/Src/main.c **** 
 5789              		.loc 1 1143 3 is_stmt 1 view .LVU1383
1143:Core/Src/main.c **** 
 5790              		.loc 1 1143 36 is_stmt 0 view .LVU1384
 5791 004c 0593     		str	r3, [sp, #20]
1145:Core/Src/main.c ****   {
 5792              		.loc 1 1145 3 is_stmt 1 view .LVU1385
1145:Core/Src/main.c ****   {
 5793              		.loc 1 1145 7 is_stmt 0 view .LVU1386
 5794 004e 01A8     		add	r0, sp, #4
ARM GAS  C:\Users\86183\AppData\Local\Temp\ccdSsS0f.s 			page 136


 5795 0050 FFF7FEFF 		bl	HAL_RCC_ClockConfig
 5796              	.LVL819:
1145:Core/Src/main.c ****   {
 5797              		.loc 1 1145 6 view .LVU1387
 5798 0054 20B9     		cbnz	r0, .L349
1149:Core/Src/main.c **** 
 5799              		.loc 1 1149 1 view .LVU1388
 5800 0056 11B0     		add	sp, sp, #68
 5801              	.LCFI47:
 5802              		.cfi_remember_state
 5803              		.cfi_def_cfa_offset 4
 5804              		@ sp needed
 5805 0058 5DF804FB 		ldr	pc, [sp], #4
 5806              	.L348:
 5807              	.LCFI48:
 5808              		.cfi_restore_state
1135:Core/Src/main.c ****   }
 5809              		.loc 1 1135 5 is_stmt 1 view .LVU1389
 5810 005c FFF7FEFF 		bl	Error_Handler
 5811              	.LVL820:
 5812              	.L349:
1147:Core/Src/main.c ****   }
 5813              		.loc 1 1147 5 view .LVU1390
 5814 0060 FFF7FEFF 		bl	Error_Handler
 5815              	.LVL821:
 5816              		.cfi_endproc
 5817              	.LFE92:
 5819              		.section	.text.main,"ax",%progbits
 5820              		.align	1
 5821              		.global	main
 5822              		.syntax unified
 5823              		.thumb
 5824              		.thumb_func
 5825              		.fpu softvfp
 5827              	main:
 5828              	.LFB91:
 936:Core/Src/main.c ****   /* USER CODE BEGIN 1 */
 5829              		.loc 1 936 1 view -0
 5830              		.cfi_startproc
 5831              		@ args = 0, pretend = 0, frame = 0
 5832              		@ frame_needed = 0, uses_anonymous_args = 0
 5833 0000 70B5     		push	{r4, r5, r6, lr}
 5834              	.LCFI49:
 5835              		.cfi_def_cfa_offset 16
 5836              		.cfi_offset 4, -16
 5837              		.cfi_offset 5, -12
 5838              		.cfi_offset 6, -8
 5839              		.cfi_offset 14, -4
 944:Core/Src/main.c **** 
 5840              		.loc 1 944 3 view .LVU1392
 5841 0002 FFF7FEFF 		bl	HAL_Init
 5842              	.LVL822:
 951:Core/Src/main.c **** 
 5843              		.loc 1 951 3 view .LVU1393
 5844 0006 FFF7FEFF 		bl	SystemClock_Config
 5845              	.LVL823:
 958:Core/Src/main.c ****   MX_TIM1_Init();
ARM GAS  C:\Users\86183\AppData\Local\Temp\ccdSsS0f.s 			page 137


 5846              		.loc 1 958 3 view .LVU1394
 5847 000a FFF7FEFF 		bl	MX_GPIO_Init
 5848              	.LVL824:
 959:Core/Src/main.c ****   MX_TIM2_Init();
 5849              		.loc 1 959 3 view .LVU1395
 5850 000e FFF7FEFF 		bl	MX_TIM1_Init
 5851              	.LVL825:
 960:Core/Src/main.c ****   MX_TIM3_Init();
 5852              		.loc 1 960 3 view .LVU1396
 5853 0012 FFF7FEFF 		bl	MX_TIM2_Init
 5854              	.LVL826:
 961:Core/Src/main.c ****   MX_TIM4_Init();
 5855              		.loc 1 961 3 view .LVU1397
 5856 0016 FFF7FEFF 		bl	MX_TIM3_Init
 5857              	.LVL827:
 962:Core/Src/main.c ****   MX_TIM5_Init();
 5858              		.loc 1 962 3 view .LVU1398
 5859 001a FFF7FEFF 		bl	MX_TIM4_Init
 5860              	.LVL828:
 963:Core/Src/main.c ****   MX_TIM8_Init();
 5861              		.loc 1 963 3 view .LVU1399
 5862 001e FFF7FEFF 		bl	MX_TIM5_Init
 5863              	.LVL829:
 964:Core/Src/main.c ****   MX_DMA_Init();
 5864              		.loc 1 964 3 view .LVU1400
 5865 0022 FFF7FEFF 		bl	MX_TIM8_Init
 5866              	.LVL830:
 965:Core/Src/main.c ****   MX_USART3_UART_Init();
 5867              		.loc 1 965 3 view .LVU1401
 5868 0026 FFF7FEFF 		bl	MX_DMA_Init
 5869              	.LVL831:
 966:Core/Src/main.c ****   MX_USART2_UART_Init();
 5870              		.loc 1 966 3 view .LVU1402
 5871 002a FFF7FEFF 		bl	MX_USART3_UART_Init
 5872              	.LVL832:
 967:Core/Src/main.c ****   /* USER CODE BEGIN 2 */
 5873              		.loc 1 967 3 view .LVU1403
 5874 002e FFF7FEFF 		bl	MX_USART2_UART_Init
 5875              	.LVL833:
 969:Core/Src/main.c ****   HAL_TIM_PWM_Start(&htim1, TIM_CHANNEL_1);
 5876              		.loc 1 969 3 view .LVU1404
 5877 0032 5D48     		ldr	r0, .L373
 5878 0034 FFF7FEFF 		bl	HAL_TIM_Base_Start_IT
 5879              	.LVL834:
 970:Core/Src/main.c ****   HAL_TIM_PWM_Start(&htim1, TIM_CHANNEL_2);
 5880              		.loc 1 970 3 view .LVU1405
 5881 0038 5C4C     		ldr	r4, .L373+4
 5882 003a 0021     		movs	r1, #0
 5883 003c 2046     		mov	r0, r4
 5884 003e FFF7FEFF 		bl	HAL_TIM_PWM_Start
 5885              	.LVL835:
 971:Core/Src/main.c ****   HAL_TIM_PWM_Start(&htim1, TIM_CHANNEL_3);
 5886              		.loc 1 971 3 view .LVU1406
 5887 0042 0421     		movs	r1, #4
 5888 0044 2046     		mov	r0, r4
 5889 0046 FFF7FEFF 		bl	HAL_TIM_PWM_Start
 5890              	.LVL836:
ARM GAS  C:\Users\86183\AppData\Local\Temp\ccdSsS0f.s 			page 138


 972:Core/Src/main.c ****   HAL_TIM_PWM_Start(&htim1, TIM_CHANNEL_4);
 5891              		.loc 1 972 3 view .LVU1407
 5892 004a 0821     		movs	r1, #8
 5893 004c 2046     		mov	r0, r4
 5894 004e FFF7FEFF 		bl	HAL_TIM_PWM_Start
 5895              	.LVL837:
 973:Core/Src/main.c ****   HAL_TIM_Encoder_Start(&htim3, TIM_CHANNEL_ALL);
 5896              		.loc 1 973 3 view .LVU1408
 5897 0052 0C21     		movs	r1, #12
 5898 0054 2046     		mov	r0, r4
 5899 0056 FFF7FEFF 		bl	HAL_TIM_PWM_Start
 5900              	.LVL838:
 974:Core/Src/main.c ****   HAL_TIM_Encoder_Start(&htim4, TIM_CHANNEL_ALL);
 5901              		.loc 1 974 3 view .LVU1409
 5902 005a 3C21     		movs	r1, #60
 5903 005c 5448     		ldr	r0, .L373+8
 5904 005e FFF7FEFF 		bl	HAL_TIM_Encoder_Start
 5905              	.LVL839:
 975:Core/Src/main.c ****   HAL_TIM_Encoder_Start(&htim5, TIM_CHANNEL_ALL);
 5906              		.loc 1 975 3 view .LVU1410
 5907 0062 3C21     		movs	r1, #60
 5908 0064 5348     		ldr	r0, .L373+12
 5909 0066 FFF7FEFF 		bl	HAL_TIM_Encoder_Start
 5910              	.LVL840:
 976:Core/Src/main.c ****   HAL_TIM_Encoder_Start(&htim8, TIM_CHANNEL_ALL);
 5911              		.loc 1 976 3 view .LVU1411
 5912 006a 3C21     		movs	r1, #60
 5913 006c 5248     		ldr	r0, .L373+16
 5914 006e FFF7FEFF 		bl	HAL_TIM_Encoder_Start
 5915              	.LVL841:
 977:Core/Src/main.c ****   HAL_Delay(500);
 5916              		.loc 1 977 3 view .LVU1412
 5917 0072 3C21     		movs	r1, #60
 5918 0074 5148     		ldr	r0, .L373+20
 5919 0076 FFF7FEFF 		bl	HAL_TIM_Encoder_Start
 5920              	.LVL842:
 978:Core/Src/main.c ****   jy62_Init(&huart2);
 5921              		.loc 1 978 3 view .LVU1413
 5922 007a 4FF4FA70 		mov	r0, #500
 5923 007e FFF7FEFF 		bl	HAL_Delay
 5924              	.LVL843:
 979:Core/Src/main.c ****   zigbee_Init(&huart3);
 5925              		.loc 1 979 3 view .LVU1414
 5926 0082 4F48     		ldr	r0, .L373+24
 5927 0084 FFF7FEFF 		bl	jy62_Init
 5928              	.LVL844:
 980:Core/Src/main.c ****   Calibrate_Angle();
 5929              		.loc 1 980 3 view .LVU1415
 5930 0088 4E48     		ldr	r0, .L373+28
 5931 008a FFF7FEFF 		bl	zigbee_Init
 5932              	.LVL845:
 981:Core/Src/main.c ****   /* USER CODE END 2 */
 5933              		.loc 1 981 3 view .LVU1416
 5934 008e FFF7FEFF 		bl	Calibrate_Angle
 5935              	.LVL846:
 5936 0092 07E0     		b	.L366
 5937              	.LVL847:
ARM GAS  C:\Users\86183\AppData\Local\Temp\ccdSsS0f.s 			page 139


 5938              	.L351:
 5939              	.LBB47:
1042:Core/Src/main.c ****       Set_RF_Direction(0);
 5940              		.loc 1 1042 7 view .LVU1417
 5941 0094 0020     		movs	r0, #0
 5942              	.LVL848:
1042:Core/Src/main.c ****       Set_RF_Direction(0);
 5943              		.loc 1 1042 7 is_stmt 0 view .LVU1418
 5944 0096 FFF7FEFF 		bl	Set_LF_Direction
 5945              	.LVL849:
1043:Core/Src/main.c ****     }
 5946              		.loc 1 1043 7 is_stmt 1 view .LVU1419
 5947 009a 0020     		movs	r0, #0
 5948 009c FFF7FEFF 		bl	Set_RF_Direction
 5949              	.LVL850:
 5950              	.L357:
1046:Core/Src/main.c ****     {
 5951              		.loc 1 1046 11 view .LVU1420
 5952 00a0 012C     		cmp	r4, #1
 5953 00a2 09D0     		beq	.L369
 5954              	.L366:
1046:Core/Src/main.c ****     {
 5955              		.loc 1 1046 11 is_stmt 0 view .LVU1421
 5956              	.LBE47:
 986:Core/Src/main.c ****   {
 5957              		.loc 1 986 3 is_stmt 1 view .LVU1422
 5958              	.LBB51:
1037:Core/Src/main.c ****     uint8_t gameState = getGameState();
 5959              		.loc 1 1037 5 view .LVU1423
1038:Core/Src/main.c **** 
 5960              		.loc 1 1038 5 view .LVU1424
1038:Core/Src/main.c **** 
 5961              		.loc 1 1038 25 is_stmt 0 view .LVU1425
 5962 00a4 FFF7FEFF 		bl	getGameState
 5963              	.LVL851:
1040:Core/Src/main.c ****     {
 5964              		.loc 1 1040 5 is_stmt 1 view .LVU1426
1040:Core/Src/main.c ****     {
 5965              		.loc 1 1040 8 is_stmt 0 view .LVU1427
 5966 00a8 0446     		mov	r4, r0
 5967 00aa 0028     		cmp	r0, #0
 5968 00ac F2D0     		beq	.L351
1040:Core/Src/main.c ****     {
 5969              		.loc 1 1040 24 discriminator 1 view .LVU1428
 5970 00ae 0228     		cmp	r0, #2
 5971 00b0 F0D0     		beq	.L351
1040:Core/Src/main.c ****     {
 5972              		.loc 1 1040 42 discriminator 2 view .LVU1429
 5973 00b2 0328     		cmp	r0, #3
 5974 00b4 F4D1     		bne	.L357
 5975 00b6 EDE7     		b	.L351
 5976              	.LVL852:
 5977              	.L369:
 5978              	.LBB48:
1048:Core/Src/main.c ****       if (ROUND == 0)
 5979              		.loc 1 1048 7 is_stmt 1 view .LVU1430
1048:Core/Src/main.c ****       if (ROUND == 0)
ARM GAS  C:\Users\86183\AppData\Local\Temp\ccdSsS0f.s 			page 140


 5980              		.loc 1 1048 23 is_stmt 0 view .LVU1431
 5981 00b8 FFF7FEFF 		bl	getCarTask
 5982              	.LVL853:
1049:Core/Src/main.c ****       {
 5983              		.loc 1 1049 7 is_stmt 1 view .LVU1432
1049:Core/Src/main.c ****       {
 5984              		.loc 1 1049 10 is_stmt 0 view .LVU1433
 5985 00bc 10F0FF05 		ands	r5, r0, #255
 5986 00c0 2BD1     		bne	.L353
1051:Core/Src/main.c ****         {
 5987              		.loc 1 1051 9 is_stmt 1 view .LVU1434
 5988 00c2 414B     		ldr	r3, .L373+32
 5989 00c4 1B78     		ldrb	r3, [r3]	@ zero_extendqisi2
 5990 00c6 012B     		cmp	r3, #1
 5991 00c8 13D0     		beq	.L354
 5992 00ca 022B     		cmp	r3, #2
 5993 00cc 38D0     		beq	.L355
 5994 00ce 33B1     		cbz	r3, .L370
1071:Core/Src/main.c ****           Set_Left_Direction(0);
 5995              		.loc 1 1071 11 view .LVU1435
 5996 00d0 0020     		movs	r0, #0
 5997              	.LVL854:
1071:Core/Src/main.c ****           Set_Left_Direction(0);
 5998              		.loc 1 1071 11 is_stmt 0 view .LVU1436
 5999 00d2 FFF7FEFF 		bl	Set_Right_Direction
 6000              	.LVL855:
1072:Core/Src/main.c ****           break;
 6001              		.loc 1 1072 11 is_stmt 1 view .LVU1437
 6002 00d6 0020     		movs	r0, #0
 6003 00d8 FFF7FEFF 		bl	Set_Left_Direction
 6004              	.LVL856:
1073:Core/Src/main.c ****         }
 6005              		.loc 1 1073 11 view .LVU1438
 6006 00dc 1DE0     		b	.L353
 6007              	.LVL857:
 6008              	.L370:
1054:Core/Src/main.c ****           if (getCarMineSumNum() == 2)
 6009              		.loc 1 1054 11 view .LVU1439
 6010 00de FFF7FEFF 		bl	getPackage
 6011              	.LVL858:
1055:Core/Src/main.c ****             STATE = (uint8_t)SET_BEACON;
 6012              		.loc 1 1055 11 view .LVU1440
1055:Core/Src/main.c ****             STATE = (uint8_t)SET_BEACON;
 6013              		.loc 1 1055 15 is_stmt 0 view .LVU1441
 6014 00e2 FFF7FEFF 		bl	getCarMineSumNum
 6015              	.LVL859:
1055:Core/Src/main.c ****             STATE = (uint8_t)SET_BEACON;
 6016              		.loc 1 1055 14 view .LVU1442
 6017 00e6 0228     		cmp	r0, #2
 6018 00e8 17D1     		bne	.L353
1056:Core/Src/main.c ****           break;
 6019              		.loc 1 1056 13 is_stmt 1 view .LVU1443
1056:Core/Src/main.c ****           break;
 6020              		.loc 1 1056 19 is_stmt 0 view .LVU1444
 6021 00ea 374B     		ldr	r3, .L373+32
 6022 00ec 0222     		movs	r2, #2
 6023 00ee 1A70     		strb	r2, [r3]
ARM GAS  C:\Users\86183\AppData\Local\Temp\ccdSsS0f.s 			page 141


 6024 00f0 13E0     		b	.L353
 6025              	.LVL860:
 6026              	.L354:
1060:Core/Src/main.c ****           MoveTo(Park[nearParkId].x, Park[nearParkId].y, 0);
 6027              		.loc 1 1060 11 is_stmt 1 view .LVU1445
1060:Core/Src/main.c ****           MoveTo(Park[nearParkId].x, Park[nearParkId].y, 0);
 6028              		.loc 1 1060 24 is_stmt 0 view .LVU1446
 6029 00f2 0020     		movs	r0, #0
 6030              	.LVL861:
1060:Core/Src/main.c ****           MoveTo(Park[nearParkId].x, Park[nearParkId].y, 0);
 6031              		.loc 1 1060 24 view .LVU1447
 6032 00f4 FFF7FEFF 		bl	getNearestPark
 6033              	.LVL862:
1060:Core/Src/main.c ****           MoveTo(Park[nearParkId].x, Park[nearParkId].y, 0);
 6034              		.loc 1 1060 22 view .LVU1448
 6035 00f8 C0B2     		uxtb	r0, r0
 6036              	.LVL863:
1061:Core/Src/main.c ****           STATE = (uint8_t)EMPTY_STATE;
 6037              		.loc 1 1061 11 is_stmt 1 view .LVU1449
 6038 00fa 344E     		ldr	r6, .L373+36
 6039 00fc 00EB4003 		add	r3, r0, r0, lsl #1
 6040 0100 06EB8303 		add	r3, r6, r3, lsl #2
 6041 0104 00EB4000 		add	r0, r0, r0, lsl #1
 6042              	.LVL864:
1061:Core/Src/main.c ****           STATE = (uint8_t)EMPTY_STATE;
 6043              		.loc 1 1061 11 is_stmt 0 view .LVU1450
 6044 0108 0022     		movs	r2, #0
 6045 010a 5968     		ldr	r1, [r3, #4]	@ float
 6046 010c 56F82000 		ldr	r0, [r6, r0, lsl #2]	@ float
 6047 0110 FFF7FEFF 		bl	MoveTo
 6048              	.LVL865:
1062:Core/Src/main.c ****           break;
 6049              		.loc 1 1062 11 is_stmt 1 view .LVU1451
1062:Core/Src/main.c ****           break;
 6050              		.loc 1 1062 17 is_stmt 0 view .LVU1452
 6051 0114 2C4B     		ldr	r3, .L373+32
 6052 0116 0322     		movs	r2, #3
 6053 0118 1A70     		strb	r2, [r3]
1063:Core/Src/main.c **** 
 6054              		.loc 1 1063 11 is_stmt 1 view .LVU1453
 6055              	.L353:
1077:Core/Src/main.c ****       {
 6056              		.loc 1 1077 7 view .LVU1454
1077:Core/Src/main.c ****       {
 6057              		.loc 1 1077 10 is_stmt 0 view .LVU1455
 6058 011a 012D     		cmp	r5, #1
 6059 011c C0D1     		bne	.L357
 6060              	.LBB49:
1079:Core/Src/main.c ****         if (!isInitialMinePark)
 6061              		.loc 1 1079 9 is_stmt 1 view .LVU1456
1080:Core/Src/main.c ****         {
 6062              		.loc 1 1080 9 view .LVU1457
1080:Core/Src/main.c ****         {
 6063              		.loc 1 1080 13 is_stmt 0 view .LVU1458
 6064 011e 2C4B     		ldr	r3, .L373+40
 6065 0120 1B78     		ldrb	r3, [r3]	@ zero_extendqisi2
1080:Core/Src/main.c ****         {
ARM GAS  C:\Users\86183\AppData\Local\Temp\ccdSsS0f.s 			page 142


 6066              		.loc 1 1080 12 view .LVU1459
 6067 0122 9BB1     		cbz	r3, .L371
 6068              	.L358:
1087:Core/Src/main.c ****           STATE = (uint8_t)PUT_PACKAGE;
 6069              		.loc 1 1087 9 is_stmt 1 view .LVU1460
1087:Core/Src/main.c ****           STATE = (uint8_t)PUT_PACKAGE;
 6070              		.loc 1 1087 13 is_stmt 0 view .LVU1461
 6071 0124 FFF7FEFF 		bl	getGameTime
 6072              	.LVL866:
1087:Core/Src/main.c ****           STATE = (uint8_t)PUT_PACKAGE;
 6073              		.loc 1 1087 12 view .LVU1462
 6074 0128 B0F5617F 		cmp	r0, #900
 6075 012c 17D8     		bhi	.L372
 6076              	.L359:
1090:Core/Src/main.c ****         {
 6077              		.loc 1 1090 9 is_stmt 1 view .LVU1463
 6078 012e 264B     		ldr	r3, .L373+32
 6079 0130 1B78     		ldrb	r3, [r3]	@ zero_extendqisi2
 6080 0132 E3B1     		cbz	r3, .L360
 6081 0134 012B     		cmp	r3, #1
 6082 0136 24D0     		beq	.L361
1105:Core/Src/main.c ****           break;
 6083              		.loc 1 1105 11 view .LVU1464
1105:Core/Src/main.c ****           break;
 6084              		.loc 1 1105 17 is_stmt 0 view .LVU1465
 6085 0138 234B     		ldr	r3, .L373+32
 6086 013a 0022     		movs	r2, #0
 6087 013c 1A70     		strb	r2, [r3]
1106:Core/Src/main.c ****         }
 6088              		.loc 1 1106 11 is_stmt 1 view .LVU1466
 6089 013e AFE7     		b	.L357
 6090              	.LVL867:
 6091              	.L355:
1106:Core/Src/main.c ****         }
 6092              		.loc 1 1106 11 is_stmt 0 view .LVU1467
 6093              	.LBE49:
1066:Core/Src/main.c ****           STATE = (uint8_t)PUT_PACKAGE;
 6094              		.loc 1 1066 11 is_stmt 1 view .LVU1468
 6095 0140 FFF7FEFF 		bl	SetBeacon
 6096              	.LVL868:
1067:Core/Src/main.c ****           break;
 6097              		.loc 1 1067 11 view .LVU1469
1067:Core/Src/main.c ****           break;
 6098              		.loc 1 1067 17 is_stmt 0 view .LVU1470
 6099 0144 204B     		ldr	r3, .L373+32
 6100 0146 0122     		movs	r2, #1
 6101 0148 1A70     		strb	r2, [r3]
1068:Core/Src/main.c **** 
 6102              		.loc 1 1068 11 is_stmt 1 view .LVU1471
 6103 014a E6E7     		b	.L353
 6104              	.L371:
 6105              	.LBB50:
1082:Core/Src/main.c ****           isInitialMinePark = 1;
 6106              		.loc 1 1082 11 view .LVU1472
 6107 014c FFF7FEFF 		bl	initialParkMineType
 6108              	.LVL869:
1083:Core/Src/main.c ****           STATE = (uint8_t)GET_PACKAGE;
ARM GAS  C:\Users\86183\AppData\Local\Temp\ccdSsS0f.s 			page 143


 6109              		.loc 1 1083 11 view .LVU1473
1083:Core/Src/main.c ****           STATE = (uint8_t)GET_PACKAGE;
 6110              		.loc 1 1083 29 is_stmt 0 view .LVU1474
 6111 0150 1F4B     		ldr	r3, .L373+40
 6112 0152 0122     		movs	r2, #1
 6113 0154 1A70     		strb	r2, [r3]
1084:Core/Src/main.c ****         }
 6114              		.loc 1 1084 11 is_stmt 1 view .LVU1475
1084:Core/Src/main.c ****         }
 6115              		.loc 1 1084 17 is_stmt 0 view .LVU1476
 6116 0156 1C4B     		ldr	r3, .L373+32
 6117 0158 0022     		movs	r2, #0
 6118 015a 1A70     		strb	r2, [r3]
 6119 015c E2E7     		b	.L358
 6120              	.L372:
1087:Core/Src/main.c ****           STATE = (uint8_t)PUT_PACKAGE;
 6121              		.loc 1 1087 36 discriminator 1 view .LVU1477
 6122 015e FFF7FEFF 		bl	getCarMineSumNum
 6123              	.LVL870:
1087:Core/Src/main.c ****           STATE = (uint8_t)PUT_PACKAGE;
 6124              		.loc 1 1087 33 discriminator 1 view .LVU1478
 6125 0162 0028     		cmp	r0, #0
 6126 0164 E3D0     		beq	.L359
1088:Core/Src/main.c **** 
 6127              		.loc 1 1088 11 is_stmt 1 view .LVU1479
1088:Core/Src/main.c **** 
 6128              		.loc 1 1088 17 is_stmt 0 view .LVU1480
 6129 0166 184B     		ldr	r3, .L373+32
 6130 0168 0122     		movs	r2, #1
 6131 016a 1A70     		strb	r2, [r3]
 6132 016c DFE7     		b	.L359
 6133              	.L360:
1093:Core/Src/main.c ****           if (getCarMineSumNum() > 8)
 6134              		.loc 1 1093 11 is_stmt 1 view .LVU1481
 6135 016e FFF7FEFF 		bl	getPackage
 6136              	.LVL871:
1094:Core/Src/main.c ****             STATE = (uint8_t)PUT_PACKAGE;
 6137              		.loc 1 1094 11 view .LVU1482
1094:Core/Src/main.c ****             STATE = (uint8_t)PUT_PACKAGE;
 6138              		.loc 1 1094 15 is_stmt 0 view .LVU1483
 6139 0172 FFF7FEFF 		bl	getCarMineSumNum
 6140              	.LVL872:
1094:Core/Src/main.c ****             STATE = (uint8_t)PUT_PACKAGE;
 6141              		.loc 1 1094 14 view .LVU1484
 6142 0176 0828     		cmp	r0, #8
 6143 0178 92D9     		bls	.L357
1095:Core/Src/main.c ****           break;
 6144              		.loc 1 1095 13 is_stmt 1 view .LVU1485
1095:Core/Src/main.c ****           break;
 6145              		.loc 1 1095 19 is_stmt 0 view .LVU1486
 6146 017a 134B     		ldr	r3, .L373+32
 6147 017c 0122     		movs	r2, #1
 6148 017e 1A70     		strb	r2, [r3]
 6149 0180 8EE7     		b	.L357
 6150              	.L361:
1099:Core/Src/main.c ****           MoveTo(Park[m].x, Park[m].y, Park[m].mineType);
 6151              		.loc 1 1099 11 is_stmt 1 view .LVU1487
ARM GAS  C:\Users\86183\AppData\Local\Temp\ccdSsS0f.s 			page 144


1099:Core/Src/main.c ****           MoveTo(Park[m].x, Park[m].y, Park[m].mineType);
 6152              		.loc 1 1099 15 is_stmt 0 view .LVU1488
 6153 0182 FFF7FEFF 		bl	curMostMineType
 6154              	.LVL873:
 6155 0186 FFF7FEFF 		bl	getNearestPark
 6156              	.LVL874:
1100:Core/Src/main.c ****           STATE = (uint8_t)GET_PACKAGE;
 6157              		.loc 1 1100 11 is_stmt 1 view .LVU1489
 6158 018a 104D     		ldr	r5, .L373+36
 6159 018c 0C23     		movs	r3, #12
 6160 018e 00FB03F3 		mul	r3, r0, r3
 6161 0192 E918     		adds	r1, r5, r3
 6162 0194 0A89     		ldrh	r2, [r1, #8]
 6163 0196 4968     		ldr	r1, [r1, #4]	@ float
 6164 0198 E858     		ldr	r0, [r5, r3]	@ float
 6165              	.LVL875:
1100:Core/Src/main.c ****           STATE = (uint8_t)GET_PACKAGE;
 6166              		.loc 1 1100 11 is_stmt 0 view .LVU1490
 6167 019a FFF7FEFF 		bl	MoveTo
 6168              	.LVL876:
1101:Core/Src/main.c ****           break;
 6169              		.loc 1 1101 11 is_stmt 1 view .LVU1491
1101:Core/Src/main.c ****           break;
 6170              		.loc 1 1101 17 is_stmt 0 view .LVU1492
 6171 019e 0A4B     		ldr	r3, .L373+32
 6172 01a0 0022     		movs	r2, #0
 6173 01a2 1A70     		strb	r2, [r3]
1102:Core/Src/main.c **** 
 6174              		.loc 1 1102 11 is_stmt 1 view .LVU1493
 6175 01a4 7CE7     		b	.L357
 6176              	.L374:
 6177 01a6 00BF     		.align	2
 6178              	.L373:
 6179 01a8 00000000 		.word	htim2
 6180 01ac 00000000 		.word	htim1
 6181 01b0 00000000 		.word	htim3
 6182 01b4 00000000 		.word	htim4
 6183 01b8 00000000 		.word	htim5
 6184 01bc 00000000 		.word	htim8
 6185 01c0 00000000 		.word	huart2
 6186 01c4 00000000 		.word	huart3
 6187 01c8 00000000 		.word	.LANCHOR16
 6188 01cc 00000000 		.word	.LANCHOR14
 6189 01d0 00000000 		.word	.LANCHOR18
 6190              	.LBE50:
 6191              	.LBE48:
 6192              	.LBE51:
 6193              		.cfi_endproc
 6194              	.LFE91:
 6196              		.global	RivalBeacon
 6197              		.global	Park
 6198              		.global	surveyDataCount
 6199              		.global	surveyData
 6200              		.global	absoluteAngle
 6201              		.global	angle0
 6202              		.global	isInitialMinePark
 6203              		.global	STATE
ARM GAS  C:\Users\86183\AppData\Local\Temp\ccdSsS0f.s 			page 145


 6204              		.global	BeaconDir
 6205              		.global	distance
 6206              		.global	target
 6207              		.global	pid
 6208              		.global	Kd
 6209              		.global	Ki
 6210              		.global	Kp
 6211              		.global	pre_err
 6212              		.global	INTEGRAL
 6213              		.global	packageY
 6214              		.global	packageX
 6215              		.section	.bss.INTEGRAL,"aw",%nobits
 6216              		.align	2
 6217              		.set	.LANCHOR1,. + 0
 6220              	INTEGRAL:
 6221 0000 00000000 		.space	16
 6221      00000000 
 6221      00000000 
 6221      00000000 
 6222              		.section	.bss.RivalBeacon,"aw",%nobits
 6223              		.align	2
 6224              		.set	.LANCHOR15,. + 0
 6227              	RivalBeacon:
 6228 0000 00000000 		.space	24
 6228      00000000 
 6228      00000000 
 6228      00000000 
 6228      00000000 
 6229              		.section	.bss.STATE,"aw",%nobits
 6230              		.set	.LANCHOR16,. + 0
 6233              	STATE:
 6234 0000 00       		.space	1
 6235              		.section	.bss.absoluteAngle,"aw",%nobits
 6236              		.align	2
 6237              		.set	.LANCHOR8,. + 0
 6240              	absoluteAngle:
 6241 0000 00000000 		.space	4
 6242              		.section	.bss.angle0,"aw",%nobits
 6243              		.align	2
 6244              		.set	.LANCHOR7,. + 0
 6247              	angle0:
 6248 0000 00000000 		.space	4
 6249              		.section	.bss.distance,"aw",%nobits
 6250              		.align	2
 6251              		.set	.LANCHOR0,. + 0
 6254              	distance:
 6255 0000 00000000 		.space	4
 6256              		.section	.bss.isInitialMinePark,"aw",%nobits
 6257              		.set	.LANCHOR18,. + 0
 6260              	isInitialMinePark:
 6261 0000 00       		.space	1
 6262              		.section	.bss.packageX,"aw",%nobits
 6263              		.align	2
 6264              		.set	.LANCHOR11,. + 0
 6267              	packageX:
 6268 0000 00000000 		.space	8
 6268      00000000 
ARM GAS  C:\Users\86183\AppData\Local\Temp\ccdSsS0f.s 			page 146


 6269              		.section	.bss.packageY,"aw",%nobits
 6270              		.align	2
 6271              		.set	.LANCHOR12,. + 0
 6274              	packageY:
 6275 0000 00000000 		.space	8
 6275      00000000 
 6276              		.section	.bss.pid,"aw",%nobits
 6277              		.align	2
 6278              		.set	.LANCHOR6,. + 0
 6281              	pid:
 6282 0000 00000000 		.space	16
 6282      00000000 
 6282      00000000 
 6282      00000000 
 6283              		.section	.bss.pre_err,"aw",%nobits
 6284              		.align	2
 6285              		.set	.LANCHOR2,. + 0
 6288              	pre_err:
 6289 0000 00000000 		.space	16
 6289      00000000 
 6289      00000000 
 6289      00000000 
 6290              		.section	.bss.surveyData,"aw",%nobits
 6291              		.align	2
 6292              		.set	.LANCHOR10,. + 0
 6295              	surveyData:
 6296 0000 00000000 		.space	72
 6296      00000000 
 6296      00000000 
 6296      00000000 
 6296      00000000 
 6297              		.section	.bss.surveyDataCount,"aw",%nobits
 6298              		.align	2
 6299              		.set	.LANCHOR13,. + 0
 6302              	surveyDataCount:
 6303 0000 00000000 		.space	8
 6303      00000000 
 6304              		.section	.bss.target,"aw",%nobits
 6305              		.align	2
 6306              		.set	.LANCHOR9,. + 0
 6309              	target:
 6310 0000 00000000 		.space	16
 6310      00000000 
 6310      00000000 
 6310      00000000 
 6311              		.section	.data.BeaconDir,"aw"
 6312              		.align	2
 6313              		.set	.LANCHOR17,. + 0
 6316              	BeaconDir:
 6317 0000 00008042 		.word	1115684864
 6318 0004 00008042 		.word	1115684864
 6319 0008 00004043 		.word	1128267776
 6320 000c 00008042 		.word	1115684864
 6321 0010 00000043 		.word	1124073472
 6322 0014 00003E43 		.word	1128136704
 6323              		.section	.data.Park,"aw"
 6324              		.align	2
ARM GAS  C:\Users\86183\AppData\Local\Temp\ccdSsS0f.s 			page 147


 6325              		.set	.LANCHOR14,. + 0
 6328              	Park:
 6329 0000 00007041 		.word	1097859072
 6330 0004 00007041 		.word	1097859072
 6331 0008 0000     		.short	0
 6332 000a 0000     		.space	2
 6333 000c 0000FE42 		.word	1123942400
 6334 0010 00007041 		.word	1097859072
 6335 0014 0000     		.short	0
 6336 0016 0000     		.space	2
 6337 0018 00006F43 		.word	1131347968
 6338 001c 00007041 		.word	1097859072
 6339 0020 0000     		.short	0
 6340 0022 0000     		.space	2
 6341 0024 00006F43 		.word	1131347968
 6342 0028 0000FE42 		.word	1123942400
 6343 002c 0000     		.short	0
 6344 002e 0000     		.space	2
 6345 0030 00006F43 		.word	1131347968
 6346 0034 00006F43 		.word	1131347968
 6347 0038 0000     		.short	0
 6348 003a 0000     		.space	2
 6349 003c 0000FE42 		.word	1123942400
 6350 0040 00006F43 		.word	1131347968
 6351 0044 0000     		.short	0
 6352 0046 0000     		.space	2
 6353 0048 00007041 		.word	1097859072
 6354 004c 00006F43 		.word	1131347968
 6355 0050 0000     		.short	0
 6356 0052 0000     		.space	2
 6357 0054 00007041 		.word	1097859072
 6358 0058 0000FE42 		.word	1123942400
 6359 005c 0000     		.short	0
 6360 005e 0000     		.space	2
 6361 0060 00000000 		.word	0
 6362 0064 00000000 		.word	0
 6363 0068 0000     		.short	0
 6364 006a 0000     		.space	2
 6365 006c 00000000 		.word	0
 6366 0070 00000000 		.word	0
 6367 0074 0000     		.short	0
 6368 0076 0000     		.space	2
 6369 0078 00000000 		.word	0
 6370 007c 00000000 		.word	0
 6371 0080 0000     		.short	0
 6372 0082 0000     		.space	2
 6373 0084 00000000 		.space	48
 6373      00000000 
 6373      00000000 
 6373      00000000 
 6373      00000000 
 6374              		.section	.rodata.Kd,"a"
 6375              		.align	2
 6376              		.set	.LANCHOR5,. + 0
 6379              	Kd:
 6380 0000 0000C842 		.word	1120403456
 6381 0004 0000C842 		.word	1120403456
ARM GAS  C:\Users\86183\AppData\Local\Temp\ccdSsS0f.s 			page 148


 6382 0008 0000C842 		.word	1120403456
 6383 000c 0000C842 		.word	1120403456
 6384              		.section	.rodata.Ki,"a"
 6385              		.align	2
 6386              		.set	.LANCHOR4,. + 0
 6389              	Ki:
 6390 0000 CDCC4C3E 		.word	1045220557
 6391 0004 CDCC4C3E 		.word	1045220557
 6392 0008 CDCC4C3E 		.word	1045220557
 6393 000c CDCC4C3E 		.word	1045220557
 6394              		.section	.rodata.Kp,"a"
 6395              		.align	2
 6396              		.set	.LANCHOR3,. + 0
 6399              	Kp:
 6400 0000 00002042 		.word	1109393408
 6401 0004 00002042 		.word	1109393408
 6402 0008 00002042 		.word	1109393408
 6403 000c 00002042 		.word	1109393408
 6404              		.text
 6405              	.Letext0:
 6406              		.file 3 "d:\\gnu arm embedded toolchain10\\10 2021.07\\arm-none-eabi\\include\\machine\\_default_t
 6407              		.file 4 "d:\\gnu arm embedded toolchain10\\10 2021.07\\arm-none-eabi\\include\\sys\\_stdint.h"
 6408              		.file 5 "Drivers/CMSIS/Device/ST/STM32F1xx/Include/stm32f103xe.h"
 6409              		.file 6 "Drivers/CMSIS/Device/ST/STM32F1xx/Include/stm32f1xx.h"
 6410              		.file 7 "Drivers/STM32F1xx_HAL_Driver/Inc/stm32f1xx_hal_def.h"
 6411              		.file 8 "Drivers/STM32F1xx_HAL_Driver/Inc/stm32f1xx_hal_rcc.h"
 6412              		.file 9 "Drivers/STM32F1xx_HAL_Driver/Inc/stm32f1xx_hal_rcc_ex.h"
 6413              		.file 10 "Drivers/STM32F1xx_HAL_Driver/Inc/stm32f1xx_hal_dma.h"
 6414              		.file 11 "Drivers/STM32F1xx_HAL_Driver/Inc/stm32f1xx_hal_tim.h"
 6415              		.file 12 "Drivers/STM32F1xx_HAL_Driver/Inc/stm32f1xx_hal_uart.h"
 6416              		.file 13 "Core/Inc/tim.h"
 6417              		.file 14 "Core/Inc/usart.h"
 6418              		.file 15 "Core/Inc/zigbee.h"
 6419              		.file 16 "Drivers/STM32F1xx_HAL_Driver/Inc/stm32f1xx_hal.h"
 6420              		.file 17 "Core/Inc/gpio.h"
 6421              		.file 18 "Core/Inc/dma.h"
 6422              		.file 19 "Core/Inc/jy62.h"
 6423              		.file 20 "Drivers/STM32F1xx_HAL_Driver/Inc/stm32f1xx_hal_gpio.h"
 6424              		.file 21 "d:\\gnu arm embedded toolchain10\\10 2021.07\\arm-none-eabi\\include\\math.h"
 6425              		.file 22 "<built-in>"
ARM GAS  C:\Users\86183\AppData\Local\Temp\ccdSsS0f.s 			page 149


DEFINED SYMBOLS
                            *ABS*:00000000 main.c
C:\Users\86183\AppData\Local\Temp\ccdSsS0f.s:16     .text.userGetMineNum:00000000 $t
C:\Users\86183\AppData\Local\Temp\ccdSsS0f.s:24     .text.userGetMineNum:00000000 userGetMineNum
C:\Users\86183\AppData\Local\Temp\ccdSsS0f.s:95     .text.clearDistance:00000000 $t
C:\Users\86183\AppData\Local\Temp\ccdSsS0f.s:102    .text.clearDistance:00000000 clearDistance
C:\Users\86183\AppData\Local\Temp\ccdSsS0f.s:119    .text.clearDistance:00000008 $d
C:\Users\86183\AppData\Local\Temp\ccdSsS0f.s:124    .text.getDistance:00000000 $t
C:\Users\86183\AppData\Local\Temp\ccdSsS0f.s:131    .text.getDistance:00000000 getDistance
C:\Users\86183\AppData\Local\Temp\ccdSsS0f.s:146    .text.getDistance:00000008 $d
C:\Users\86183\AppData\Local\Temp\ccdSsS0f.s:157    .text.PID:00000000 $t
C:\Users\86183\AppData\Local\Temp\ccdSsS0f.s:164    .text.PID:00000000 PID
C:\Users\86183\AppData\Local\Temp\ccdSsS0f.s:305    .text.PID:000000ac $d
C:\Users\86183\AppData\Local\Temp\ccdSsS0f.s:318    .text.Calibrate_Angle:00000000 $t
C:\Users\86183\AppData\Local\Temp\ccdSsS0f.s:325    .text.Calibrate_Angle:00000000 Calibrate_Angle
C:\Users\86183\AppData\Local\Temp\ccdSsS0f.s:527    .text.Calibrate_Angle:000000c8 $d
C:\Users\86183\AppData\Local\Temp\ccdSsS0f.s:537    .text.getAngle:00000000 $t
C:\Users\86183\AppData\Local\Temp\ccdSsS0f.s:544    .text.getAngle:00000000 getAngle
C:\Users\86183\AppData\Local\Temp\ccdSsS0f.s:605    .text.getAngle:00000040 $d
C:\Users\86183\AppData\Local\Temp\ccdSsS0f.s:613    .text.Set_Left_Direction:00000000 $t
C:\Users\86183\AppData\Local\Temp\ccdSsS0f.s:620    .text.Set_Left_Direction:00000000 Set_Left_Direction
C:\Users\86183\AppData\Local\Temp\ccdSsS0f.s:735    .text.Set_Left_Direction:000000a4 $d
C:\Users\86183\AppData\Local\Temp\ccdSsS0f.s:741    .text.Set_Right_Direction:00000000 $t
C:\Users\86183\AppData\Local\Temp\ccdSsS0f.s:748    .text.Set_Right_Direction:00000000 Set_Right_Direction
C:\Users\86183\AppData\Local\Temp\ccdSsS0f.s:861    .text.Set_Right_Direction:000000a8 $d
C:\Users\86183\AppData\Local\Temp\ccdSsS0f.s:868    .text.Set_Speed:00000000 $t
C:\Users\86183\AppData\Local\Temp\ccdSsS0f.s:875    .text.Set_Speed:00000000 Set_Speed
C:\Users\86183\AppData\Local\Temp\ccdSsS0f.s:918    .text.Set_Speed:0000001c $d
C:\Users\86183\AppData\Local\Temp\ccdSsS0f.s:923    .text.Add_Angle:00000000 $t
C:\Users\86183\AppData\Local\Temp\ccdSsS0f.s:930    .text.Add_Angle:00000000 Add_Angle
C:\Users\86183\AppData\Local\Temp\ccdSsS0f.s:989    .text.Add_Angle:00000038 $d
C:\Users\86183\AppData\Local\Temp\ccdSsS0f.s:996    .text.Turn:00000000 $t
C:\Users\86183\AppData\Local\Temp\ccdSsS0f.s:1003   .text.Turn:00000000 Turn
C:\Users\86183\AppData\Local\Temp\ccdSsS0f.s:1341   .text.Turn:0000014c $d
C:\Users\86183\AppData\Local\Temp\ccdSsS0f.s:1358   .text.HAL_TIM_PeriodElapsedCallback:00000000 $t
C:\Users\86183\AppData\Local\Temp\ccdSsS0f.s:1365   .text.HAL_TIM_PeriodElapsedCallback:00000000 HAL_TIM_PeriodElapsedCallback
C:\Users\86183\AppData\Local\Temp\ccdSsS0f.s:1763   .text.HAL_TIM_PeriodElapsedCallback:000001f8 $d
C:\Users\86183\AppData\Local\Temp\ccdSsS0f.s:1787   .text.userGetCarPos:00000000 $t
C:\Users\86183\AppData\Local\Temp\ccdSsS0f.s:1794   .text.userGetCarPos:00000000 userGetCarPos
C:\Users\86183\AppData\Local\Temp\ccdSsS0f.s:2428   .text.surveyGetCarPos:00000000 $t
C:\Users\86183\AppData\Local\Temp\ccdSsS0f.s:2435   .text.surveyGetCarPos:00000000 surveyGetCarPos
C:\Users\86183\AppData\Local\Temp\ccdSsS0f.s:3073   .text.surveyGetCarPos:00000384 $d
C:\Users\86183\AppData\Local\Temp\ccdSsS0f.s:3079   .text.Calculate_Package_Position:00000000 $t
C:\Users\86183\AppData\Local\Temp\ccdSsS0f.s:3086   .text.Calculate_Package_Position:00000000 Calculate_Package_Position
C:\Users\86183\AppData\Local\Temp\ccdSsS0f.s:3447   .text.Calculate_Package_Position:00000228 $d
C:\Users\86183\AppData\Local\Temp\ccdSsS0f.s:3457   .text.survey:00000000 $t
C:\Users\86183\AppData\Local\Temp\ccdSsS0f.s:3464   .text.survey:00000000 survey
C:\Users\86183\AppData\Local\Temp\ccdSsS0f.s:3722   .text.survey:00000160 $d
C:\Users\86183\AppData\Local\Temp\ccdSsS0f.s:3728   .text.Set_Beacon:00000000 $t
C:\Users\86183\AppData\Local\Temp\ccdSsS0f.s:3735   .text.Set_Beacon:00000000 Set_Beacon
C:\Users\86183\AppData\Local\Temp\ccdSsS0f.s:3780   .text.Set_Beacon:00000038 $d
C:\Users\86183\AppData\Local\Temp\ccdSsS0f.s:3785   .text.getNearestPark:00000000 $t
C:\Users\86183\AppData\Local\Temp\ccdSsS0f.s:3792   .text.getNearestPark:00000000 getNearestPark
C:\Users\86183\AppData\Local\Temp\ccdSsS0f.s:4004   .text.getNearestPark:000000e4 $d
C:\Users\86183\AppData\Local\Temp\ccdSsS0f.s:4010   .text.curMostMineType:00000000 $t
C:\Users\86183\AppData\Local\Temp\ccdSsS0f.s:4017   .text.curMostMineType:00000000 curMostMineType
C:\Users\86183\AppData\Local\Temp\ccdSsS0f.s:4111   .text.initialParkMineType:00000000 $t
ARM GAS  C:\Users\86183\AppData\Local\Temp\ccdSsS0f.s 			page 150


C:\Users\86183\AppData\Local\Temp\ccdSsS0f.s:4118   .text.initialParkMineType:00000000 initialParkMineType
C:\Users\86183\AppData\Local\Temp\ccdSsS0f.s:4242   .text.initialParkMineType:00000084 $d
C:\Users\86183\AppData\Local\Temp\ccdSsS0f.s:4248   .text.Set_LF_Direction:00000000 $t
C:\Users\86183\AppData\Local\Temp\ccdSsS0f.s:4255   .text.Set_LF_Direction:00000000 Set_LF_Direction
C:\Users\86183\AppData\Local\Temp\ccdSsS0f.s:4370   .text.Set_LF_Direction:000000b0 $d
C:\Users\86183\AppData\Local\Temp\ccdSsS0f.s:4376   .text.Set_RF_Direction:00000000 $t
C:\Users\86183\AppData\Local\Temp\ccdSsS0f.s:4383   .text.Set_RF_Direction:00000000 Set_RF_Direction
C:\Users\86183\AppData\Local\Temp\ccdSsS0f.s:4496   .text.Set_RF_Direction:0000009c $d
C:\Users\86183\AppData\Local\Temp\ccdSsS0f.s:4504   .text.Move:00000000 $t
C:\Users\86183\AppData\Local\Temp\ccdSsS0f.s:4511   .text.Move:00000000 Move
C:\Users\86183\AppData\Local\Temp\ccdSsS0f.s:4699   .text.Move:000000f8 $d
C:\Users\86183\AppData\Local\Temp\ccdSsS0f.s:4709   .text.MoveTo:00000000 $t
C:\Users\86183\AppData\Local\Temp\ccdSsS0f.s:4716   .text.MoveTo:00000000 MoveTo
C:\Users\86183\AppData\Local\Temp\ccdSsS0f.s:5160   .text.MoveTo:00000248 $d
C:\Users\86183\AppData\Local\Temp\ccdSsS0f.s:5183   .text.getPackage:00000000 $t
C:\Users\86183\AppData\Local\Temp\ccdSsS0f.s:5190   .text.getPackage:00000000 getPackage
C:\Users\86183\AppData\Local\Temp\ccdSsS0f.s:5329   .text.getPackage:000000b4 $d
C:\Users\86183\AppData\Local\Temp\ccdSsS0f.s:5335   .text.SetBeacon:00000000 $t
C:\Users\86183\AppData\Local\Temp\ccdSsS0f.s:5342   .text.SetBeacon:00000000 SetBeacon
C:\Users\86183\AppData\Local\Temp\ccdSsS0f.s:5664   .text.SetBeacon:0000016c $d
C:\Users\86183\AppData\Local\Temp\ccdSsS0f.s:5669   .text.Error_Handler:00000000 $t
C:\Users\86183\AppData\Local\Temp\ccdSsS0f.s:5676   .text.Error_Handler:00000000 Error_Handler
C:\Users\86183\AppData\Local\Temp\ccdSsS0f.s:5708   .text.SystemClock_Config:00000000 $t
C:\Users\86183\AppData\Local\Temp\ccdSsS0f.s:5715   .text.SystemClock_Config:00000000 SystemClock_Config
C:\Users\86183\AppData\Local\Temp\ccdSsS0f.s:5820   .text.main:00000000 $t
C:\Users\86183\AppData\Local\Temp\ccdSsS0f.s:5827   .text.main:00000000 main
C:\Users\86183\AppData\Local\Temp\ccdSsS0f.s:6179   .text.main:000001a8 $d
C:\Users\86183\AppData\Local\Temp\ccdSsS0f.s:6227   .bss.RivalBeacon:00000000 RivalBeacon
C:\Users\86183\AppData\Local\Temp\ccdSsS0f.s:6328   .data.Park:00000000 Park
C:\Users\86183\AppData\Local\Temp\ccdSsS0f.s:6302   .bss.surveyDataCount:00000000 surveyDataCount
C:\Users\86183\AppData\Local\Temp\ccdSsS0f.s:6295   .bss.surveyData:00000000 surveyData
C:\Users\86183\AppData\Local\Temp\ccdSsS0f.s:6240   .bss.absoluteAngle:00000000 absoluteAngle
C:\Users\86183\AppData\Local\Temp\ccdSsS0f.s:6247   .bss.angle0:00000000 angle0
C:\Users\86183\AppData\Local\Temp\ccdSsS0f.s:6260   .bss.isInitialMinePark:00000000 isInitialMinePark
C:\Users\86183\AppData\Local\Temp\ccdSsS0f.s:6233   .bss.STATE:00000000 STATE
C:\Users\86183\AppData\Local\Temp\ccdSsS0f.s:6316   .data.BeaconDir:00000000 BeaconDir
C:\Users\86183\AppData\Local\Temp\ccdSsS0f.s:6254   .bss.distance:00000000 distance
C:\Users\86183\AppData\Local\Temp\ccdSsS0f.s:6309   .bss.target:00000000 target
C:\Users\86183\AppData\Local\Temp\ccdSsS0f.s:6281   .bss.pid:00000000 pid
C:\Users\86183\AppData\Local\Temp\ccdSsS0f.s:6379   .rodata.Kd:00000000 Kd
C:\Users\86183\AppData\Local\Temp\ccdSsS0f.s:6389   .rodata.Ki:00000000 Ki
C:\Users\86183\AppData\Local\Temp\ccdSsS0f.s:6399   .rodata.Kp:00000000 Kp
C:\Users\86183\AppData\Local\Temp\ccdSsS0f.s:6288   .bss.pre_err:00000000 pre_err
C:\Users\86183\AppData\Local\Temp\ccdSsS0f.s:6220   .bss.INTEGRAL:00000000 INTEGRAL
C:\Users\86183\AppData\Local\Temp\ccdSsS0f.s:6274   .bss.packageY:00000000 packageY
C:\Users\86183\AppData\Local\Temp\ccdSsS0f.s:6267   .bss.packageX:00000000 packageX
C:\Users\86183\AppData\Local\Temp\ccdSsS0f.s:6216   .bss.INTEGRAL:00000000 $d
C:\Users\86183\AppData\Local\Temp\ccdSsS0f.s:6223   .bss.RivalBeacon:00000000 $d
C:\Users\86183\AppData\Local\Temp\ccdSsS0f.s:6234   .bss.STATE:00000000 $d
C:\Users\86183\AppData\Local\Temp\ccdSsS0f.s:6236   .bss.absoluteAngle:00000000 $d
C:\Users\86183\AppData\Local\Temp\ccdSsS0f.s:6243   .bss.angle0:00000000 $d
C:\Users\86183\AppData\Local\Temp\ccdSsS0f.s:6250   .bss.distance:00000000 $d
C:\Users\86183\AppData\Local\Temp\ccdSsS0f.s:6261   .bss.isInitialMinePark:00000000 $d
C:\Users\86183\AppData\Local\Temp\ccdSsS0f.s:6263   .bss.packageX:00000000 $d
C:\Users\86183\AppData\Local\Temp\ccdSsS0f.s:6270   .bss.packageY:00000000 $d
C:\Users\86183\AppData\Local\Temp\ccdSsS0f.s:6277   .bss.pid:00000000 $d
C:\Users\86183\AppData\Local\Temp\ccdSsS0f.s:6284   .bss.pre_err:00000000 $d
ARM GAS  C:\Users\86183\AppData\Local\Temp\ccdSsS0f.s 			page 151


C:\Users\86183\AppData\Local\Temp\ccdSsS0f.s:6291   .bss.surveyData:00000000 $d
C:\Users\86183\AppData\Local\Temp\ccdSsS0f.s:6298   .bss.surveyDataCount:00000000 $d
C:\Users\86183\AppData\Local\Temp\ccdSsS0f.s:6305   .bss.target:00000000 $d
C:\Users\86183\AppData\Local\Temp\ccdSsS0f.s:6312   .data.BeaconDir:00000000 $d
C:\Users\86183\AppData\Local\Temp\ccdSsS0f.s:6324   .data.Park:00000000 $d
C:\Users\86183\AppData\Local\Temp\ccdSsS0f.s:6375   .rodata.Kd:00000000 $d
C:\Users\86183\AppData\Local\Temp\ccdSsS0f.s:6385   .rodata.Ki:00000000 $d
C:\Users\86183\AppData\Local\Temp\ccdSsS0f.s:6395   .rodata.Kp:00000000 $d

UNDEFINED SYMBOLS
getCarMineANum
getCarMineBNum
getCarMineCNum
getCarMineDNum
__aeabi_fsub
__aeabi_fmul
__aeabi_fadd
__aeabi_fcmpgt
__aeabi_fdiv
__aeabi_fcmplt
GetYaw
HAL_GPIO_WritePin
__aeabi_ui2f
__aeabi_f2d
__aeabi_dmul
__aeabi_d2f
__aeabi_dadd
__aeabi_f2iz
sqrt
htim3
htim4
htim5
htim8
htim1
__aeabi_i2f
__aeabi_i2d
__aeabi_d2iz
getIsCarPosValid
getMyBeaconPosX
getMyBeaconPosY
getDistanceOfMyBeacon
getCarPosX
getCarPosY
__aeabi_ddiv
getMineIntensity
HAL_Delay
getCarTask
getParkDotMineType
getMyBeaconMineType
getRivalBeaconPosX
getRivalBeaconPosY
__aeabi_fcmpge
cos
sin
__aeabi_dsub
__aeabi_dcmplt
getCarMineSumNum
ARM GAS  C:\Users\86183\AppData\Local\Temp\ccdSsS0f.s 			page 152


atan2
zigbeeSend
memset
HAL_RCC_OscConfig
HAL_RCC_ClockConfig
HAL_Init
MX_GPIO_Init
MX_TIM1_Init
MX_TIM2_Init
MX_TIM3_Init
MX_TIM4_Init
MX_TIM5_Init
MX_TIM8_Init
MX_DMA_Init
MX_USART3_UART_Init
MX_USART2_UART_Init
HAL_TIM_Base_Start_IT
HAL_TIM_PWM_Start
HAL_TIM_Encoder_Start
jy62_Init
zigbee_Init
getGameState
getGameTime
htim2
huart2
huart3
