ARM GAS  C:\Users\86183\AppData\Local\Temp\ccaDF7Ye.s 			page 1


   1              		.cpu cortex-m3
   2              		.eabi_attribute 20, 1
   3              		.eabi_attribute 21, 1
   4              		.eabi_attribute 23, 3
   5              		.eabi_attribute 24, 1
   6              		.eabi_attribute 25, 1
   7              		.eabi_attribute 26, 1
   8              		.eabi_attribute 30, 1
   9              		.eabi_attribute 34, 1
  10              		.eabi_attribute 18, 4
  11              		.file	"main.c"
  12              		.text
  13              	.Ltext0:
  14              		.cfi_sections	.debug_frame
  15              		.section	.text.userGetMineNum,"ax",%progbits
  16              		.align	1
  17              		.global	userGetMineNum
  18              		.arch armv7-m
  19              		.syntax unified
  20              		.thumb
  21              		.thumb_func
  22              		.fpu softvfp
  24              	userGetMineNum:
  25              	.LVL0:
  26              	.LFB65:
  27              		.file 1 "Core/Src/main.c"
   1:Core/Src/main.c **** /* USER CODE BEGIN Header */
   2:Core/Src/main.c **** /**
   3:Core/Src/main.c ****  ******************************************************************************
   4:Core/Src/main.c ****  * @file           : main.c
   5:Core/Src/main.c ****  * @brief          : Main program body
   6:Core/Src/main.c ****  ******************************************************************************
   7:Core/Src/main.c ****  * @attention
   8:Core/Src/main.c ****  *
   9:Core/Src/main.c ****  * <h2><center>&copy; Copyright (c) 2021 STMicroelectronics.
  10:Core/Src/main.c ****  * All rights reserved.</center></h2>
  11:Core/Src/main.c ****  *
  12:Core/Src/main.c ****  * This software component is licensed by ST under BSD 3-Clause license,
  13:Core/Src/main.c ****  * the "License"; You may not use this file except in compliance with the
  14:Core/Src/main.c ****  * License. You may obtain a copy of the License at:
  15:Core/Src/main.c ****  *                        opensource.org/licenses/BSD-3-Clause
  16:Core/Src/main.c ****  *
  17:Core/Src/main.c ****  ******************************************************************************
  18:Core/Src/main.c ****  */
  19:Core/Src/main.c **** /* USER CODE END Header */
  20:Core/Src/main.c **** /* Includes ------------------------------------------------------------------*/
  21:Core/Src/main.c **** #include "main.h"
  22:Core/Src/main.c **** #include "dma.h"
  23:Core/Src/main.c **** #include "tim.h"
  24:Core/Src/main.c **** #include "usart.h"
  25:Core/Src/main.c **** #include "gpio.h"
  26:Core/Src/main.c **** 
  27:Core/Src/main.c **** /* Private includes ----------------------------------------------------------*/
  28:Core/Src/main.c **** /* USER CODE BEGIN Includes */
  29:Core/Src/main.c **** #include <math.h>
  30:Core/Src/main.c **** #include "jy62.h"
  31:Core/Src/main.c **** #include "zigbee.h"
ARM GAS  C:\Users\86183\AppData\Local\Temp\ccaDF7Ye.s 			page 2


  32:Core/Src/main.c **** /* USER CODE END Includes */
  33:Core/Src/main.c **** 
  34:Core/Src/main.c **** /* Private typedef -----------------------------------------------------------*/
  35:Core/Src/main.c **** /* USER CODE BEGIN PTD */
  36:Core/Src/main.c **** /* USER CODE END PTD */
  37:Core/Src/main.c **** 
  38:Core/Src/main.c **** /* Private define ------------------------------------------------------------*/
  39:Core/Src/main.c **** /* USER CODE BEGIN PD */
  40:Core/Src/main.c **** /* USER CODE END PD */
  41:Core/Src/main.c **** 
  42:Core/Src/main.c **** /* Private macro -------------------------------------------------------------*/
  43:Core/Src/main.c **** /* USER CODE BEGIN PM */
  44:Core/Src/main.c **** 
  45:Core/Src/main.c **** /* USER CODE END PM */
  46:Core/Src/main.c **** 
  47:Core/Src/main.c **** /* Private variables ---------------------------------------------------------*/
  48:Core/Src/main.c **** 
  49:Core/Src/main.c **** /* USER CODE BEGIN PV */
  50:Core/Src/main.c **** /* USER CODE END PV */
  51:Core/Src/main.c **** 
  52:Core/Src/main.c **** /* Private function prototypes -----------------------------------------------*/
  53:Core/Src/main.c **** void SystemClock_Config(void);
  54:Core/Src/main.c **** /* USER CODE BEGIN PFP */
  55:Core/Src/main.c **** 
  56:Core/Src/main.c **** /* USER CODE END PFP */
  57:Core/Src/main.c **** 
  58:Core/Src/main.c **** /* Private user code ---------------------------------------------------------*/
  59:Core/Src/main.c **** /* USER CODE BEGIN 0 */
  60:Core/Src/main.c **** #define Turn_Angle_Bias 10
  61:Core/Src/main.c **** #define PID_MAX 900
  62:Core/Src/main.c **** #define PID_MIN 0
  63:Core/Src/main.c **** #define GET_PACKAGE 0
  64:Core/Src/main.c **** #define PUT_PACKAGE 1
  65:Core/Src/main.c **** #define SET_BEACON 2
  66:Core/Src/main.c **** #define EMPTY_STATE 3
  67:Core/Src/main.c **** #define TIME_UP 4
  68:Core/Src/main.c **** #define sq(x) ((x) * (x))
  69:Core/Src/main.c **** 
  70:Core/Src/main.c **** float packageX[2], packageY[2];
  71:Core/Src/main.c **** /*PID参数----------------------------------------------------------------------*/
  72:Core/Src/main.c **** float INTEGRAL[4] = {0, 0, 0, 0}, pre_err[4] = {0, 0, 0, 0};
  73:Core/Src/main.c **** const float Kp[4] = {40, 40, 40, 40}, Ki[4] = {0.2, 0.2, 0.2, 0.2}, Kd[4] = {100, 100, 100, 100};
  74:Core/Src/main.c **** float pid[4] = {0, 0, 0, 0};
  75:Core/Src/main.c **** float target[4] = {0, 0, 0, 0};
  76:Core/Src/main.c **** int isPackageValid[2] = {0, 0};
  77:Core/Src/main.c **** float distance;
  78:Core/Src/main.c **** float BeaconDir[3][2] = {{64, 64}, {192, 64}, {128, 190}}; // 信标坐标
  79:Core/Src/main.c **** uint8_t STATE;
  80:Core/Src/main.c **** uint8_t isInitialMinePark = 0;
  81:Core/Src/main.c **** float angle0;
  82:Core/Src/main.c **** float absoluteAngle;
  83:Core/Src/main.c **** 
  84:Core/Src/main.c **** struct MYCOORD
  85:Core/Src/main.c **** {
  86:Core/Src/main.c ****   float x, y;
  87:Core/Src/main.c ****   float I; //矿物强度
  88:Core/Src/main.c **** };
ARM GAS  C:\Users\86183\AppData\Local\Temp\ccaDF7Ye.s 			page 3


  89:Core/Src/main.c **** 
  90:Core/Src/main.c **** struct MYCOORD surveyData[2][3];
  91:Core/Src/main.c **** int surveyDataCount[2]; // 0 ~ 4 4 代表坐标已经计算完成.
  92:Core/Src/main.c **** 
  93:Core/Src/main.c **** struct PARK
  94:Core/Src/main.c **** {
  95:Core/Src/main.c ****   float x, y;
  96:Core/Src/main.c ****   uint16_t mineType;
  97:Core/Src/main.c **** };
  98:Core/Src/main.c **** 
  99:Core/Src/main.c **** struct RIVALBEACON
 100:Core/Src/main.c **** {
 101:Core/Src/main.c ****   float x, y;
 102:Core/Src/main.c ****   int id;
 103:Core/Src/main.c **** };
 104:Core/Src/main.c **** struct RIVALBEACON RivalBeacon[3] = {{0, 0, 0}, {0, 0, 0}, {0, 0, 0}};
 105:Core/Src/main.c **** int RivalBeaconNum = 0;
 106:Core/Src/main.c **** 
 107:Core/Src/main.c **** struct PARK Park[15] = {{15, 15, 0}, {127, 15, 0}, {239, 15, 0}, {239, 127, 0}, {239, 239, 0}, {127
 108:Core/Src/main.c **** 
 109:Core/Src/main.c **** uint16_t userGetMineNum(uint16_t _mineType)
 110:Core/Src/main.c **** {
  28              		.loc 1 110 1 view -0
  29              		.cfi_startproc
  30              		@ args = 0, pretend = 0, frame = 0
  31              		@ frame_needed = 0, uses_anonymous_args = 0
  32              		.loc 1 110 1 is_stmt 0 view .LVU1
  33 0000 08B5     		push	{r3, lr}
  34              	.LCFI0:
  35              		.cfi_def_cfa_offset 8
  36              		.cfi_offset 3, -8
  37              		.cfi_offset 14, -4
 111:Core/Src/main.c ****   if (_mineType == 0)
  38              		.loc 1 111 3 is_stmt 1 view .LVU2
  39              		.loc 1 111 6 is_stmt 0 view .LVU3
  40 0002 38B1     		cbz	r0, .L8
 112:Core/Src/main.c ****     return getCarMineANum();
 113:Core/Src/main.c ****   if (_mineType == 1)
  41              		.loc 1 113 3 is_stmt 1 view .LVU4
  42              		.loc 1 113 6 is_stmt 0 view .LVU5
  43 0004 0128     		cmp	r0, #1
  44 0006 08D0     		beq	.L9
 114:Core/Src/main.c ****     return getCarMineBNum();
 115:Core/Src/main.c ****   if (_mineType == 2)
  45              		.loc 1 115 3 is_stmt 1 view .LVU6
  46              		.loc 1 115 6 is_stmt 0 view .LVU7
  47 0008 0228     		cmp	r0, #2
  48 000a 09D0     		beq	.L10
 116:Core/Src/main.c ****     return getCarMineCNum();
 117:Core/Src/main.c ****   if (_mineType == 3)
  49              		.loc 1 117 3 is_stmt 1 view .LVU8
  50              		.loc 1 117 6 is_stmt 0 view .LVU9
  51 000c 0328     		cmp	r0, #3
  52 000e 0AD0     		beq	.L11
 118:Core/Src/main.c ****     return getCarMineDNum();
 119:Core/Src/main.c ****   return 0;
  53              		.loc 1 119 10 view .LVU10
ARM GAS  C:\Users\86183\AppData\Local\Temp\ccaDF7Ye.s 			page 4


  54 0010 0020     		movs	r0, #0
  55              	.LVL1:
  56              	.L3:
 120:Core/Src/main.c **** }
  57              		.loc 1 120 1 view .LVU11
  58 0012 08BD     		pop	{r3, pc}
  59              	.LVL2:
  60              	.L8:
 112:Core/Src/main.c ****   if (_mineType == 1)
  61              		.loc 1 112 5 is_stmt 1 view .LVU12
 112:Core/Src/main.c ****   if (_mineType == 1)
  62              		.loc 1 112 12 is_stmt 0 view .LVU13
  63 0014 FFF7FEFF 		bl	getCarMineANum
  64              	.LVL3:
 112:Core/Src/main.c ****   if (_mineType == 1)
  65              		.loc 1 112 12 view .LVU14
  66 0018 FBE7     		b	.L3
  67              	.LVL4:
  68              	.L9:
 114:Core/Src/main.c ****   if (_mineType == 2)
  69              		.loc 1 114 5 is_stmt 1 view .LVU15
 114:Core/Src/main.c ****   if (_mineType == 2)
  70              		.loc 1 114 12 is_stmt 0 view .LVU16
  71 001a FFF7FEFF 		bl	getCarMineBNum
  72              	.LVL5:
 114:Core/Src/main.c ****   if (_mineType == 2)
  73              		.loc 1 114 12 view .LVU17
  74 001e F8E7     		b	.L3
  75              	.LVL6:
  76              	.L10:
 116:Core/Src/main.c ****   if (_mineType == 3)
  77              		.loc 1 116 5 is_stmt 1 view .LVU18
 116:Core/Src/main.c ****   if (_mineType == 3)
  78              		.loc 1 116 12 is_stmt 0 view .LVU19
  79 0020 FFF7FEFF 		bl	getCarMineCNum
  80              	.LVL7:
 116:Core/Src/main.c ****   if (_mineType == 3)
  81              		.loc 1 116 12 view .LVU20
  82 0024 F5E7     		b	.L3
  83              	.LVL8:
  84              	.L11:
 118:Core/Src/main.c ****   return 0;
  85              		.loc 1 118 5 is_stmt 1 view .LVU21
 118:Core/Src/main.c ****   return 0;
  86              		.loc 1 118 12 is_stmt 0 view .LVU22
  87 0026 FFF7FEFF 		bl	getCarMineDNum
  88              	.LVL9:
 118:Core/Src/main.c ****   return 0;
  89              		.loc 1 118 12 view .LVU23
  90 002a F2E7     		b	.L3
  91              		.cfi_endproc
  92              	.LFE65:
  94              		.section	.text.clearDistance,"ax",%progbits
  95              		.align	1
  96              		.global	clearDistance
  97              		.syntax unified
  98              		.thumb
ARM GAS  C:\Users\86183\AppData\Local\Temp\ccaDF7Ye.s 			page 5


  99              		.thumb_func
 100              		.fpu softvfp
 102              	clearDistance:
 103              	.LFB66:
 121:Core/Src/main.c **** 
 122:Core/Src/main.c **** void clearDistance()
 123:Core/Src/main.c **** {
 104              		.loc 1 123 1 is_stmt 1 view -0
 105              		.cfi_startproc
 106              		@ args = 0, pretend = 0, frame = 0
 107              		@ frame_needed = 0, uses_anonymous_args = 0
 108              		@ link register save eliminated.
 124:Core/Src/main.c ****   distance = 0;
 109              		.loc 1 124 3 view .LVU25
 110              		.loc 1 124 12 is_stmt 0 view .LVU26
 111 0000 014B     		ldr	r3, .L13
 112 0002 0022     		movs	r2, #0
 113 0004 1A60     		str	r2, [r3]	@ float
 125:Core/Src/main.c **** }
 114              		.loc 1 125 1 view .LVU27
 115 0006 7047     		bx	lr
 116              	.L14:
 117              		.align	2
 118              	.L13:
 119 0008 00000000 		.word	.LANCHOR0
 120              		.cfi_endproc
 121              	.LFE66:
 123              		.section	.text.getDistance,"ax",%progbits
 124              		.align	1
 125              		.global	getDistance
 126              		.syntax unified
 127              		.thumb
 128              		.thumb_func
 129              		.fpu softvfp
 131              	getDistance:
 132              	.LFB67:
 126:Core/Src/main.c **** 
 127:Core/Src/main.c **** float getDistance()
 128:Core/Src/main.c **** {
 133              		.loc 1 128 1 is_stmt 1 view -0
 134              		.cfi_startproc
 135              		@ args = 0, pretend = 0, frame = 0
 136              		@ frame_needed = 0, uses_anonymous_args = 0
 137              		@ link register save eliminated.
 129:Core/Src/main.c ****   return distance;
 138              		.loc 1 129 3 view .LVU29
 130:Core/Src/main.c **** }
 139              		.loc 1 130 1 is_stmt 0 view .LVU30
 140 0000 014B     		ldr	r3, .L16
 141 0002 1868     		ldr	r0, [r3]	@ float
 142 0004 7047     		bx	lr
 143              	.L17:
 144 0006 00BF     		.align	2
 145              	.L16:
 146 0008 00000000 		.word	.LANCHOR0
 147              		.cfi_endproc
 148              	.LFE67:
ARM GAS  C:\Users\86183\AppData\Local\Temp\ccaDF7Ye.s 			page 6


 150              		.global	__aeabi_fsub
 151              		.global	__aeabi_fmul
 152              		.global	__aeabi_fadd
 153              		.global	__aeabi_fcmpgt
 154              		.global	__aeabi_fdiv
 155              		.global	__aeabi_fcmplt
 156              		.section	.text.PID,"ax",%progbits
 157              		.align	1
 158              		.global	PID
 159              		.syntax unified
 160              		.thumb
 161              		.thumb_func
 162              		.fpu softvfp
 164              	PID:
 165              	.LVL10:
 166              	.LFB68:
 131:Core/Src/main.c **** 
 132:Core/Src/main.c **** float PID(float in, float target, int i)
 133:Core/Src/main.c **** {
 167              		.loc 1 133 1 is_stmt 1 view -0
 168              		.cfi_startproc
 169              		@ args = 0, pretend = 0, frame = 0
 170              		@ frame_needed = 0, uses_anonymous_args = 0
 171              		.loc 1 133 1 is_stmt 0 view .LVU32
 172 0000 F8B5     		push	{r3, r4, r5, r6, r7, lr}
 173              	.LCFI1:
 174              		.cfi_def_cfa_offset 24
 175              		.cfi_offset 3, -24
 176              		.cfi_offset 4, -20
 177              		.cfi_offset 5, -16
 178              		.cfi_offset 6, -12
 179              		.cfi_offset 7, -8
 180              		.cfi_offset 14, -4
 181 0002 0B46     		mov	r3, r1
 182 0004 1446     		mov	r4, r2
 134:Core/Src/main.c ****   float err = target - in;
 183              		.loc 1 134 3 is_stmt 1 view .LVU33
 184              		.loc 1 134 9 is_stmt 0 view .LVU34
 185 0006 0146     		mov	r1, r0
 186              	.LVL11:
 187              		.loc 1 134 9 view .LVU35
 188 0008 1846     		mov	r0, r3
 189              	.LVL12:
 190              		.loc 1 134 9 view .LVU36
 191 000a FFF7FEFF 		bl	__aeabi_fsub
 192              	.LVL13:
 193              		.loc 1 134 9 view .LVU37
 194 000e 0546     		mov	r5, r0
 195              	.LVL14:
 135:Core/Src/main.c ****   INTEGRAL[i] += err * 20;
 196              		.loc 1 135 3 is_stmt 1 view .LVU38
 197              		.loc 1 135 22 is_stmt 0 view .LVU39
 198 0010 2649     		ldr	r1, .L27
 199 0012 FFF7FEFF 		bl	__aeabi_fmul
 200              	.LVL15:
 201              		.loc 1 135 15 view .LVU40
 202 0016 264E     		ldr	r6, .L27+4
ARM GAS  C:\Users\86183\AppData\Local\Temp\ccaDF7Ye.s 			page 7


 203 0018 56F82410 		ldr	r1, [r6, r4, lsl #2]	@ float
 204 001c FFF7FEFF 		bl	__aeabi_fadd
 205              	.LVL16:
 206 0020 46F82400 		str	r0, [r6, r4, lsl #2]	@ float
 136:Core/Src/main.c ****   if (INTEGRAL[i] > 8000)
 207              		.loc 1 136 3 is_stmt 1 view .LVU41
 208              		.loc 1 136 6 is_stmt 0 view .LVU42
 209 0024 2349     		ldr	r1, .L27+8
 210 0026 FFF7FEFF 		bl	__aeabi_fcmpgt
 211              	.LVL17:
 212 002a 10B1     		cbz	r0, .L19
 137:Core/Src/main.c ****     INTEGRAL[i] = 8000;
 213              		.loc 1 137 5 is_stmt 1 view .LVU43
 214              		.loc 1 137 17 is_stmt 0 view .LVU44
 215 002c 214A     		ldr	r2, .L27+8
 216 002e 46F82420 		str	r2, [r6, r4, lsl #2]	@ float
 217              	.L19:
 138:Core/Src/main.c ****   float derr = (err - pre_err[i]) / 20;
 218              		.loc 1 138 3 is_stmt 1 view .LVU45
 219              		.loc 1 138 30 is_stmt 0 view .LVU46
 220 0032 214F     		ldr	r7, .L27+12
 221              		.loc 1 138 21 view .LVU47
 222 0034 57F82410 		ldr	r1, [r7, r4, lsl #2]	@ float
 223 0038 2846     		mov	r0, r5
 224 003a FFF7FEFF 		bl	__aeabi_fsub
 225              	.LVL18:
 226              		.loc 1 138 9 view .LVU48
 227 003e 1B49     		ldr	r1, .L27
 228 0040 FFF7FEFF 		bl	__aeabi_fdiv
 229              	.LVL19:
 230 0044 0646     		mov	r6, r0
 231              	.LVL20:
 139:Core/Src/main.c ****   pre_err[i] = err;
 232              		.loc 1 139 3 is_stmt 1 view .LVU49
 233              		.loc 1 139 14 is_stmt 0 view .LVU50
 234 0046 47F82450 		str	r5, [r7, r4, lsl #2]	@ float
 140:Core/Src/main.c ****   pid[i] = (Kp[i] * err) + (Ki[i] * INTEGRAL[i]) + (Kd[i] * derr);
 235              		.loc 1 140 3 is_stmt 1 view .LVU51
 236              		.loc 1 140 19 is_stmt 0 view .LVU52
 237 004a 2946     		mov	r1, r5
 238 004c 1B4B     		ldr	r3, .L27+16
 239 004e 53F82400 		ldr	r0, [r3, r4, lsl #2]	@ float
 240              	.LVL21:
 241              		.loc 1 140 19 view .LVU53
 242 0052 FFF7FEFF 		bl	__aeabi_fmul
 243              	.LVL22:
 244 0056 0546     		mov	r5, r0
 245              	.LVL23:
 246              		.loc 1 140 35 view .LVU54
 247 0058 154B     		ldr	r3, .L27+4
 248 005a 53F82410 		ldr	r1, [r3, r4, lsl #2]	@ float
 249 005e 184B     		ldr	r3, .L27+20
 250 0060 53F82400 		ldr	r0, [r3, r4, lsl #2]	@ float
 251 0064 FFF7FEFF 		bl	__aeabi_fmul
 252              	.LVL24:
 253 0068 0146     		mov	r1, r0
 254              		.loc 1 140 26 view .LVU55
ARM GAS  C:\Users\86183\AppData\Local\Temp\ccaDF7Ye.s 			page 8


 255 006a 2846     		mov	r0, r5
 256 006c FFF7FEFF 		bl	__aeabi_fadd
 257              	.LVL25:
 258 0070 0546     		mov	r5, r0
 259              		.loc 1 140 59 view .LVU56
 260 0072 3146     		mov	r1, r6
 261 0074 134B     		ldr	r3, .L27+24
 262 0076 53F82400 		ldr	r0, [r3, r4, lsl #2]	@ float
 263 007a FFF7FEFF 		bl	__aeabi_fmul
 264              	.LVL26:
 265 007e 0146     		mov	r1, r0
 266              		.loc 1 140 50 view .LVU57
 267 0080 2846     		mov	r0, r5
 268 0082 FFF7FEFF 		bl	__aeabi_fadd
 269              	.LVL27:
 270 0086 0546     		mov	r5, r0
 271              		.loc 1 140 10 view .LVU58
 272 0088 0F4B     		ldr	r3, .L27+28
 273 008a 43F82400 		str	r0, [r3, r4, lsl #2]	@ float
 141:Core/Src/main.c ****   float output;
 274              		.loc 1 141 3 is_stmt 1 view .LVU59
 142:Core/Src/main.c ****   if (pid[i] < PID_MIN)
 275              		.loc 1 142 3 view .LVU60
 276              		.loc 1 142 6 is_stmt 0 view .LVU61
 277 008e 0021     		movs	r1, #0
 278 0090 FFF7FEFF 		bl	__aeabi_fcmplt
 279              	.LVL28:
 280 0094 30B9     		cbnz	r0, .L23
 143:Core/Src/main.c ****     output = PID_MIN;
 144:Core/Src/main.c ****   else if (pid[i] > PID_MAX)
 281              		.loc 1 144 8 is_stmt 1 view .LVU62
 282              		.loc 1 144 11 is_stmt 0 view .LVU63
 283 0096 0D49     		ldr	r1, .L27+32
 284 0098 2846     		mov	r0, r5
 285 009a FFF7FEFF 		bl	__aeabi_fcmpgt
 286              	.LVL29:
 287 009e 10B1     		cbz	r0, .L18
 145:Core/Src/main.c ****     output = PID_MAX;
 288              		.loc 1 145 12 view .LVU64
 289 00a0 0A4D     		ldr	r5, .L27+32
 290 00a2 00E0     		b	.L18
 291              	.L23:
 143:Core/Src/main.c ****     output = PID_MIN;
 292              		.loc 1 143 12 view .LVU65
 293 00a4 0025     		movs	r5, #0
 294              	.LVL30:
 146:Core/Src/main.c ****   else
 147:Core/Src/main.c ****     output = pid[i];
 148:Core/Src/main.c ****   return output;
 295              		.loc 1 148 3 is_stmt 1 view .LVU66
 296              	.L18:
 149:Core/Src/main.c **** }
 297              		.loc 1 149 1 is_stmt 0 view .LVU67
 298 00a6 2846     		mov	r0, r5
 299 00a8 F8BD     		pop	{r3, r4, r5, r6, r7, pc}
 300              	.LVL31:
 301              	.L28:
ARM GAS  C:\Users\86183\AppData\Local\Temp\ccaDF7Ye.s 			page 9


 302              		.loc 1 149 1 view .LVU68
 303 00aa 00BF     		.align	2
 304              	.L27:
 305 00ac 0000A041 		.word	1101004800
 306 00b0 00000000 		.word	.LANCHOR1
 307 00b4 0000FA45 		.word	1174011904
 308 00b8 00000000 		.word	.LANCHOR2
 309 00bc 00000000 		.word	.LANCHOR3
 310 00c0 00000000 		.word	.LANCHOR4
 311 00c4 00000000 		.word	.LANCHOR5
 312 00c8 00000000 		.word	.LANCHOR6
 313 00cc 00006144 		.word	1147207680
 314              		.cfi_endproc
 315              	.LFE68:
 317              		.section	.text.Calibrate_Angle,"ax",%progbits
 318              		.align	1
 319              		.global	Calibrate_Angle
 320              		.syntax unified
 321              		.thumb
 322              		.thumb_func
 323              		.fpu softvfp
 325              	Calibrate_Angle:
 326              	.LFB69:
 150:Core/Src/main.c **** 
 151:Core/Src/main.c **** void Calibrate_Angle()
 152:Core/Src/main.c **** {
 327              		.loc 1 152 1 is_stmt 1 view -0
 328              		.cfi_startproc
 329              		@ args = 0, pretend = 0, frame = 0
 330              		@ frame_needed = 0, uses_anonymous_args = 0
 331 0000 38B5     		push	{r3, r4, r5, lr}
 332              	.LCFI2:
 333              		.cfi_def_cfa_offset 16
 334              		.cfi_offset 3, -16
 335              		.cfi_offset 4, -12
 336              		.cfi_offset 5, -8
 337              		.cfi_offset 14, -4
 153:Core/Src/main.c ****   float temp = GetYaw();
 338              		.loc 1 153 3 view .LVU70
 339              		.loc 1 153 16 is_stmt 0 view .LVU71
 340 0002 FFF7FEFF 		bl	GetYaw
 341              	.LVL32:
 342 0006 0446     		mov	r4, r0
 343              	.LVL33:
 154:Core/Src/main.c ****   angle0 = temp / 20;
 344              		.loc 1 154 3 is_stmt 1 view .LVU72
 345              		.loc 1 154 17 is_stmt 0 view .LVU73
 346 0008 2F49     		ldr	r1, .L48
 347 000a FFF7FEFF 		bl	__aeabi_fdiv
 348              	.LVL34:
 349              		.loc 1 154 10 view .LVU74
 350 000e 2F4B     		ldr	r3, .L48+4
 351 0010 1860     		str	r0, [r3]	@ float
 155:Core/Src/main.c ****   if (temp < 60)
 352              		.loc 1 155 3 is_stmt 1 view .LVU75
 353              		.loc 1 155 6 is_stmt 0 view .LVU76
 354 0012 2F49     		ldr	r1, .L48+8
ARM GAS  C:\Users\86183\AppData\Local\Temp\ccaDF7Ye.s 			page 10


 355 0014 2046     		mov	r0, r4
 356 0016 FFF7FEFF 		bl	__aeabi_fcmplt
 357              	.LVL35:
 358 001a 0028     		cmp	r0, #0
 359 001c 30D1     		bne	.L42
 156:Core/Src/main.c ****     for (int i = 1; i < 20; i++)
 157:Core/Src/main.c ****     {
 158:Core/Src/main.c ****       if ((temp = GetYaw()) > 300)
 159:Core/Src/main.c ****         temp -= 360;
 160:Core/Src/main.c ****       angle0 += temp / 20;
 161:Core/Src/main.c ****     }
 162:Core/Src/main.c ****   else if (temp > 300)
 360              		.loc 1 162 8 is_stmt 1 view .LVU77
 361              		.loc 1 162 11 is_stmt 0 view .LVU78
 362 001e 2D49     		ldr	r1, .L48+12
 363 0020 2046     		mov	r0, r4
 364 0022 FFF7FEFF 		bl	__aeabi_fcmpgt
 365              	.LVL36:
 366 0026 0028     		cmp	r0, #0
 367 0028 47D1     		bne	.L43
 368              	.LBB4:
 163:Core/Src/main.c ****     for (int i = 1; i < 20; i++)
 164:Core/Src/main.c ****     {
 165:Core/Src/main.c ****       if ((temp = GetYaw()) < 60)
 166:Core/Src/main.c ****         temp += 360;
 167:Core/Src/main.c ****       angle0 += temp / 20;
 168:Core/Src/main.c ****     }
 169:Core/Src/main.c ****   else
 170:Core/Src/main.c ****     for (int i = 1; i < 20; i++)
 369              		.loc 1 170 14 view .LVU79
 370 002a 0124     		movs	r4, #1
 371              	.LVL37:
 372              	.L37:
 373              		.loc 1 170 21 is_stmt 1 discriminator 1 view .LVU80
 374              		.loc 1 170 5 is_stmt 0 discriminator 1 view .LVU81
 375 002c 132C     		cmp	r4, #19
 376 002e 46DC     		bgt	.L35
 171:Core/Src/main.c ****       angle0 += GetYaw() / 20;
 377              		.loc 1 171 7 is_stmt 1 discriminator 3 view .LVU82
 378              		.loc 1 171 17 is_stmt 0 discriminator 3 view .LVU83
 379 0030 FFF7FEFF 		bl	GetYaw
 380              	.LVL38:
 381              		.loc 1 171 26 discriminator 3 view .LVU84
 382 0034 2449     		ldr	r1, .L48
 383 0036 FFF7FEFF 		bl	__aeabi_fdiv
 384              	.LVL39:
 385 003a 0146     		mov	r1, r0
 386              		.loc 1 171 14 discriminator 3 view .LVU85
 387 003c 234D     		ldr	r5, .L48+4
 388 003e 2868     		ldr	r0, [r5]	@ float
 389 0040 FFF7FEFF 		bl	__aeabi_fadd
 390              	.LVL40:
 391 0044 2860     		str	r0, [r5]	@ float
 170:Core/Src/main.c ****       angle0 += GetYaw() / 20;
 392              		.loc 1 170 29 is_stmt 1 discriminator 3 view .LVU86
 170:Core/Src/main.c ****       angle0 += GetYaw() / 20;
 393              		.loc 1 170 30 is_stmt 0 discriminator 3 view .LVU87
ARM GAS  C:\Users\86183\AppData\Local\Temp\ccaDF7Ye.s 			page 11


 394 0046 0134     		adds	r4, r4, #1
 395              	.LVL41:
 170:Core/Src/main.c ****       angle0 += GetYaw() / 20;
 396              		.loc 1 170 30 discriminator 3 view .LVU88
 397 0048 F0E7     		b	.L37
 398              	.LVL42:
 399              	.L32:
 170:Core/Src/main.c ****       angle0 += GetYaw() / 20;
 400              		.loc 1 170 30 discriminator 3 view .LVU89
 401              	.LBE4:
 402              	.LBB5:
 160:Core/Src/main.c ****     }
 403              		.loc 1 160 7 is_stmt 1 discriminator 2 view .LVU90
 160:Core/Src/main.c ****     }
 404              		.loc 1 160 22 is_stmt 0 discriminator 2 view .LVU91
 405 004a 1F49     		ldr	r1, .L48
 406 004c 2046     		mov	r0, r4
 407 004e FFF7FEFF 		bl	__aeabi_fdiv
 408              	.LVL43:
 409 0052 0146     		mov	r1, r0
 160:Core/Src/main.c ****     }
 410              		.loc 1 160 14 discriminator 2 view .LVU92
 411 0054 1D4C     		ldr	r4, .L48+4
 412              	.LVL44:
 160:Core/Src/main.c ****     }
 413              		.loc 1 160 14 discriminator 2 view .LVU93
 414 0056 2068     		ldr	r0, [r4]	@ float
 415 0058 FFF7FEFF 		bl	__aeabi_fadd
 416              	.LVL45:
 417 005c 2060     		str	r0, [r4]	@ float
 156:Core/Src/main.c ****     {
 418              		.loc 1 156 29 is_stmt 1 discriminator 2 view .LVU94
 156:Core/Src/main.c ****     {
 419              		.loc 1 156 30 is_stmt 0 discriminator 2 view .LVU95
 420 005e 0135     		adds	r5, r5, #1
 421              	.LVL46:
 422              	.L30:
 156:Core/Src/main.c ****     {
 423              		.loc 1 156 21 is_stmt 1 discriminator 1 view .LVU96
 156:Core/Src/main.c ****     {
 424              		.loc 1 156 5 is_stmt 0 discriminator 1 view .LVU97
 425 0060 132D     		cmp	r5, #19
 426 0062 2CDC     		bgt	.L35
 158:Core/Src/main.c ****         temp -= 360;
 427              		.loc 1 158 7 is_stmt 1 view .LVU98
 158:Core/Src/main.c ****         temp -= 360;
 428              		.loc 1 158 19 is_stmt 0 view .LVU99
 429 0064 FFF7FEFF 		bl	GetYaw
 430              	.LVL47:
 431 0068 0446     		mov	r4, r0
 432              	.LVL48:
 158:Core/Src/main.c ****         temp -= 360;
 433              		.loc 1 158 10 view .LVU100
 434 006a 1A49     		ldr	r1, .L48+12
 435 006c FFF7FEFF 		bl	__aeabi_fcmpgt
 436              	.LVL49:
 158:Core/Src/main.c ****         temp -= 360;
ARM GAS  C:\Users\86183\AppData\Local\Temp\ccaDF7Ye.s 			page 12


 437              		.loc 1 158 10 view .LVU101
 438 0070 0028     		cmp	r0, #0
 439 0072 EAD0     		beq	.L32
 159:Core/Src/main.c ****       angle0 += temp / 20;
 440              		.loc 1 159 9 is_stmt 1 view .LVU102
 159:Core/Src/main.c ****       angle0 += temp / 20;
 441              		.loc 1 159 14 is_stmt 0 view .LVU103
 442 0074 1849     		ldr	r1, .L48+16
 443 0076 2046     		mov	r0, r4
 444 0078 FFF7FEFF 		bl	__aeabi_fsub
 445              	.LVL50:
 446 007c 0446     		mov	r4, r0
 447              	.LVL51:
 159:Core/Src/main.c ****       angle0 += temp / 20;
 448              		.loc 1 159 14 view .LVU104
 449 007e E4E7     		b	.L32
 450              	.LVL52:
 451              	.L42:
 156:Core/Src/main.c ****     {
 452              		.loc 1 156 14 view .LVU105
 453 0080 0125     		movs	r5, #1
 454 0082 EDE7     		b	.L30
 455              	.LVL53:
 456              	.L38:
 156:Core/Src/main.c ****     {
 457              		.loc 1 156 14 view .LVU106
 458              	.LBE5:
 459              	.LBB6:
 167:Core/Src/main.c ****     }
 460              		.loc 1 167 7 is_stmt 1 discriminator 2 view .LVU107
 167:Core/Src/main.c ****     }
 461              		.loc 1 167 22 is_stmt 0 discriminator 2 view .LVU108
 462 0084 1049     		ldr	r1, .L48
 463 0086 2046     		mov	r0, r4
 464 0088 FFF7FEFF 		bl	__aeabi_fdiv
 465              	.LVL54:
 466 008c 0146     		mov	r1, r0
 167:Core/Src/main.c ****     }
 467              		.loc 1 167 14 discriminator 2 view .LVU109
 468 008e 0F4C     		ldr	r4, .L48+4
 469              	.LVL55:
 167:Core/Src/main.c ****     }
 470              		.loc 1 167 14 discriminator 2 view .LVU110
 471 0090 2068     		ldr	r0, [r4]	@ float
 472 0092 FFF7FEFF 		bl	__aeabi_fadd
 473              	.LVL56:
 474 0096 2060     		str	r0, [r4]	@ float
 163:Core/Src/main.c ****     {
 475              		.loc 1 163 29 is_stmt 1 discriminator 2 view .LVU111
 163:Core/Src/main.c ****     {
 476              		.loc 1 163 30 is_stmt 0 discriminator 2 view .LVU112
 477 0098 0135     		adds	r5, r5, #1
 478              	.LVL57:
 479              	.L36:
 163:Core/Src/main.c ****     {
 480              		.loc 1 163 21 is_stmt 1 discriminator 1 view .LVU113
 163:Core/Src/main.c ****     {
ARM GAS  C:\Users\86183\AppData\Local\Temp\ccaDF7Ye.s 			page 13


 481              		.loc 1 163 5 is_stmt 0 discriminator 1 view .LVU114
 482 009a 132D     		cmp	r5, #19
 483 009c 0FDC     		bgt	.L35
 165:Core/Src/main.c ****         temp += 360;
 484              		.loc 1 165 7 is_stmt 1 view .LVU115
 165:Core/Src/main.c ****         temp += 360;
 485              		.loc 1 165 19 is_stmt 0 view .LVU116
 486 009e FFF7FEFF 		bl	GetYaw
 487              	.LVL58:
 488 00a2 0446     		mov	r4, r0
 489              	.LVL59:
 165:Core/Src/main.c ****         temp += 360;
 490              		.loc 1 165 10 view .LVU117
 491 00a4 0A49     		ldr	r1, .L48+8
 492 00a6 FFF7FEFF 		bl	__aeabi_fcmplt
 493              	.LVL60:
 165:Core/Src/main.c ****         temp += 360;
 494              		.loc 1 165 10 view .LVU118
 495 00aa 0028     		cmp	r0, #0
 496 00ac EAD0     		beq	.L38
 166:Core/Src/main.c ****       angle0 += temp / 20;
 497              		.loc 1 166 9 is_stmt 1 view .LVU119
 166:Core/Src/main.c ****       angle0 += temp / 20;
 498              		.loc 1 166 14 is_stmt 0 view .LVU120
 499 00ae 0A49     		ldr	r1, .L48+16
 500 00b0 2046     		mov	r0, r4
 501 00b2 FFF7FEFF 		bl	__aeabi_fadd
 502              	.LVL61:
 503 00b6 0446     		mov	r4, r0
 504              	.LVL62:
 166:Core/Src/main.c ****       angle0 += temp / 20;
 505              		.loc 1 166 14 view .LVU121
 506 00b8 E4E7     		b	.L38
 507              	.LVL63:
 508              	.L43:
 163:Core/Src/main.c ****     {
 509              		.loc 1 163 14 view .LVU122
 510 00ba 0125     		movs	r5, #1
 511 00bc EDE7     		b	.L36
 512              	.LVL64:
 513              	.L35:
 163:Core/Src/main.c ****     {
 514              		.loc 1 163 14 view .LVU123
 515              	.LBE6:
 172:Core/Src/main.c ****   absoluteAngle = angle0;
 516              		.loc 1 172 3 is_stmt 1 view .LVU124
 517              		.loc 1 172 17 is_stmt 0 view .LVU125
 518 00be 034B     		ldr	r3, .L48+4
 519 00c0 1A68     		ldr	r2, [r3]	@ float
 520 00c2 064B     		ldr	r3, .L48+20
 521 00c4 1A60     		str	r2, [r3]	@ float
 173:Core/Src/main.c **** }
 522              		.loc 1 173 1 view .LVU126
 523 00c6 38BD     		pop	{r3, r4, r5, pc}
 524              	.L49:
 525              		.align	2
 526              	.L48:
ARM GAS  C:\Users\86183\AppData\Local\Temp\ccaDF7Ye.s 			page 14


 527 00c8 0000A041 		.word	1101004800
 528 00cc 00000000 		.word	.LANCHOR7
 529 00d0 00007042 		.word	1114636288
 530 00d4 00009643 		.word	1133903872
 531 00d8 0000B443 		.word	1135869952
 532 00dc 00000000 		.word	.LANCHOR8
 533              		.cfi_endproc
 534              	.LFE69:
 536              		.section	.text.getAngle,"ax",%progbits
 537              		.align	1
 538              		.global	getAngle
 539              		.syntax unified
 540              		.thumb
 541              		.thumb_func
 542              		.fpu softvfp
 544              	getAngle:
 545              	.LFB70:
 174:Core/Src/main.c **** 
 175:Core/Src/main.c **** float getAngle()
 176:Core/Src/main.c **** {
 546              		.loc 1 176 1 is_stmt 1 view -0
 547              		.cfi_startproc
 548              		@ args = 0, pretend = 0, frame = 0
 549              		@ frame_needed = 0, uses_anonymous_args = 0
 550 0000 10B5     		push	{r4, lr}
 551              	.LCFI3:
 552              		.cfi_def_cfa_offset 8
 553              		.cfi_offset 4, -8
 554              		.cfi_offset 14, -4
 177:Core/Src/main.c ****   float temp = GetYaw() - angle0;
 555              		.loc 1 177 3 view .LVU128
 556              		.loc 1 177 16 is_stmt 0 view .LVU129
 557 0002 FFF7FEFF 		bl	GetYaw
 558              	.LVL65:
 559              		.loc 1 177 9 view .LVU130
 560 0006 0E4B     		ldr	r3, .L59
 561 0008 1968     		ldr	r1, [r3]	@ float
 562 000a FFF7FEFF 		bl	__aeabi_fsub
 563              	.LVL66:
 564 000e 0446     		mov	r4, r0
 565              	.LVL67:
 178:Core/Src/main.c ****   return temp > 180 ? temp - 360 : temp < -180 ? temp + 360
 566              		.loc 1 178 3 is_stmt 1 view .LVU131
 567              		.loc 1 178 34 is_stmt 0 view .LVU132
 568 0010 0C49     		ldr	r1, .L59+4
 569 0012 FFF7FEFF 		bl	__aeabi_fcmpgt
 570              	.LVL68:
 571              		.loc 1 178 34 view .LVU133
 572 0016 30B1     		cbz	r0, .L57
 573              		.loc 1 178 34 discriminator 1 view .LVU134
 574 0018 0B49     		ldr	r1, .L59+8
 575 001a 2046     		mov	r0, r4
 576 001c FFF7FEFF 		bl	__aeabi_fsub
 577              	.LVL69:
 578 0020 0446     		mov	r4, r0
 579              	.LVL70:
 580              	.L50:
ARM GAS  C:\Users\86183\AppData\Local\Temp\ccaDF7Ye.s 			page 15


 179:Core/Src/main.c ****                                                : temp;
 180:Core/Src/main.c **** }
 581              		.loc 1 180 1 view .LVU135
 582 0022 2046     		mov	r0, r4
 583 0024 10BD     		pop	{r4, pc}
 584              	.LVL71:
 585              	.L57:
 179:Core/Src/main.c ****                                                : temp;
 586              		.loc 1 179 48 view .LVU136
 587 0026 0949     		ldr	r1, .L59+12
 588 0028 2046     		mov	r0, r4
 589 002a FFF7FEFF 		bl	__aeabi_fcmplt
 590              	.LVL72:
 591 002e 0028     		cmp	r0, #0
 592 0030 F7D0     		beq	.L50
 179:Core/Src/main.c ****                                                : temp;
 593              		.loc 1 179 48 discriminator 1 view .LVU137
 594 0032 0549     		ldr	r1, .L59+8
 595 0034 2046     		mov	r0, r4
 596 0036 FFF7FEFF 		bl	__aeabi_fadd
 597              	.LVL73:
 598 003a 0446     		mov	r4, r0
 599              	.LVL74:
 178:Core/Src/main.c ****   return temp > 180 ? temp - 360 : temp < -180 ? temp + 360
 600              		.loc 1 178 34 discriminator 1 view .LVU138
 601 003c F1E7     		b	.L50
 602              	.L60:
 603 003e 00BF     		.align	2
 604              	.L59:
 605 0040 00000000 		.word	.LANCHOR7
 606 0044 00003443 		.word	1127481344
 607 0048 0000B443 		.word	1135869952
 608 004c 000034C3 		.word	-1020002304
 609              		.cfi_endproc
 610              	.LFE70:
 612              		.section	.text.Set_Left_Direction,"ax",%progbits
 613              		.align	1
 614              		.global	Set_Left_Direction
 615              		.syntax unified
 616              		.thumb
 617              		.thumb_func
 618              		.fpu softvfp
 620              	Set_Left_Direction:
 621              	.LVL75:
 622              	.LFB71:
 181:Core/Src/main.c **** 
 182:Core/Src/main.c **** void Set_Left_Direction(int direction)
 183:Core/Src/main.c **** {
 623              		.loc 1 183 1 is_stmt 1 view -0
 624              		.cfi_startproc
 625              		@ args = 0, pretend = 0, frame = 0
 626              		@ frame_needed = 0, uses_anonymous_args = 0
 627              		.loc 1 183 1 is_stmt 0 view .LVU140
 628 0000 38B5     		push	{r3, r4, r5, lr}
 629              	.LCFI4:
 630              		.cfi_def_cfa_offset 16
 631              		.cfi_offset 3, -16
ARM GAS  C:\Users\86183\AppData\Local\Temp\ccaDF7Ye.s 			page 16


 632              		.cfi_offset 4, -12
 633              		.cfi_offset 5, -8
 634              		.cfi_offset 14, -4
 635 0002 0446     		mov	r4, r0
 184:Core/Src/main.c ****   HAL_GPIO_WritePin(IN1A_GPIO_Port, IN1A_Pin, RESET);
 636              		.loc 1 184 3 is_stmt 1 view .LVU141
 637 0004 274D     		ldr	r5, .L68
 638 0006 0022     		movs	r2, #0
 639 0008 4FF48051 		mov	r1, #4096
 640 000c 2846     		mov	r0, r5
 641              	.LVL76:
 642              		.loc 1 184 3 is_stmt 0 view .LVU142
 643 000e FFF7FEFF 		bl	HAL_GPIO_WritePin
 644              	.LVL77:
 185:Core/Src/main.c ****   HAL_GPIO_WritePin(IN1B_GPIO_Port, IN1B_Pin, RESET);
 645              		.loc 1 185 3 is_stmt 1 view .LVU143
 646 0012 0022     		movs	r2, #0
 647 0014 4FF40061 		mov	r1, #2048
 648 0018 2846     		mov	r0, r5
 649 001a FFF7FEFF 		bl	HAL_GPIO_WritePin
 650              	.LVL78:
 186:Core/Src/main.c ****   HAL_GPIO_WritePin(IN2A_GPIO_Port, IN2A_Pin, RESET);
 651              		.loc 1 186 3 view .LVU144
 652 001e A5F58065 		sub	r5, r5, #1024
 653 0022 0022     		movs	r2, #0
 654 0024 0121     		movs	r1, #1
 655 0026 2846     		mov	r0, r5
 656 0028 FFF7FEFF 		bl	HAL_GPIO_WritePin
 657              	.LVL79:
 187:Core/Src/main.c ****   HAL_GPIO_WritePin(IN2B_GPIO_Port, IN2B_Pin, RESET);
 658              		.loc 1 187 3 view .LVU145
 659 002c 0022     		movs	r2, #0
 660 002e 0221     		movs	r1, #2
 661 0030 2846     		mov	r0, r5
 662 0032 FFF7FEFF 		bl	HAL_GPIO_WritePin
 663              	.LVL80:
 188:Core/Src/main.c ****   if (direction == 1)
 664              		.loc 1 188 3 view .LVU146
 665              		.loc 1 188 6 is_stmt 0 view .LVU147
 666 0036 012C     		cmp	r4, #1
 667 0038 1CD0     		beq	.L66
 189:Core/Src/main.c ****   {
 190:Core/Src/main.c ****     HAL_GPIO_WritePin(IN1A_GPIO_Port, IN1A_Pin, SET);
 191:Core/Src/main.c ****     HAL_GPIO_WritePin(IN2B_GPIO_Port, IN2B_Pin, SET);
 192:Core/Src/main.c ****   }
 193:Core/Src/main.c ****   else if (direction == -1)
 668              		.loc 1 193 8 is_stmt 1 view .LVU148
 669              		.loc 1 193 11 is_stmt 0 view .LVU149
 670 003a B4F1FF3F 		cmp	r4, #-1
 671 003e 25D0     		beq	.L67
 194:Core/Src/main.c ****   {
 195:Core/Src/main.c ****     HAL_GPIO_WritePin(IN1B_GPIO_Port, IN1B_Pin, SET);
 196:Core/Src/main.c ****     HAL_GPIO_WritePin(IN2A_GPIO_Port, IN2A_Pin, SET);
 197:Core/Src/main.c ****   }
 198:Core/Src/main.c ****   else
 199:Core/Src/main.c ****   {
 200:Core/Src/main.c ****     HAL_GPIO_WritePin(IN1A_GPIO_Port, IN1A_Pin, SET);
ARM GAS  C:\Users\86183\AppData\Local\Temp\ccaDF7Ye.s 			page 17


 672              		.loc 1 200 5 is_stmt 1 view .LVU150
 673 0040 184C     		ldr	r4, .L68
 674              	.LVL81:
 675              		.loc 1 200 5 is_stmt 0 view .LVU151
 676 0042 0122     		movs	r2, #1
 677 0044 4FF48051 		mov	r1, #4096
 678 0048 2046     		mov	r0, r4
 679 004a FFF7FEFF 		bl	HAL_GPIO_WritePin
 680              	.LVL82:
 201:Core/Src/main.c ****     HAL_GPIO_WritePin(IN1B_GPIO_Port, IN1B_Pin, SET);
 681              		.loc 1 201 5 is_stmt 1 view .LVU152
 682 004e 0122     		movs	r2, #1
 683 0050 4FF40061 		mov	r1, #2048
 684 0054 2046     		mov	r0, r4
 685 0056 FFF7FEFF 		bl	HAL_GPIO_WritePin
 686              	.LVL83:
 202:Core/Src/main.c ****     HAL_GPIO_WritePin(IN2A_GPIO_Port, IN2A_Pin, SET);
 687              		.loc 1 202 5 view .LVU153
 688 005a A4F58064 		sub	r4, r4, #1024
 689 005e 0122     		movs	r2, #1
 690 0060 1146     		mov	r1, r2
 691 0062 2046     		mov	r0, r4
 692 0064 FFF7FEFF 		bl	HAL_GPIO_WritePin
 693              	.LVL84:
 203:Core/Src/main.c ****     HAL_GPIO_WritePin(IN2B_GPIO_Port, IN2B_Pin, SET);
 694              		.loc 1 203 5 view .LVU154
 695 0068 0122     		movs	r2, #1
 696 006a 0221     		movs	r1, #2
 697 006c 2046     		mov	r0, r4
 698 006e FFF7FEFF 		bl	HAL_GPIO_WritePin
 699              	.LVL85:
 700              	.L61:
 204:Core/Src/main.c ****   }
 205:Core/Src/main.c **** }
 701              		.loc 1 205 1 is_stmt 0 view .LVU155
 702 0072 38BD     		pop	{r3, r4, r5, pc}
 703              	.LVL86:
 704              	.L66:
 190:Core/Src/main.c ****     HAL_GPIO_WritePin(IN2B_GPIO_Port, IN2B_Pin, SET);
 705              		.loc 1 190 5 is_stmt 1 view .LVU156
 706 0074 0122     		movs	r2, #1
 707 0076 4FF48051 		mov	r1, #4096
 708 007a 0A48     		ldr	r0, .L68
 709 007c FFF7FEFF 		bl	HAL_GPIO_WritePin
 710              	.LVL87:
 191:Core/Src/main.c ****   }
 711              		.loc 1 191 5 view .LVU157
 712 0080 0122     		movs	r2, #1
 713 0082 0221     		movs	r1, #2
 714 0084 2846     		mov	r0, r5
 715 0086 FFF7FEFF 		bl	HAL_GPIO_WritePin
 716              	.LVL88:
 717 008a F2E7     		b	.L61
 718              	.L67:
 195:Core/Src/main.c ****     HAL_GPIO_WritePin(IN2A_GPIO_Port, IN2A_Pin, SET);
 719              		.loc 1 195 5 view .LVU158
 720 008c 0122     		movs	r2, #1
ARM GAS  C:\Users\86183\AppData\Local\Temp\ccaDF7Ye.s 			page 18


 721 008e 4FF40061 		mov	r1, #2048
 722 0092 0448     		ldr	r0, .L68
 723 0094 FFF7FEFF 		bl	HAL_GPIO_WritePin
 724              	.LVL89:
 196:Core/Src/main.c ****   }
 725              		.loc 1 196 5 view .LVU159
 726 0098 0122     		movs	r2, #1
 727 009a 1146     		mov	r1, r2
 728 009c 0248     		ldr	r0, .L68+4
 729 009e FFF7FEFF 		bl	HAL_GPIO_WritePin
 730              	.LVL90:
 731 00a2 E6E7     		b	.L61
 732              	.L69:
 733              		.align	2
 734              	.L68:
 735 00a4 00100140 		.word	1073811456
 736 00a8 000C0140 		.word	1073810432
 737              		.cfi_endproc
 738              	.LFE71:
 740              		.section	.text.Set_Right_Direction,"ax",%progbits
 741              		.align	1
 742              		.global	Set_Right_Direction
 743              		.syntax unified
 744              		.thumb
 745              		.thumb_func
 746              		.fpu softvfp
 748              	Set_Right_Direction:
 749              	.LVL91:
 750              	.LFB72:
 206:Core/Src/main.c **** 
 207:Core/Src/main.c **** void Set_Right_Direction(int direction)
 208:Core/Src/main.c **** {
 751              		.loc 1 208 1 view -0
 752              		.cfi_startproc
 753              		@ args = 0, pretend = 0, frame = 0
 754              		@ frame_needed = 0, uses_anonymous_args = 0
 755              		.loc 1 208 1 is_stmt 0 view .LVU161
 756 0000 38B5     		push	{r3, r4, r5, lr}
 757              	.LCFI5:
 758              		.cfi_def_cfa_offset 16
 759              		.cfi_offset 3, -16
 760              		.cfi_offset 4, -12
 761              		.cfi_offset 5, -8
 762              		.cfi_offset 14, -4
 763 0002 0446     		mov	r4, r0
 209:Core/Src/main.c ****   HAL_GPIO_WritePin(IN3A_GPIO_Port, IN3A_Pin, RESET);
 764              		.loc 1 209 3 is_stmt 1 view .LVU162
 765 0004 284D     		ldr	r5, .L77
 766 0006 0022     		movs	r2, #0
 767 0008 4FF40051 		mov	r1, #8192
 768 000c 2846     		mov	r0, r5
 769              	.LVL92:
 770              		.loc 1 209 3 is_stmt 0 view .LVU163
 771 000e FFF7FEFF 		bl	HAL_GPIO_WritePin
 772              	.LVL93:
 210:Core/Src/main.c ****   HAL_GPIO_WritePin(IN3B_GPIO_Port, IN3B_Pin, RESET);
 773              		.loc 1 210 3 is_stmt 1 view .LVU164
ARM GAS  C:\Users\86183\AppData\Local\Temp\ccaDF7Ye.s 			page 19


 774 0012 0022     		movs	r2, #0
 775 0014 4FF48041 		mov	r1, #16384
 776 0018 2846     		mov	r0, r5
 777 001a FFF7FEFF 		bl	HAL_GPIO_WritePin
 778              	.LVL94:
 211:Core/Src/main.c ****   HAL_GPIO_WritePin(IN4A_GPIO_Port, IN4A_Pin, RESET);
 779              		.loc 1 211 3 view .LVU165
 780 001e 0022     		movs	r2, #0
 781 0020 4FF48061 		mov	r1, #1024
 782 0024 2148     		ldr	r0, .L77+4
 783 0026 FFF7FEFF 		bl	HAL_GPIO_WritePin
 784              	.LVL95:
 212:Core/Src/main.c ****   HAL_GPIO_WritePin(IN4B_GPIO_Port, IN4B_Pin, RESET);
 785              		.loc 1 212 3 view .LVU166
 786 002a 0022     		movs	r2, #0
 787 002c 4FF40041 		mov	r1, #32768
 788 0030 1F48     		ldr	r0, .L77+8
 789 0032 FFF7FEFF 		bl	HAL_GPIO_WritePin
 790              	.LVL96:
 213:Core/Src/main.c ****   if (direction == 1)
 791              		.loc 1 213 3 view .LVU167
 792              		.loc 1 213 6 is_stmt 0 view .LVU168
 793 0036 012C     		cmp	r4, #1
 794 0038 1CD0     		beq	.L75
 214:Core/Src/main.c ****   {
 215:Core/Src/main.c ****     HAL_GPIO_WritePin(IN3A_GPIO_Port, IN3A_Pin, SET);
 216:Core/Src/main.c ****     HAL_GPIO_WritePin(IN4B_GPIO_Port, IN4B_Pin, SET);
 217:Core/Src/main.c ****   }
 218:Core/Src/main.c ****   else if (direction == -1)
 795              		.loc 1 218 8 is_stmt 1 view .LVU169
 796              		.loc 1 218 11 is_stmt 0 view .LVU170
 797 003a B4F1FF3F 		cmp	r4, #-1
 798 003e 26D0     		beq	.L76
 219:Core/Src/main.c ****   {
 220:Core/Src/main.c ****     HAL_GPIO_WritePin(IN3B_GPIO_Port, IN3B_Pin, SET);
 221:Core/Src/main.c ****     HAL_GPIO_WritePin(IN4A_GPIO_Port, IN4A_Pin, SET);
 222:Core/Src/main.c ****   }
 223:Core/Src/main.c ****   else
 224:Core/Src/main.c ****   {
 225:Core/Src/main.c ****     HAL_GPIO_WritePin(IN3A_GPIO_Port, IN3A_Pin, SET);
 799              		.loc 1 225 5 is_stmt 1 view .LVU171
 800 0040 194C     		ldr	r4, .L77
 801              	.LVL97:
 802              		.loc 1 225 5 is_stmt 0 view .LVU172
 803 0042 0122     		movs	r2, #1
 804 0044 4FF40051 		mov	r1, #8192
 805 0048 2046     		mov	r0, r4
 806 004a FFF7FEFF 		bl	HAL_GPIO_WritePin
 807              	.LVL98:
 226:Core/Src/main.c ****     HAL_GPIO_WritePin(IN3B_GPIO_Port, IN3B_Pin, SET);
 808              		.loc 1 226 5 is_stmt 1 view .LVU173
 809 004e 0122     		movs	r2, #1
 810 0050 4FF48041 		mov	r1, #16384
 811 0054 2046     		mov	r0, r4
 812 0056 FFF7FEFF 		bl	HAL_GPIO_WritePin
 813              	.LVL99:
 227:Core/Src/main.c ****     HAL_GPIO_WritePin(IN4A_GPIO_Port, IN4A_Pin, SET);
ARM GAS  C:\Users\86183\AppData\Local\Temp\ccaDF7Ye.s 			page 20


 814              		.loc 1 227 5 view .LVU174
 815 005a 0122     		movs	r2, #1
 816 005c 4FF48061 		mov	r1, #1024
 817 0060 1248     		ldr	r0, .L77+4
 818 0062 FFF7FEFF 		bl	HAL_GPIO_WritePin
 819              	.LVL100:
 228:Core/Src/main.c ****     HAL_GPIO_WritePin(IN4B_GPIO_Port, IN4B_Pin, SET);
 820              		.loc 1 228 5 view .LVU175
 821 0066 0122     		movs	r2, #1
 822 0068 4FF40041 		mov	r1, #32768
 823 006c 1048     		ldr	r0, .L77+8
 824 006e FFF7FEFF 		bl	HAL_GPIO_WritePin
 825              	.LVL101:
 826              	.L70:
 229:Core/Src/main.c ****   }
 230:Core/Src/main.c **** }
 827              		.loc 1 230 1 is_stmt 0 view .LVU176
 828 0072 38BD     		pop	{r3, r4, r5, pc}
 829              	.LVL102:
 830              	.L75:
 215:Core/Src/main.c ****     HAL_GPIO_WritePin(IN4B_GPIO_Port, IN4B_Pin, SET);
 831              		.loc 1 215 5 is_stmt 1 view .LVU177
 832 0074 0122     		movs	r2, #1
 833 0076 4FF40051 		mov	r1, #8192
 834 007a 2846     		mov	r0, r5
 835 007c FFF7FEFF 		bl	HAL_GPIO_WritePin
 836              	.LVL103:
 216:Core/Src/main.c ****   }
 837              		.loc 1 216 5 view .LVU178
 838 0080 0122     		movs	r2, #1
 839 0082 4FF40041 		mov	r1, #32768
 840 0086 0A48     		ldr	r0, .L77+8
 841 0088 FFF7FEFF 		bl	HAL_GPIO_WritePin
 842              	.LVL104:
 843 008c F1E7     		b	.L70
 844              	.L76:
 220:Core/Src/main.c ****     HAL_GPIO_WritePin(IN4A_GPIO_Port, IN4A_Pin, SET);
 845              		.loc 1 220 5 view .LVU179
 846 008e 0122     		movs	r2, #1
 847 0090 4FF48041 		mov	r1, #16384
 848 0094 0448     		ldr	r0, .L77
 849 0096 FFF7FEFF 		bl	HAL_GPIO_WritePin
 850              	.LVL105:
 221:Core/Src/main.c ****   }
 851              		.loc 1 221 5 view .LVU180
 852 009a 0122     		movs	r2, #1
 853 009c 4FF48061 		mov	r1, #1024
 854 00a0 0248     		ldr	r0, .L77+4
 855 00a2 FFF7FEFF 		bl	HAL_GPIO_WritePin
 856              	.LVL106:
 857 00a6 E4E7     		b	.L70
 858              	.L78:
 859              		.align	2
 860              	.L77:
 861 00a8 000C0140 		.word	1073810432
 862 00ac 00100140 		.word	1073811456
 863 00b0 00080140 		.word	1073809408
ARM GAS  C:\Users\86183\AppData\Local\Temp\ccaDF7Ye.s 			page 21


 864              		.cfi_endproc
 865              	.LFE72:
 867              		.section	.text.Set_Speed,"ax",%progbits
 868              		.align	1
 869              		.global	Set_Speed
 870              		.syntax unified
 871              		.thumb
 872              		.thumb_func
 873              		.fpu softvfp
 875              	Set_Speed:
 876              	.LVL107:
 877              	.LFB73:
 231:Core/Src/main.c **** 
 232:Core/Src/main.c **** void Set_Speed(float speed, int i) { target[i] = speed > 0 ? speed : 0; }
 878              		.loc 1 232 36 view -0
 879              		.cfi_startproc
 880              		@ args = 0, pretend = 0, frame = 0
 881              		@ frame_needed = 0, uses_anonymous_args = 0
 882              		.loc 1 232 36 is_stmt 0 view .LVU182
 883 0000 38B5     		push	{r3, r4, r5, lr}
 884              	.LCFI6:
 885              		.cfi_def_cfa_offset 16
 886              		.cfi_offset 3, -16
 887              		.cfi_offset 4, -12
 888              		.cfi_offset 5, -8
 889              		.cfi_offset 14, -4
 890 0002 0446     		mov	r4, r0
 891 0004 0D46     		mov	r5, r1
 892              		.loc 1 232 38 is_stmt 1 view .LVU183
 893              		.loc 1 232 68 is_stmt 0 view .LVU184
 894 0006 0021     		movs	r1, #0
 895              	.LVL108:
 896              		.loc 1 232 68 view .LVU185
 897 0008 FFF7FEFF 		bl	__aeabi_fcmpgt
 898              	.LVL109:
 899              		.loc 1 232 68 view .LVU186
 900 000c 18B1     		cbz	r0, .L84
 901              	.LVL110:
 902              	.L80:
 903              		.loc 1 232 48 discriminator 4 view .LVU187
 904 000e 034B     		ldr	r3, .L85
 905 0010 43F82540 		str	r4, [r3, r5, lsl #2]	@ float
 906              		.loc 1 232 73 discriminator 4 view .LVU188
 907 0014 38BD     		pop	{r3, r4, r5, pc}
 908              	.LVL111:
 909              	.L84:
 910              		.loc 1 232 68 view .LVU189
 911 0016 0024     		movs	r4, #0
 912              	.LVL112:
 913              		.loc 1 232 68 view .LVU190
 914 0018 F9E7     		b	.L80
 915              	.L86:
 916 001a 00BF     		.align	2
 917              	.L85:
 918 001c 00000000 		.word	.LANCHOR9
 919              		.cfi_endproc
 920              	.LFE73:
ARM GAS  C:\Users\86183\AppData\Local\Temp\ccaDF7Ye.s 			page 22


 922              		.section	.text.Add_Angle,"ax",%progbits
 923              		.align	1
 924              		.global	Add_Angle
 925              		.syntax unified
 926              		.thumb
 927              		.thumb_func
 928              		.fpu softvfp
 930              	Add_Angle:
 931              	.LVL113:
 932              	.LFB74:
 233:Core/Src/main.c **** 
 234:Core/Src/main.c **** float Add_Angle(float angleA, float angleB)
 235:Core/Src/main.c **** {
 933              		.loc 1 235 1 is_stmt 1 view -0
 934              		.cfi_startproc
 935              		@ args = 0, pretend = 0, frame = 0
 936              		@ frame_needed = 0, uses_anonymous_args = 0
 937              		.loc 1 235 1 is_stmt 0 view .LVU192
 938 0000 10B5     		push	{r4, lr}
 939              	.LCFI7:
 940              		.cfi_def_cfa_offset 8
 941              		.cfi_offset 4, -8
 942              		.cfi_offset 14, -4
 236:Core/Src/main.c ****   float result = angleA + angleB;
 943              		.loc 1 236 3 is_stmt 1 view .LVU193
 944              		.loc 1 236 9 is_stmt 0 view .LVU194
 945 0002 FFF7FEFF 		bl	__aeabi_fadd
 946              	.LVL114:
 947              		.loc 1 236 9 view .LVU195
 948 0006 0446     		mov	r4, r0
 949              	.LVL115:
 237:Core/Src/main.c ****   return result < -180 ? result + 360 : result > 180 ? result - 360
 950              		.loc 1 237 3 is_stmt 1 view .LVU196
 951              		.loc 1 237 39 is_stmt 0 view .LVU197
 952 0008 0B49     		ldr	r1, .L96
 953 000a FFF7FEFF 		bl	__aeabi_fcmplt
 954              	.LVL116:
 955              		.loc 1 237 39 view .LVU198
 956 000e 30B1     		cbz	r0, .L94
 957              		.loc 1 237 39 discriminator 1 view .LVU199
 958 0010 0A49     		ldr	r1, .L96+4
 959 0012 2046     		mov	r0, r4
 960 0014 FFF7FEFF 		bl	__aeabi_fadd
 961              	.LVL117:
 962 0018 0446     		mov	r4, r0
 963              	.LVL118:
 964              	.L87:
 238:Core/Src/main.c ****                                                      : result;
 239:Core/Src/main.c **** }
 965              		.loc 1 239 1 view .LVU200
 966 001a 2046     		mov	r0, r4
 967 001c 10BD     		pop	{r4, pc}
 968              	.LVL119:
 969              	.L94:
 238:Core/Src/main.c ****                                                      : result;
 970              		.loc 1 238 54 view .LVU201
 971 001e 0849     		ldr	r1, .L96+8
ARM GAS  C:\Users\86183\AppData\Local\Temp\ccaDF7Ye.s 			page 23


 972 0020 2046     		mov	r0, r4
 973 0022 FFF7FEFF 		bl	__aeabi_fcmpgt
 974              	.LVL120:
 975 0026 0028     		cmp	r0, #0
 976 0028 F7D0     		beq	.L87
 238:Core/Src/main.c ****                                                      : result;
 977              		.loc 1 238 54 discriminator 1 view .LVU202
 978 002a 0449     		ldr	r1, .L96+4
 979 002c 2046     		mov	r0, r4
 980 002e FFF7FEFF 		bl	__aeabi_fsub
 981              	.LVL121:
 982 0032 0446     		mov	r4, r0
 983              	.LVL122:
 237:Core/Src/main.c ****   return result < -180 ? result + 360 : result > 180 ? result - 360
 984              		.loc 1 237 39 discriminator 1 view .LVU203
 985 0034 F1E7     		b	.L87
 986              	.L97:
 987 0036 00BF     		.align	2
 988              	.L96:
 989 0038 000034C3 		.word	-1020002304
 990 003c 0000B443 		.word	1135869952
 991 0040 00003443 		.word	1127481344
 992              		.cfi_endproc
 993              	.LFE74:
 995              		.section	.text.Turn,"ax",%progbits
 996              		.align	1
 997              		.global	Turn
 998              		.syntax unified
 999              		.thumb
 1000              		.thumb_func
 1001              		.fpu softvfp
 1003              	Turn:
 1004              	.LVL123:
 1005              	.LFB75:
 240:Core/Src/main.c **** 
 241:Core/Src/main.c **** void Turn(float angle)
 242:Core/Src/main.c **** {
 1006              		.loc 1 242 1 is_stmt 1 view -0
 1007              		.cfi_startproc
 1008              		@ args = 0, pretend = 0, frame = 0
 1009              		@ frame_needed = 0, uses_anonymous_args = 0
 1010              		.loc 1 242 1 is_stmt 0 view .LVU205
 1011 0000 38B5     		push	{r3, r4, r5, lr}
 1012              	.LCFI8:
 1013              		.cfi_def_cfa_offset 16
 1014              		.cfi_offset 3, -16
 1015              		.cfi_offset 4, -12
 1016              		.cfi_offset 5, -8
 1017              		.cfi_offset 14, -4
 1018 0002 0446     		mov	r4, r0
 243:Core/Src/main.c ****   Set_Right_Direction(0);
 1019              		.loc 1 243 3 is_stmt 1 view .LVU206
 1020 0004 0020     		movs	r0, #0
 1021              	.LVL124:
 1022              		.loc 1 243 3 is_stmt 0 view .LVU207
 1023 0006 FFF7FEFF 		bl	Set_Right_Direction
 1024              	.LVL125:
ARM GAS  C:\Users\86183\AppData\Local\Temp\ccaDF7Ye.s 			page 24


 244:Core/Src/main.c ****   Set_Left_Direction(0);
 1025              		.loc 1 244 3 is_stmt 1 view .LVU208
 1026 000a 0020     		movs	r0, #0
 1027 000c FFF7FEFF 		bl	Set_Left_Direction
 1028              	.LVL126:
 245:Core/Src/main.c ****   float v;
 1029              		.loc 1 245 3 view .LVU209
 246:Core/Src/main.c ****   angle0 = GetYaw();
 1030              		.loc 1 246 3 view .LVU210
 1031              		.loc 1 246 12 is_stmt 0 view .LVU211
 1032 0010 FFF7FEFF 		bl	GetYaw
 1033              	.LVL127:
 1034              		.loc 1 246 10 view .LVU212
 1035 0014 4D4D     		ldr	r5, .L132
 1036 0016 2860     		str	r0, [r5]	@ float
 247:Core/Src/main.c ****   angle0 = Add_Angle(angle0, angle);
 1037              		.loc 1 247 3 is_stmt 1 view .LVU213
 1038              		.loc 1 247 12 is_stmt 0 view .LVU214
 1039 0018 2146     		mov	r1, r4
 1040 001a FFF7FEFF 		bl	Add_Angle
 1041              	.LVL128:
 1042              		.loc 1 247 10 view .LVU215
 1043 001e 2860     		str	r0, [r5]	@ float
 248:Core/Src/main.c ****   if (getAngle() < 0)
 1044              		.loc 1 248 3 is_stmt 1 view .LVU216
 1045              		.loc 1 248 7 is_stmt 0 view .LVU217
 1046 0020 FFF7FEFF 		bl	getAngle
 1047              	.LVL129:
 1048              		.loc 1 248 6 view .LVU218
 1049 0024 0021     		movs	r1, #0
 1050 0026 FFF7FEFF 		bl	__aeabi_fcmplt
 1051              	.LVL130:
 1052 002a 40B9     		cbnz	r0, .L130
 249:Core/Src/main.c ****   {
 250:Core/Src/main.c ****     Set_Left_Direction(-1);
 251:Core/Src/main.c ****     Set_Right_Direction(1);
 252:Core/Src/main.c ****     for (int i = 0; i < 4; i++)
 253:Core/Src/main.c ****       Set_Speed(8, i);
 254:Core/Src/main.c ****     while (getAngle() < -50)
 255:Core/Src/main.c ****       ;
 256:Core/Src/main.c ****     while (getAngle() < -5)
 257:Core/Src/main.c ****     {
 258:Core/Src/main.c ****       v = 3;
 259:Core/Src/main.c ****       for (int i = 0; i < 4; i++)
 260:Core/Src/main.c ****         Set_Speed(v, i);
 261:Core/Src/main.c ****     }
 262:Core/Src/main.c ****   }
 263:Core/Src/main.c ****   else
 264:Core/Src/main.c ****   {
 265:Core/Src/main.c ****     Set_Left_Direction(1);
 1053              		.loc 1 265 5 is_stmt 1 view .LVU219
 1054 002c 0120     		movs	r0, #1
 1055 002e FFF7FEFF 		bl	Set_Left_Direction
 1056              	.LVL131:
 266:Core/Src/main.c ****     Set_Right_Direction(-1);
 1057              		.loc 1 266 5 view .LVU220
 1058 0032 4FF0FF30 		mov	r0, #-1
ARM GAS  C:\Users\86183\AppData\Local\Temp\ccaDF7Ye.s 			page 25


 1059 0036 FFF7FEFF 		bl	Set_Right_Direction
 1060              	.LVL132:
 267:Core/Src/main.c ****     for (int i = 0; i < 4; i++)
 1061              		.loc 1 267 5 view .LVU221
 1062              	.LBB7:
 1063              		.loc 1 267 10 view .LVU222
 1064              		.loc 1 267 14 is_stmt 0 view .LVU223
 1065 003a 0024     		movs	r4, #0
 1066              	.LVL133:
 1067              		.loc 1 267 5 view .LVU224
 1068 003c 2DE0     		b	.L108
 1069              	.LVL134:
 1070              	.L130:
 1071              		.loc 1 267 5 view .LVU225
 1072              	.LBE7:
 250:Core/Src/main.c ****     Set_Right_Direction(1);
 1073              		.loc 1 250 5 is_stmt 1 view .LVU226
 1074 003e 4FF0FF30 		mov	r0, #-1
 1075 0042 FFF7FEFF 		bl	Set_Left_Direction
 1076              	.LVL135:
 251:Core/Src/main.c ****     for (int i = 0; i < 4; i++)
 1077              		.loc 1 251 5 view .LVU227
 1078 0046 0120     		movs	r0, #1
 1079 0048 FFF7FEFF 		bl	Set_Right_Direction
 1080              	.LVL136:
 252:Core/Src/main.c ****       Set_Speed(8, i);
 1081              		.loc 1 252 5 view .LVU228
 1082              	.LBB8:
 252:Core/Src/main.c ****       Set_Speed(8, i);
 1083              		.loc 1 252 10 view .LVU229
 252:Core/Src/main.c ****       Set_Speed(8, i);
 1084              		.loc 1 252 14 is_stmt 0 view .LVU230
 1085 004c 0024     		movs	r4, #0
 1086              	.LVL137:
 252:Core/Src/main.c ****       Set_Speed(8, i);
 1087              		.loc 1 252 5 view .LVU231
 1088 004e 05E0     		b	.L101
 1089              	.LVL138:
 1090              	.L102:
 253:Core/Src/main.c ****     while (getAngle() < -50)
 1091              		.loc 1 253 7 is_stmt 1 discriminator 3 view .LVU232
 1092 0050 2146     		mov	r1, r4
 1093 0052 4FF08240 		mov	r0, #1090519040
 1094 0056 FFF7FEFF 		bl	Set_Speed
 1095              	.LVL139:
 252:Core/Src/main.c ****       Set_Speed(8, i);
 1096              		.loc 1 252 28 discriminator 3 view .LVU233
 252:Core/Src/main.c ****       Set_Speed(8, i);
 1097              		.loc 1 252 29 is_stmt 0 discriminator 3 view .LVU234
 1098 005a 0134     		adds	r4, r4, #1
 1099              	.LVL140:
 1100              	.L101:
 252:Core/Src/main.c ****       Set_Speed(8, i);
 1101              		.loc 1 252 21 is_stmt 1 discriminator 1 view .LVU235
 252:Core/Src/main.c ****       Set_Speed(8, i);
 1102              		.loc 1 252 5 is_stmt 0 discriminator 1 view .LVU236
 1103 005c 032C     		cmp	r4, #3
ARM GAS  C:\Users\86183\AppData\Local\Temp\ccaDF7Ye.s 			page 26


 1104 005e F7DD     		ble	.L102
 1105              	.L103:
 1106              	.LBE8:
 255:Core/Src/main.c ****     while (getAngle() < -5)
 1107              		.loc 1 255 7 is_stmt 1 discriminator 1 view .LVU237
 254:Core/Src/main.c ****       ;
 1108              		.loc 1 254 11 discriminator 1 view .LVU238
 254:Core/Src/main.c ****       ;
 1109              		.loc 1 254 12 is_stmt 0 discriminator 1 view .LVU239
 1110 0060 FFF7FEFF 		bl	getAngle
 1111              	.LVL141:
 254:Core/Src/main.c ****       ;
 1112              		.loc 1 254 11 discriminator 1 view .LVU240
 1113 0064 3A49     		ldr	r1, .L132+4
 1114 0066 FFF7FEFF 		bl	__aeabi_fcmplt
 1115              	.LVL142:
 1116 006a 0028     		cmp	r0, #0
 1117 006c F8D1     		bne	.L103
 1118 006e 06E0     		b	.L104
 1119              	.LVL143:
 1120              	.L105:
 1121              	.LBB9:
 260:Core/Src/main.c ****     }
 1122              		.loc 1 260 9 is_stmt 1 discriminator 3 view .LVU241
 1123 0070 2146     		mov	r1, r4
 1124 0072 3848     		ldr	r0, .L132+8
 1125 0074 FFF7FEFF 		bl	Set_Speed
 1126              	.LVL144:
 259:Core/Src/main.c ****         Set_Speed(v, i);
 1127              		.loc 1 259 30 discriminator 3 view .LVU242
 259:Core/Src/main.c ****         Set_Speed(v, i);
 1128              		.loc 1 259 31 is_stmt 0 discriminator 3 view .LVU243
 1129 0078 0134     		adds	r4, r4, #1
 1130              	.LVL145:
 1131              	.L106:
 259:Core/Src/main.c ****         Set_Speed(v, i);
 1132              		.loc 1 259 23 is_stmt 1 discriminator 1 view .LVU244
 259:Core/Src/main.c ****         Set_Speed(v, i);
 1133              		.loc 1 259 7 is_stmt 0 discriminator 1 view .LVU245
 1134 007a 032C     		cmp	r4, #3
 1135 007c F8DD     		ble	.L105
 1136              	.LVL146:
 1137              	.L104:
 259:Core/Src/main.c ****         Set_Speed(v, i);
 1138              		.loc 1 259 7 discriminator 1 view .LVU246
 1139              	.LBE9:
 256:Core/Src/main.c ****     {
 1140              		.loc 1 256 11 is_stmt 1 view .LVU247
 256:Core/Src/main.c ****     {
 1141              		.loc 1 256 12 is_stmt 0 view .LVU248
 1142 007e FFF7FEFF 		bl	getAngle
 1143              	.LVL147:
 256:Core/Src/main.c ****     {
 1144              		.loc 1 256 11 view .LVU249
 1145 0082 3549     		ldr	r1, .L132+12
 1146 0084 FFF7FEFF 		bl	__aeabi_fcmplt
 1147              	.LVL148:
ARM GAS  C:\Users\86183\AppData\Local\Temp\ccaDF7Ye.s 			page 27


 1148 0088 00B3     		cbz	r0, .L107
 1149              	.LBB10:
 259:Core/Src/main.c ****         Set_Speed(v, i);
 1150              		.loc 1 259 16 view .LVU250
 1151 008a 0024     		movs	r4, #0
 1152 008c F5E7     		b	.L106
 1153              	.LVL149:
 1154              	.L109:
 259:Core/Src/main.c ****         Set_Speed(v, i);
 1155              		.loc 1 259 16 view .LVU251
 1156              	.LBE10:
 1157              	.LBB11:
 268:Core/Src/main.c ****       Set_Speed(8, i);
 1158              		.loc 1 268 7 is_stmt 1 discriminator 3 view .LVU252
 1159 008e 2146     		mov	r1, r4
 1160 0090 4FF08240 		mov	r0, #1090519040
 1161 0094 FFF7FEFF 		bl	Set_Speed
 1162              	.LVL150:
 267:Core/Src/main.c ****       Set_Speed(8, i);
 1163              		.loc 1 267 28 discriminator 3 view .LVU253
 267:Core/Src/main.c ****       Set_Speed(8, i);
 1164              		.loc 1 267 29 is_stmt 0 discriminator 3 view .LVU254
 1165 0098 0134     		adds	r4, r4, #1
 1166              	.LVL151:
 1167              	.L108:
 267:Core/Src/main.c ****       Set_Speed(8, i);
 1168              		.loc 1 267 21 is_stmt 1 discriminator 1 view .LVU255
 267:Core/Src/main.c ****       Set_Speed(8, i);
 1169              		.loc 1 267 5 is_stmt 0 discriminator 1 view .LVU256
 1170 009a 032C     		cmp	r4, #3
 1171 009c F7DD     		ble	.L109
 1172              	.L110:
 1173              	.LBE11:
 269:Core/Src/main.c ****     while (getAngle() > 50)
 270:Core/Src/main.c ****       ;
 1174              		.loc 1 270 7 is_stmt 1 discriminator 1 view .LVU257
 269:Core/Src/main.c ****     while (getAngle() > 50)
 1175              		.loc 1 269 11 discriminator 1 view .LVU258
 269:Core/Src/main.c ****     while (getAngle() > 50)
 1176              		.loc 1 269 12 is_stmt 0 discriminator 1 view .LVU259
 1177 009e FFF7FEFF 		bl	getAngle
 1178              	.LVL152:
 269:Core/Src/main.c ****     while (getAngle() > 50)
 1179              		.loc 1 269 11 discriminator 1 view .LVU260
 1180 00a2 2E49     		ldr	r1, .L132+16
 1181 00a4 FFF7FEFF 		bl	__aeabi_fcmpgt
 1182              	.LVL153:
 1183 00a8 0028     		cmp	r0, #0
 1184 00aa F8D1     		bne	.L110
 1185 00ac 06E0     		b	.L111
 1186              	.LVL154:
 1187              	.L112:
 1188              	.LBB12:
 271:Core/Src/main.c ****     while (getAngle() > 5)
 272:Core/Src/main.c ****     {
 273:Core/Src/main.c ****       v = 3;
 274:Core/Src/main.c ****       for (int i = 0; i < 4; i++)
ARM GAS  C:\Users\86183\AppData\Local\Temp\ccaDF7Ye.s 			page 28


 275:Core/Src/main.c ****         Set_Speed(v, i);
 1189              		.loc 1 275 9 is_stmt 1 discriminator 3 view .LVU261
 1190 00ae 2146     		mov	r1, r4
 1191 00b0 2848     		ldr	r0, .L132+8
 1192 00b2 FFF7FEFF 		bl	Set_Speed
 1193              	.LVL155:
 274:Core/Src/main.c ****         Set_Speed(v, i);
 1194              		.loc 1 274 30 discriminator 3 view .LVU262
 274:Core/Src/main.c ****         Set_Speed(v, i);
 1195              		.loc 1 274 31 is_stmt 0 discriminator 3 view .LVU263
 1196 00b6 0134     		adds	r4, r4, #1
 1197              	.LVL156:
 1198              	.L113:
 274:Core/Src/main.c ****         Set_Speed(v, i);
 1199              		.loc 1 274 23 is_stmt 1 discriminator 1 view .LVU264
 274:Core/Src/main.c ****         Set_Speed(v, i);
 1200              		.loc 1 274 7 is_stmt 0 discriminator 1 view .LVU265
 1201 00b8 032C     		cmp	r4, #3
 1202 00ba F8DD     		ble	.L112
 1203              	.LVL157:
 1204              	.L111:
 274:Core/Src/main.c ****         Set_Speed(v, i);
 1205              		.loc 1 274 7 discriminator 1 view .LVU266
 1206              	.LBE12:
 271:Core/Src/main.c ****     while (getAngle() > 5)
 1207              		.loc 1 271 11 is_stmt 1 view .LVU267
 271:Core/Src/main.c ****     while (getAngle() > 5)
 1208              		.loc 1 271 12 is_stmt 0 view .LVU268
 1209 00bc FFF7FEFF 		bl	getAngle
 1210              	.LVL158:
 271:Core/Src/main.c ****     while (getAngle() > 5)
 1211              		.loc 1 271 11 view .LVU269
 1212 00c0 2749     		ldr	r1, .L132+20
 1213 00c2 FFF7FEFF 		bl	__aeabi_fcmpgt
 1214              	.LVL159:
 1215 00c6 08B1     		cbz	r0, .L107
 1216              	.LBB13:
 274:Core/Src/main.c ****         Set_Speed(v, i);
 1217              		.loc 1 274 16 view .LVU270
 1218 00c8 0024     		movs	r4, #0
 1219 00ca F5E7     		b	.L113
 1220              	.L107:
 274:Core/Src/main.c ****         Set_Speed(v, i);
 1221              		.loc 1 274 16 view .LVU271
 1222              	.LBE13:
 276:Core/Src/main.c ****     }
 277:Core/Src/main.c ****   }
 278:Core/Src/main.c ****   if (getAngle() < 0)
 1223              		.loc 1 278 3 is_stmt 1 view .LVU272
 1224              		.loc 1 278 7 is_stmt 0 view .LVU273
 1225 00cc FFF7FEFF 		bl	getAngle
 1226              	.LVL160:
 1227              		.loc 1 278 6 view .LVU274
 1228 00d0 0021     		movs	r1, #0
 1229 00d2 FFF7FEFF 		bl	__aeabi_fcmplt
 1230              	.LVL161:
 1231 00d6 40B9     		cbnz	r0, .L131
ARM GAS  C:\Users\86183\AppData\Local\Temp\ccaDF7Ye.s 			page 29


 279:Core/Src/main.c ****   {
 280:Core/Src/main.c ****     Set_Left_Direction(-1);
 281:Core/Src/main.c ****     Set_Right_Direction(1);
 282:Core/Src/main.c ****     for (int i = 0; i < 4; i++)
 283:Core/Src/main.c ****       Set_Speed(2, i);
 284:Core/Src/main.c ****     while (getAngle() < -1)
 285:Core/Src/main.c ****       ;
 286:Core/Src/main.c ****   }
 287:Core/Src/main.c ****   else
 288:Core/Src/main.c ****   {
 289:Core/Src/main.c ****     Set_Left_Direction(1);
 1232              		.loc 1 289 5 is_stmt 1 view .LVU275
 1233 00d8 0120     		movs	r0, #1
 1234 00da FFF7FEFF 		bl	Set_Left_Direction
 1235              	.LVL162:
 290:Core/Src/main.c ****     Set_Right_Direction(-1);
 1236              		.loc 1 290 5 view .LVU276
 1237 00de 4FF0FF30 		mov	r0, #-1
 1238 00e2 FFF7FEFF 		bl	Set_Right_Direction
 1239              	.LVL163:
 291:Core/Src/main.c ****     for (int i = 0; i < 4; i++)
 1240              		.loc 1 291 5 view .LVU277
 1241              	.LBB14:
 1242              		.loc 1 291 10 view .LVU278
 1243              		.loc 1 291 14 is_stmt 0 view .LVU279
 1244 00e6 0024     		movs	r4, #0
 1245              		.loc 1 291 5 view .LVU280
 1246 00e8 1EE0     		b	.L120
 1247              	.LVL164:
 1248              	.L131:
 1249              		.loc 1 291 5 view .LVU281
 1250              	.LBE14:
 280:Core/Src/main.c ****     Set_Right_Direction(1);
 1251              		.loc 1 280 5 is_stmt 1 view .LVU282
 1252 00ea 4FF0FF30 		mov	r0, #-1
 1253 00ee FFF7FEFF 		bl	Set_Left_Direction
 1254              	.LVL165:
 281:Core/Src/main.c ****     for (int i = 0; i < 4; i++)
 1255              		.loc 1 281 5 view .LVU283
 1256 00f2 0120     		movs	r0, #1
 1257 00f4 FFF7FEFF 		bl	Set_Right_Direction
 1258              	.LVL166:
 282:Core/Src/main.c ****       Set_Speed(2, i);
 1259              		.loc 1 282 5 view .LVU284
 1260              	.LBB15:
 282:Core/Src/main.c ****       Set_Speed(2, i);
 1261              		.loc 1 282 10 view .LVU285
 282:Core/Src/main.c ****       Set_Speed(2, i);
 1262              		.loc 1 282 14 is_stmt 0 view .LVU286
 1263 00f8 0024     		movs	r4, #0
 282:Core/Src/main.c ****       Set_Speed(2, i);
 1264              		.loc 1 282 5 view .LVU287
 1265 00fa 05E0     		b	.L116
 1266              	.LVL167:
 1267              	.L117:
 283:Core/Src/main.c ****     while (getAngle() < -1)
 1268              		.loc 1 283 7 is_stmt 1 discriminator 3 view .LVU288
ARM GAS  C:\Users\86183\AppData\Local\Temp\ccaDF7Ye.s 			page 30


 1269 00fc 2146     		mov	r1, r4
 1270 00fe 4FF08040 		mov	r0, #1073741824
 1271 0102 FFF7FEFF 		bl	Set_Speed
 1272              	.LVL168:
 282:Core/Src/main.c ****       Set_Speed(2, i);
 1273              		.loc 1 282 28 discriminator 3 view .LVU289
 282:Core/Src/main.c ****       Set_Speed(2, i);
 1274              		.loc 1 282 29 is_stmt 0 discriminator 3 view .LVU290
 1275 0106 0134     		adds	r4, r4, #1
 1276              	.LVL169:
 1277              	.L116:
 282:Core/Src/main.c ****       Set_Speed(2, i);
 1278              		.loc 1 282 21 is_stmt 1 discriminator 1 view .LVU291
 282:Core/Src/main.c ****       Set_Speed(2, i);
 1279              		.loc 1 282 5 is_stmt 0 discriminator 1 view .LVU292
 1280 0108 032C     		cmp	r4, #3
 1281 010a F7DD     		ble	.L117
 1282              	.L118:
 1283              	.LBE15:
 285:Core/Src/main.c ****   }
 1284              		.loc 1 285 7 is_stmt 1 discriminator 1 view .LVU293
 284:Core/Src/main.c ****       ;
 1285              		.loc 1 284 11 discriminator 1 view .LVU294
 284:Core/Src/main.c ****       ;
 1286              		.loc 1 284 12 is_stmt 0 discriminator 1 view .LVU295
 1287 010c FFF7FEFF 		bl	getAngle
 1288              	.LVL170:
 284:Core/Src/main.c ****       ;
 1289              		.loc 1 284 11 discriminator 1 view .LVU296
 1290 0110 1449     		ldr	r1, .L132+24
 1291 0112 FFF7FEFF 		bl	__aeabi_fcmplt
 1292              	.LVL171:
 1293 0116 0028     		cmp	r0, #0
 1294 0118 F8D1     		bne	.L118
 1295 011a 0FE0     		b	.L119
 1296              	.LVL172:
 1297              	.L121:
 1298              	.LBB16:
 292:Core/Src/main.c ****       Set_Speed(2, i);
 1299              		.loc 1 292 7 is_stmt 1 discriminator 3 view .LVU297
 1300 011c 2146     		mov	r1, r4
 1301 011e 4FF08040 		mov	r0, #1073741824
 1302 0122 FFF7FEFF 		bl	Set_Speed
 1303              	.LVL173:
 291:Core/Src/main.c ****       Set_Speed(2, i);
 1304              		.loc 1 291 28 discriminator 3 view .LVU298
 291:Core/Src/main.c ****       Set_Speed(2, i);
 1305              		.loc 1 291 29 is_stmt 0 discriminator 3 view .LVU299
 1306 0126 0134     		adds	r4, r4, #1
 1307              	.LVL174:
 1308              	.L120:
 291:Core/Src/main.c ****       Set_Speed(2, i);
 1309              		.loc 1 291 21 is_stmt 1 discriminator 1 view .LVU300
 291:Core/Src/main.c ****       Set_Speed(2, i);
 1310              		.loc 1 291 5 is_stmt 0 discriminator 1 view .LVU301
 1311 0128 032C     		cmp	r4, #3
 1312 012a F7DD     		ble	.L121
ARM GAS  C:\Users\86183\AppData\Local\Temp\ccaDF7Ye.s 			page 31


 1313              	.L122:
 1314              	.LBE16:
 293:Core/Src/main.c ****     while (getAngle() > 1)
 294:Core/Src/main.c ****       ;
 1315              		.loc 1 294 7 is_stmt 1 discriminator 1 view .LVU302
 293:Core/Src/main.c ****     while (getAngle() > 1)
 1316              		.loc 1 293 11 discriminator 1 view .LVU303
 293:Core/Src/main.c ****     while (getAngle() > 1)
 1317              		.loc 1 293 12 is_stmt 0 discriminator 1 view .LVU304
 1318 012c FFF7FEFF 		bl	getAngle
 1319              	.LVL175:
 293:Core/Src/main.c ****     while (getAngle() > 1)
 1320              		.loc 1 293 11 discriminator 1 view .LVU305
 1321 0130 4FF07E51 		mov	r1, #1065353216
 1322 0134 FFF7FEFF 		bl	__aeabi_fcmpgt
 1323              	.LVL176:
 1324 0138 0028     		cmp	r0, #0
 1325 013a F7D1     		bne	.L122
 1326              	.LVL177:
 1327              	.L119:
 295:Core/Src/main.c ****   }
 296:Core/Src/main.c ****   Set_Left_Direction(0);
 1328              		.loc 1 296 3 is_stmt 1 view .LVU306
 1329 013c 0020     		movs	r0, #0
 1330 013e FFF7FEFF 		bl	Set_Left_Direction
 1331              	.LVL178:
 297:Core/Src/main.c ****   Set_Right_Direction(0);
 1332              		.loc 1 297 3 view .LVU307
 1333 0142 0020     		movs	r0, #0
 1334 0144 FFF7FEFF 		bl	Set_Right_Direction
 1335              	.LVL179:
 298:Core/Src/main.c **** }
 1336              		.loc 1 298 1 is_stmt 0 view .LVU308
 1337 0148 38BD     		pop	{r3, r4, r5, pc}
 1338              	.L133:
 1339 014a 00BF     		.align	2
 1340              	.L132:
 1341 014c 00000000 		.word	.LANCHOR7
 1342 0150 000048C2 		.word	-1035468800
 1343 0154 00004040 		.word	1077936128
 1344 0158 0000A0C0 		.word	-1063256064
 1345 015c 00004842 		.word	1112014848
 1346 0160 0000A040 		.word	1084227584
 1347 0164 000080BF 		.word	-1082130432
 1348              		.cfi_endproc
 1349              	.LFE75:
 1351              		.global	__aeabi_ui2f
 1352              		.global	__aeabi_f2d
 1353              		.global	__aeabi_dmul
 1354              		.global	__aeabi_d2f
 1355              		.global	__aeabi_dadd
 1356              		.global	__aeabi_f2iz
 1357              		.section	.text.HAL_TIM_PeriodElapsedCallback,"ax",%progbits
 1358              		.align	1
 1359              		.global	HAL_TIM_PeriodElapsedCallback
 1360              		.syntax unified
 1361              		.thumb
ARM GAS  C:\Users\86183\AppData\Local\Temp\ccaDF7Ye.s 			page 32


 1362              		.thumb_func
 1363              		.fpu softvfp
 1365              	HAL_TIM_PeriodElapsedCallback:
 1366              	.LVL180:
 1367              	.LFB76:
 299:Core/Src/main.c **** 
 300:Core/Src/main.c **** void HAL_TIM_PeriodElapsedCallback(TIM_HandleTypeDef *htim)
 301:Core/Src/main.c **** {
 1368              		.loc 1 301 1 is_stmt 1 view -0
 1369              		.cfi_startproc
 1370              		@ args = 0, pretend = 0, frame = 0
 1371              		@ frame_needed = 0, uses_anonymous_args = 0
 1372              		.loc 1 301 1 is_stmt 0 view .LVU310
 1373 0000 2DE9F84F 		push	{r3, r4, r5, r6, r7, r8, r9, r10, fp, lr}
 1374              	.LCFI9:
 1375              		.cfi_def_cfa_offset 40
 1376              		.cfi_offset 3, -40
 1377              		.cfi_offset 4, -36
 1378              		.cfi_offset 5, -32
 1379              		.cfi_offset 6, -28
 1380              		.cfi_offset 7, -24
 1381              		.cfi_offset 8, -20
 1382              		.cfi_offset 9, -16
 1383              		.cfi_offset 10, -12
 1384              		.cfi_offset 11, -8
 1385              		.cfi_offset 14, -4
 302:Core/Src/main.c ****   if (htim->Instance == TIM2)
 1386              		.loc 1 302 3 is_stmt 1 view .LVU311
 1387              		.loc 1 302 11 is_stmt 0 view .LVU312
 1388 0004 0368     		ldr	r3, [r0]
 1389              		.loc 1 302 6 view .LVU313
 1390 0006 B3F1804F 		cmp	r3, #1073741824
 1391 000a 01D0     		beq	.L141
 1392              	.LVL181:
 1393              	.L134:
 303:Core/Src/main.c ****   {
 304:Core/Src/main.c ****     unsigned int cnt0 = __HAL_TIM_GetCounter(&htim3);
 305:Core/Src/main.c ****     unsigned int cnt1 = __HAL_TIM_GetCounter(&htim4);
 306:Core/Src/main.c ****     unsigned int cnt2 = __HAL_TIM_GetCounter(&htim5);
 307:Core/Src/main.c ****     unsigned int cnt3 = __HAL_TIM_GetCounter(&htim8);
 308:Core/Src/main.c **** 
 309:Core/Src/main.c ****     if (cnt0 > 32676)
 310:Core/Src/main.c ****       cnt0 = 65535 - cnt0;
 311:Core/Src/main.c ****     if (cnt1 > 32676)
 312:Core/Src/main.c ****       cnt1 = 65535 - cnt1;
 313:Core/Src/main.c ****     if (cnt2 > 32676)
 314:Core/Src/main.c ****       cnt2 = 65535 - cnt2;
 315:Core/Src/main.c ****     if (cnt3 > 32676)
 316:Core/Src/main.c ****       cnt3 = 65535 - cnt3;
 317:Core/Src/main.c **** 
 318:Core/Src/main.c ****     __HAL_TIM_SetCounter(&htim3, 0);
 319:Core/Src/main.c ****     __HAL_TIM_SetCounter(&htim4, 0);
 320:Core/Src/main.c ****     __HAL_TIM_SetCounter(&htim5, 0);
 321:Core/Src/main.c ****     __HAL_TIM_SetCounter(&htim8, 0);
 322:Core/Src/main.c **** 
 323:Core/Src/main.c ****     float speed0 = (float)cnt0 * 20 / 532 * 20.4 * 0.71;
 324:Core/Src/main.c ****     float speed1 = (float)cnt1 * 20 / 531 * 20.4 * 0.71;
ARM GAS  C:\Users\86183\AppData\Local\Temp\ccaDF7Ye.s 			page 33


 325:Core/Src/main.c ****     float speed2 = (float)cnt2 * 20 / 531 * 20.4 * 0.71;
 326:Core/Src/main.c ****     float speed3 = (float)cnt3 * 20 / 530 * 20.4 * 0.71;
 327:Core/Src/main.c **** 
 328:Core/Src/main.c ****     // distance += (speed0 + speed1 + speed2 + speed3) * 0.0125;
 329:Core/Src/main.c ****     float distance1 = (speed0 + speed2) * 0.025;
 330:Core/Src/main.c ****     float distance2 = (speed1 + speed3) * 0.025;
 331:Core/Src/main.c ****     distance += sqrt(sq(distance1) + sq(distance2));
 332:Core/Src/main.c **** 
 333:Core/Src/main.c ****     int pwm0 = (int)PID(speed0, target[0], 0);
 334:Core/Src/main.c ****     int pwm1 = (int)PID(speed1, target[1], 1);
 335:Core/Src/main.c ****     int pwm2 = (int)PID(speed2, target[2], 2);
 336:Core/Src/main.c ****     int pwm3 = (int)PID(speed3, target[3], 3);
 337:Core/Src/main.c **** 
 338:Core/Src/main.c ****     __HAL_TIM_SetCompare(&htim1, TIM_CHANNEL_1, pwm0);
 339:Core/Src/main.c ****     __HAL_TIM_SetCompare(&htim1, TIM_CHANNEL_2, pwm1);
 340:Core/Src/main.c ****     __HAL_TIM_SetCompare(&htim1, TIM_CHANNEL_3, pwm2);
 341:Core/Src/main.c ****     __HAL_TIM_SetCompare(&htim1, TIM_CHANNEL_4, pwm3);
 342:Core/Src/main.c ****   }
 343:Core/Src/main.c **** }
 1394              		.loc 1 343 1 view .LVU314
 1395 000c BDE8F88F 		pop	{r3, r4, r5, r6, r7, r8, r9, r10, fp, pc}
 1396              	.LVL182:
 1397              	.L141:
 1398              	.LBB17:
 304:Core/Src/main.c ****     unsigned int cnt1 = __HAL_TIM_GetCounter(&htim4);
 1399              		.loc 1 304 5 is_stmt 1 view .LVU315
 304:Core/Src/main.c ****     unsigned int cnt1 = __HAL_TIM_GetCounter(&htim4);
 1400              		.loc 1 304 25 is_stmt 0 view .LVU316
 1401 0010 7F4B     		ldr	r3, .L142+24
 1402 0012 D3F800C0 		ldr	ip, [r3]
 304:Core/Src/main.c ****     unsigned int cnt1 = __HAL_TIM_GetCounter(&htim4);
 1403              		.loc 1 304 18 view .LVU317
 1404 0016 DCF82400 		ldr	r0, [ip, #36]
 1405              	.LVL183:
 305:Core/Src/main.c ****     unsigned int cnt2 = __HAL_TIM_GetCounter(&htim5);
 1406              		.loc 1 305 5 is_stmt 1 view .LVU318
 305:Core/Src/main.c ****     unsigned int cnt2 = __HAL_TIM_GetCounter(&htim5);
 1407              		.loc 1 305 25 is_stmt 0 view .LVU319
 1408 001a 7E4B     		ldr	r3, .L142+28
 1409 001c 1968     		ldr	r1, [r3]
 305:Core/Src/main.c ****     unsigned int cnt2 = __HAL_TIM_GetCounter(&htim5);
 1410              		.loc 1 305 18 view .LVU320
 1411 001e 4F6A     		ldr	r7, [r1, #36]
 1412              	.LVL184:
 306:Core/Src/main.c ****     unsigned int cnt3 = __HAL_TIM_GetCounter(&htim8);
 1413              		.loc 1 306 5 is_stmt 1 view .LVU321
 306:Core/Src/main.c ****     unsigned int cnt3 = __HAL_TIM_GetCounter(&htim8);
 1414              		.loc 1 306 25 is_stmt 0 view .LVU322
 1415 0020 7D4B     		ldr	r3, .L142+32
 1416 0022 1A68     		ldr	r2, [r3]
 306:Core/Src/main.c ****     unsigned int cnt3 = __HAL_TIM_GetCounter(&htim8);
 1417              		.loc 1 306 18 view .LVU323
 1418 0024 566A     		ldr	r6, [r2, #36]
 1419              	.LVL185:
 307:Core/Src/main.c **** 
 1420              		.loc 1 307 5 is_stmt 1 view .LVU324
 307:Core/Src/main.c **** 
ARM GAS  C:\Users\86183\AppData\Local\Temp\ccaDF7Ye.s 			page 34


 1421              		.loc 1 307 25 is_stmt 0 view .LVU325
 1422 0026 7D4B     		ldr	r3, .L142+36
 1423 0028 1B68     		ldr	r3, [r3]
 307:Core/Src/main.c **** 
 1424              		.loc 1 307 18 view .LVU326
 1425 002a 5D6A     		ldr	r5, [r3, #36]
 1426              	.LVL186:
 309:Core/Src/main.c ****       cnt0 = 65535 - cnt0;
 1427              		.loc 1 309 5 is_stmt 1 view .LVU327
 309:Core/Src/main.c ****       cnt0 = 65535 - cnt0;
 1428              		.loc 1 309 8 is_stmt 0 view .LVU328
 1429 002c 47F6A474 		movw	r4, #32676
 1430 0030 A042     		cmp	r0, r4
 1431 0032 02D9     		bls	.L136
 310:Core/Src/main.c ****     if (cnt1 > 32676)
 1432              		.loc 1 310 7 is_stmt 1 view .LVU329
 310:Core/Src/main.c ****     if (cnt1 > 32676)
 1433              		.loc 1 310 12 is_stmt 0 view .LVU330
 1434 0034 C0F57F40 		rsb	r0, r0, #65280
 1435              	.LVL187:
 310:Core/Src/main.c ****     if (cnt1 > 32676)
 1436              		.loc 1 310 12 view .LVU331
 1437 0038 FF30     		adds	r0, r0, #255
 1438              	.LVL188:
 1439              	.L136:
 311:Core/Src/main.c ****       cnt1 = 65535 - cnt1;
 1440              		.loc 1 311 5 is_stmt 1 view .LVU332
 311:Core/Src/main.c ****       cnt1 = 65535 - cnt1;
 1441              		.loc 1 311 8 is_stmt 0 view .LVU333
 1442 003a 47F6A474 		movw	r4, #32676
 1443 003e A742     		cmp	r7, r4
 1444 0040 02D9     		bls	.L137
 312:Core/Src/main.c ****     if (cnt2 > 32676)
 1445              		.loc 1 312 7 is_stmt 1 view .LVU334
 312:Core/Src/main.c ****     if (cnt2 > 32676)
 1446              		.loc 1 312 12 is_stmt 0 view .LVU335
 1447 0042 C7F57F47 		rsb	r7, r7, #65280
 1448              	.LVL189:
 312:Core/Src/main.c ****     if (cnt2 > 32676)
 1449              		.loc 1 312 12 view .LVU336
 1450 0046 FF37     		adds	r7, r7, #255
 1451              	.LVL190:
 1452              	.L137:
 313:Core/Src/main.c ****       cnt2 = 65535 - cnt2;
 1453              		.loc 1 313 5 is_stmt 1 view .LVU337
 313:Core/Src/main.c ****       cnt2 = 65535 - cnt2;
 1454              		.loc 1 313 8 is_stmt 0 view .LVU338
 1455 0048 47F6A474 		movw	r4, #32676
 1456 004c A642     		cmp	r6, r4
 1457 004e 02D9     		bls	.L138
 314:Core/Src/main.c ****     if (cnt3 > 32676)
 1458              		.loc 1 314 7 is_stmt 1 view .LVU339
 314:Core/Src/main.c ****     if (cnt3 > 32676)
 1459              		.loc 1 314 12 is_stmt 0 view .LVU340
 1460 0050 C6F57F46 		rsb	r6, r6, #65280
 1461              	.LVL191:
 314:Core/Src/main.c ****     if (cnt3 > 32676)
ARM GAS  C:\Users\86183\AppData\Local\Temp\ccaDF7Ye.s 			page 35


 1462              		.loc 1 314 12 view .LVU341
 1463 0054 FF36     		adds	r6, r6, #255
 1464              	.LVL192:
 1465              	.L138:
 315:Core/Src/main.c ****       cnt3 = 65535 - cnt3;
 1466              		.loc 1 315 5 is_stmt 1 view .LVU342
 315:Core/Src/main.c ****       cnt3 = 65535 - cnt3;
 1467              		.loc 1 315 8 is_stmt 0 view .LVU343
 1468 0056 47F6A474 		movw	r4, #32676
 1469 005a A542     		cmp	r5, r4
 1470 005c 02D9     		bls	.L139
 316:Core/Src/main.c **** 
 1471              		.loc 1 316 7 is_stmt 1 view .LVU344
 316:Core/Src/main.c **** 
 1472              		.loc 1 316 12 is_stmt 0 view .LVU345
 1473 005e C5F57F45 		rsb	r5, r5, #65280
 1474              	.LVL193:
 316:Core/Src/main.c **** 
 1475              		.loc 1 316 12 view .LVU346
 1476 0062 FF35     		adds	r5, r5, #255
 1477              	.LVL194:
 1478              	.L139:
 318:Core/Src/main.c ****     __HAL_TIM_SetCounter(&htim4, 0);
 1479              		.loc 1 318 5 is_stmt 1 view .LVU347
 1480 0064 0024     		movs	r4, #0
 1481 0066 CCF82440 		str	r4, [ip, #36]
 319:Core/Src/main.c ****     __HAL_TIM_SetCounter(&htim5, 0);
 1482              		.loc 1 319 5 view .LVU348
 1483 006a 4C62     		str	r4, [r1, #36]
 320:Core/Src/main.c ****     __HAL_TIM_SetCounter(&htim8, 0);
 1484              		.loc 1 320 5 view .LVU349
 1485 006c 5462     		str	r4, [r2, #36]
 321:Core/Src/main.c **** 
 1486              		.loc 1 321 5 view .LVU350
 1487 006e 5C62     		str	r4, [r3, #36]
 323:Core/Src/main.c ****     float speed1 = (float)cnt1 * 20 / 531 * 20.4 * 0.71;
 1488              		.loc 1 323 5 view .LVU351
 323:Core/Src/main.c ****     float speed1 = (float)cnt1 * 20 / 531 * 20.4 * 0.71;
 1489              		.loc 1 323 20 is_stmt 0 view .LVU352
 1490 0070 FFF7FEFF 		bl	__aeabi_ui2f
 1491              	.LVL195:
 323:Core/Src/main.c ****     float speed1 = (float)cnt1 * 20 / 531 * 20.4 * 0.71;
 1492              		.loc 1 323 32 view .LVU353
 1493 0074 6A49     		ldr	r1, .L142+40
 1494 0076 FFF7FEFF 		bl	__aeabi_fmul
 1495              	.LVL196:
 323:Core/Src/main.c ****     float speed1 = (float)cnt1 * 20 / 531 * 20.4 * 0.71;
 1496              		.loc 1 323 37 view .LVU354
 1497 007a 6A49     		ldr	r1, .L142+44
 1498 007c FFF7FEFF 		bl	__aeabi_fdiv
 1499              	.LVL197:
 1500 0080 FFF7FEFF 		bl	__aeabi_f2d
 1501              	.LVL198:
 323:Core/Src/main.c ****     float speed1 = (float)cnt1 * 20 / 531 * 20.4 * 0.71;
 1502              		.loc 1 323 43 view .LVU355
 1503 0084 5CA3     		adr	r3, .L142
 1504 0086 D3E90023 		ldrd	r2, [r3]
ARM GAS  C:\Users\86183\AppData\Local\Temp\ccaDF7Ye.s 			page 36


 1505 008a FFF7FEFF 		bl	__aeabi_dmul
 1506              	.LVL199:
 323:Core/Src/main.c ****     float speed1 = (float)cnt1 * 20 / 531 * 20.4 * 0.71;
 1507              		.loc 1 323 50 view .LVU356
 1508 008e 5CA3     		adr	r3, .L142+8
 1509 0090 D3E90023 		ldrd	r2, [r3]
 1510 0094 FFF7FEFF 		bl	__aeabi_dmul
 1511              	.LVL200:
 323:Core/Src/main.c ****     float speed1 = (float)cnt1 * 20 / 531 * 20.4 * 0.71;
 1512              		.loc 1 323 11 view .LVU357
 1513 0098 FFF7FEFF 		bl	__aeabi_d2f
 1514              	.LVL201:
 1515 009c 8346     		mov	fp, r0
 1516              	.LVL202:
 324:Core/Src/main.c ****     float speed2 = (float)cnt2 * 20 / 531 * 20.4 * 0.71;
 1517              		.loc 1 324 5 is_stmt 1 view .LVU358
 324:Core/Src/main.c ****     float speed2 = (float)cnt2 * 20 / 531 * 20.4 * 0.71;
 1518              		.loc 1 324 20 is_stmt 0 view .LVU359
 1519 009e 3846     		mov	r0, r7
 1520              	.LVL203:
 324:Core/Src/main.c ****     float speed2 = (float)cnt2 * 20 / 531 * 20.4 * 0.71;
 1521              		.loc 1 324 20 view .LVU360
 1522 00a0 FFF7FEFF 		bl	__aeabi_ui2f
 1523              	.LVL204:
 324:Core/Src/main.c ****     float speed2 = (float)cnt2 * 20 / 531 * 20.4 * 0.71;
 1524              		.loc 1 324 32 view .LVU361
 1525 00a4 5E49     		ldr	r1, .L142+40
 1526 00a6 FFF7FEFF 		bl	__aeabi_fmul
 1527              	.LVL205:
 324:Core/Src/main.c ****     float speed2 = (float)cnt2 * 20 / 531 * 20.4 * 0.71;
 1528              		.loc 1 324 37 view .LVU362
 1529 00aa 5F49     		ldr	r1, .L142+48
 1530 00ac FFF7FEFF 		bl	__aeabi_fdiv
 1531              	.LVL206:
 1532 00b0 FFF7FEFF 		bl	__aeabi_f2d
 1533              	.LVL207:
 324:Core/Src/main.c ****     float speed2 = (float)cnt2 * 20 / 531 * 20.4 * 0.71;
 1534              		.loc 1 324 43 view .LVU363
 1535 00b4 50A3     		adr	r3, .L142
 1536 00b6 D3E90023 		ldrd	r2, [r3]
 1537 00ba FFF7FEFF 		bl	__aeabi_dmul
 1538              	.LVL208:
 324:Core/Src/main.c ****     float speed2 = (float)cnt2 * 20 / 531 * 20.4 * 0.71;
 1539              		.loc 1 324 50 view .LVU364
 1540 00be 50A3     		adr	r3, .L142+8
 1541 00c0 D3E90023 		ldrd	r2, [r3]
 1542 00c4 FFF7FEFF 		bl	__aeabi_dmul
 1543              	.LVL209:
 324:Core/Src/main.c ****     float speed2 = (float)cnt2 * 20 / 531 * 20.4 * 0.71;
 1544              		.loc 1 324 11 view .LVU365
 1545 00c8 FFF7FEFF 		bl	__aeabi_d2f
 1546              	.LVL210:
 1547 00cc 8246     		mov	r10, r0
 1548              	.LVL211:
 325:Core/Src/main.c ****     float speed3 = (float)cnt3 * 20 / 530 * 20.4 * 0.71;
 1549              		.loc 1 325 5 is_stmt 1 view .LVU366
 325:Core/Src/main.c ****     float speed3 = (float)cnt3 * 20 / 530 * 20.4 * 0.71;
ARM GAS  C:\Users\86183\AppData\Local\Temp\ccaDF7Ye.s 			page 37


 1550              		.loc 1 325 20 is_stmt 0 view .LVU367
 1551 00ce 3046     		mov	r0, r6
 1552              	.LVL212:
 325:Core/Src/main.c ****     float speed3 = (float)cnt3 * 20 / 530 * 20.4 * 0.71;
 1553              		.loc 1 325 20 view .LVU368
 1554 00d0 FFF7FEFF 		bl	__aeabi_ui2f
 1555              	.LVL213:
 325:Core/Src/main.c ****     float speed3 = (float)cnt3 * 20 / 530 * 20.4 * 0.71;
 1556              		.loc 1 325 32 view .LVU369
 1557 00d4 5249     		ldr	r1, .L142+40
 1558 00d6 FFF7FEFF 		bl	__aeabi_fmul
 1559              	.LVL214:
 325:Core/Src/main.c ****     float speed3 = (float)cnt3 * 20 / 530 * 20.4 * 0.71;
 1560              		.loc 1 325 37 view .LVU370
 1561 00da 5349     		ldr	r1, .L142+48
 1562 00dc FFF7FEFF 		bl	__aeabi_fdiv
 1563              	.LVL215:
 1564 00e0 FFF7FEFF 		bl	__aeabi_f2d
 1565              	.LVL216:
 325:Core/Src/main.c ****     float speed3 = (float)cnt3 * 20 / 530 * 20.4 * 0.71;
 1566              		.loc 1 325 43 view .LVU371
 1567 00e4 44A3     		adr	r3, .L142
 1568 00e6 D3E90023 		ldrd	r2, [r3]
 1569 00ea FFF7FEFF 		bl	__aeabi_dmul
 1570              	.LVL217:
 325:Core/Src/main.c ****     float speed3 = (float)cnt3 * 20 / 530 * 20.4 * 0.71;
 1571              		.loc 1 325 50 view .LVU372
 1572 00ee 44A3     		adr	r3, .L142+8
 1573 00f0 D3E90023 		ldrd	r2, [r3]
 1574 00f4 FFF7FEFF 		bl	__aeabi_dmul
 1575              	.LVL218:
 325:Core/Src/main.c ****     float speed3 = (float)cnt3 * 20 / 530 * 20.4 * 0.71;
 1576              		.loc 1 325 11 view .LVU373
 1577 00f8 FFF7FEFF 		bl	__aeabi_d2f
 1578              	.LVL219:
 1579 00fc 0746     		mov	r7, r0
 1580              	.LVL220:
 326:Core/Src/main.c **** 
 1581              		.loc 1 326 5 is_stmt 1 view .LVU374
 326:Core/Src/main.c **** 
 1582              		.loc 1 326 20 is_stmt 0 view .LVU375
 1583 00fe 2846     		mov	r0, r5
 1584              	.LVL221:
 326:Core/Src/main.c **** 
 1585              		.loc 1 326 20 view .LVU376
 1586 0100 FFF7FEFF 		bl	__aeabi_ui2f
 1587              	.LVL222:
 326:Core/Src/main.c **** 
 1588              		.loc 1 326 32 view .LVU377
 1589 0104 4649     		ldr	r1, .L142+40
 1590 0106 FFF7FEFF 		bl	__aeabi_fmul
 1591              	.LVL223:
 326:Core/Src/main.c **** 
 1592              		.loc 1 326 37 view .LVU378
 1593 010a 4849     		ldr	r1, .L142+52
 1594 010c FFF7FEFF 		bl	__aeabi_fdiv
 1595              	.LVL224:
ARM GAS  C:\Users\86183\AppData\Local\Temp\ccaDF7Ye.s 			page 38


 1596 0110 FFF7FEFF 		bl	__aeabi_f2d
 1597              	.LVL225:
 326:Core/Src/main.c **** 
 1598              		.loc 1 326 43 view .LVU379
 1599 0114 38A3     		adr	r3, .L142
 1600 0116 D3E90023 		ldrd	r2, [r3]
 1601 011a FFF7FEFF 		bl	__aeabi_dmul
 1602              	.LVL226:
 326:Core/Src/main.c **** 
 1603              		.loc 1 326 50 view .LVU380
 1604 011e 38A3     		adr	r3, .L142+8
 1605 0120 D3E90023 		ldrd	r2, [r3]
 1606 0124 FFF7FEFF 		bl	__aeabi_dmul
 1607              	.LVL227:
 326:Core/Src/main.c **** 
 1608              		.loc 1 326 11 view .LVU381
 1609 0128 FFF7FEFF 		bl	__aeabi_d2f
 1610              	.LVL228:
 1611 012c 0546     		mov	r5, r0
 1612              	.LVL229:
 329:Core/Src/main.c ****     float distance2 = (speed1 + speed3) * 0.025;
 1613              		.loc 1 329 5 is_stmt 1 view .LVU382
 329:Core/Src/main.c ****     float distance2 = (speed1 + speed3) * 0.025;
 1614              		.loc 1 329 31 is_stmt 0 view .LVU383
 1615 012e 3946     		mov	r1, r7
 1616 0130 5846     		mov	r0, fp
 1617              	.LVL230:
 329:Core/Src/main.c ****     float distance2 = (speed1 + speed3) * 0.025;
 1618              		.loc 1 329 31 view .LVU384
 1619 0132 FFF7FEFF 		bl	__aeabi_fadd
 1620              	.LVL231:
 1621 0136 FFF7FEFF 		bl	__aeabi_f2d
 1622              	.LVL232:
 329:Core/Src/main.c ****     float distance2 = (speed1 + speed3) * 0.025;
 1623              		.loc 1 329 41 view .LVU385
 1624 013a 33A3     		adr	r3, .L142+16
 1625 013c D3E90023 		ldrd	r2, [r3]
 1626 0140 FFF7FEFF 		bl	__aeabi_dmul
 1627              	.LVL233:
 329:Core/Src/main.c ****     float distance2 = (speed1 + speed3) * 0.025;
 1628              		.loc 1 329 11 view .LVU386
 1629 0144 FFF7FEFF 		bl	__aeabi_d2f
 1630              	.LVL234:
 1631 0148 8046     		mov	r8, r0
 1632              	.LVL235:
 330:Core/Src/main.c ****     distance += sqrt(sq(distance1) + sq(distance2));
 1633              		.loc 1 330 5 is_stmt 1 view .LVU387
 330:Core/Src/main.c ****     distance += sqrt(sq(distance1) + sq(distance2));
 1634              		.loc 1 330 31 is_stmt 0 view .LVU388
 1635 014a 2946     		mov	r1, r5
 1636 014c 5046     		mov	r0, r10
 1637              	.LVL236:
 330:Core/Src/main.c ****     distance += sqrt(sq(distance1) + sq(distance2));
 1638              		.loc 1 330 31 view .LVU389
 1639 014e FFF7FEFF 		bl	__aeabi_fadd
 1640              	.LVL237:
 1641 0152 FFF7FEFF 		bl	__aeabi_f2d
ARM GAS  C:\Users\86183\AppData\Local\Temp\ccaDF7Ye.s 			page 39


 1642              	.LVL238:
 330:Core/Src/main.c ****     distance += sqrt(sq(distance1) + sq(distance2));
 1643              		.loc 1 330 41 view .LVU390
 1644 0156 2CA3     		adr	r3, .L142+16
 1645 0158 D3E90023 		ldrd	r2, [r3]
 1646 015c FFF7FEFF 		bl	__aeabi_dmul
 1647              	.LVL239:
 330:Core/Src/main.c ****     distance += sqrt(sq(distance1) + sq(distance2));
 1648              		.loc 1 330 11 view .LVU391
 1649 0160 FFF7FEFF 		bl	__aeabi_d2f
 1650              	.LVL240:
 1651 0164 0646     		mov	r6, r0
 1652              	.LVL241:
 331:Core/Src/main.c **** 
 1653              		.loc 1 331 5 is_stmt 1 view .LVU392
 331:Core/Src/main.c **** 
 1654              		.loc 1 331 22 is_stmt 0 view .LVU393
 1655 0166 4146     		mov	r1, r8
 1656 0168 4046     		mov	r0, r8
 1657              	.LVL242:
 331:Core/Src/main.c **** 
 1658              		.loc 1 331 22 view .LVU394
 1659 016a FFF7FEFF 		bl	__aeabi_fmul
 1660              	.LVL243:
 1661 016e 8046     		mov	r8, r0
 1662              	.LVL244:
 331:Core/Src/main.c **** 
 1663              		.loc 1 331 38 view .LVU395
 1664 0170 3146     		mov	r1, r6
 1665 0172 3046     		mov	r0, r6
 1666 0174 FFF7FEFF 		bl	__aeabi_fmul
 1667              	.LVL245:
 1668 0178 0146     		mov	r1, r0
 331:Core/Src/main.c **** 
 1669              		.loc 1 331 36 view .LVU396
 1670 017a 4046     		mov	r0, r8
 1671 017c FFF7FEFF 		bl	__aeabi_fadd
 1672              	.LVL246:
 331:Core/Src/main.c **** 
 1673              		.loc 1 331 17 view .LVU397
 1674 0180 FFF7FEFF 		bl	__aeabi_f2d
 1675              	.LVL247:
 1676 0184 FFF7FEFF 		bl	sqrt
 1677              	.LVL248:
 1678 0188 8046     		mov	r8, r0
 1679 018a 8946     		mov	r9, r1
 331:Core/Src/main.c **** 
 1680              		.loc 1 331 14 view .LVU398
 1681 018c 284E     		ldr	r6, .L142+56
 1682              	.LVL249:
 331:Core/Src/main.c **** 
 1683              		.loc 1 331 14 view .LVU399
 1684 018e 3068     		ldr	r0, [r6]	@ float
 1685 0190 FFF7FEFF 		bl	__aeabi_f2d
 1686              	.LVL250:
 1687 0194 4246     		mov	r2, r8
 1688 0196 4B46     		mov	r3, r9
ARM GAS  C:\Users\86183\AppData\Local\Temp\ccaDF7Ye.s 			page 40


 1689 0198 FFF7FEFF 		bl	__aeabi_dadd
 1690              	.LVL251:
 1691 019c FFF7FEFF 		bl	__aeabi_d2f
 1692              	.LVL252:
 1693 01a0 3060     		str	r0, [r6]	@ float
 333:Core/Src/main.c ****     int pwm1 = (int)PID(speed1, target[1], 1);
 1694              		.loc 1 333 5 is_stmt 1 view .LVU400
 333:Core/Src/main.c ****     int pwm1 = (int)PID(speed1, target[1], 1);
 1695              		.loc 1 333 21 is_stmt 0 view .LVU401
 1696 01a2 244E     		ldr	r6, .L142+60
 1697 01a4 2246     		mov	r2, r4
 1698 01a6 3168     		ldr	r1, [r6]	@ float
 1699 01a8 5846     		mov	r0, fp
 1700 01aa FFF7FEFF 		bl	PID
 1701              	.LVL253:
 333:Core/Src/main.c ****     int pwm1 = (int)PID(speed1, target[1], 1);
 1702              		.loc 1 333 9 view .LVU402
 1703 01ae FFF7FEFF 		bl	__aeabi_f2iz
 1704              	.LVL254:
 1705 01b2 0446     		mov	r4, r0
 1706              	.LVL255:
 334:Core/Src/main.c ****     int pwm2 = (int)PID(speed2, target[2], 2);
 1707              		.loc 1 334 5 is_stmt 1 view .LVU403
 334:Core/Src/main.c ****     int pwm2 = (int)PID(speed2, target[2], 2);
 1708              		.loc 1 334 21 is_stmt 0 view .LVU404
 1709 01b4 0122     		movs	r2, #1
 1710 01b6 7168     		ldr	r1, [r6, #4]	@ float
 1711 01b8 5046     		mov	r0, r10
 1712              	.LVL256:
 334:Core/Src/main.c ****     int pwm2 = (int)PID(speed2, target[2], 2);
 1713              		.loc 1 334 21 view .LVU405
 1714 01ba FFF7FEFF 		bl	PID
 1715              	.LVL257:
 334:Core/Src/main.c ****     int pwm2 = (int)PID(speed2, target[2], 2);
 1716              		.loc 1 334 9 view .LVU406
 1717 01be FFF7FEFF 		bl	__aeabi_f2iz
 1718              	.LVL258:
 1719 01c2 8046     		mov	r8, r0
 1720              	.LVL259:
 335:Core/Src/main.c ****     int pwm3 = (int)PID(speed3, target[3], 3);
 1721              		.loc 1 335 5 is_stmt 1 view .LVU407
 335:Core/Src/main.c ****     int pwm3 = (int)PID(speed3, target[3], 3);
 1722              		.loc 1 335 21 is_stmt 0 view .LVU408
 1723 01c4 0222     		movs	r2, #2
 1724 01c6 B168     		ldr	r1, [r6, #8]	@ float
 1725 01c8 3846     		mov	r0, r7
 1726              	.LVL260:
 335:Core/Src/main.c ****     int pwm3 = (int)PID(speed3, target[3], 3);
 1727              		.loc 1 335 21 view .LVU409
 1728 01ca FFF7FEFF 		bl	PID
 1729              	.LVL261:
 335:Core/Src/main.c ****     int pwm3 = (int)PID(speed3, target[3], 3);
 1730              		.loc 1 335 9 view .LVU410
 1731 01ce FFF7FEFF 		bl	__aeabi_f2iz
 1732              	.LVL262:
 1733 01d2 0746     		mov	r7, r0
 1734              	.LVL263:
ARM GAS  C:\Users\86183\AppData\Local\Temp\ccaDF7Ye.s 			page 41


 336:Core/Src/main.c **** 
 1735              		.loc 1 336 5 is_stmt 1 view .LVU411
 336:Core/Src/main.c **** 
 1736              		.loc 1 336 21 is_stmt 0 view .LVU412
 1737 01d4 0322     		movs	r2, #3
 1738 01d6 F168     		ldr	r1, [r6, #12]	@ float
 1739 01d8 2846     		mov	r0, r5
 1740              	.LVL264:
 336:Core/Src/main.c **** 
 1741              		.loc 1 336 21 view .LVU413
 1742 01da FFF7FEFF 		bl	PID
 1743              	.LVL265:
 336:Core/Src/main.c **** 
 1744              		.loc 1 336 9 view .LVU414
 1745 01de FFF7FEFF 		bl	__aeabi_f2iz
 1746              	.LVL266:
 338:Core/Src/main.c ****     __HAL_TIM_SetCompare(&htim1, TIM_CHANNEL_2, pwm1);
 1747              		.loc 1 338 5 is_stmt 1 view .LVU415
 1748 01e2 154B     		ldr	r3, .L142+64
 1749 01e4 1B68     		ldr	r3, [r3]
 1750 01e6 5C63     		str	r4, [r3, #52]
 339:Core/Src/main.c ****     __HAL_TIM_SetCompare(&htim1, TIM_CHANNEL_3, pwm2);
 1751              		.loc 1 339 5 view .LVU416
 1752 01e8 C3F83880 		str	r8, [r3, #56]
 340:Core/Src/main.c ****     __HAL_TIM_SetCompare(&htim1, TIM_CHANNEL_4, pwm3);
 1753              		.loc 1 340 5 view .LVU417
 1754 01ec DF63     		str	r7, [r3, #60]
 341:Core/Src/main.c ****   }
 1755              		.loc 1 341 5 view .LVU418
 1756 01ee 1864     		str	r0, [r3, #64]
 1757              	.LBE17:
 1758              		.loc 1 343 1 is_stmt 0 view .LVU419
 1759 01f0 0CE7     		b	.L134
 1760              	.L143:
 1761 01f2 00BFAFF3 		.align	3
 1761      0080
 1762              	.L142:
 1763 01f8 66666666 		.word	1717986918
 1764 01fc 66663440 		.word	1077175910
 1765 0200 B81E85EB 		.word	-343597384
 1766 0204 51B8E63F 		.word	1072085073
 1767 0208 9A999999 		.word	-1717986918
 1768 020c 9999993F 		.word	1067030937
 1769 0210 00000000 		.word	htim3
 1770 0214 00000000 		.word	htim4
 1771 0218 00000000 		.word	htim5
 1772 021c 00000000 		.word	htim8
 1773 0220 0000A041 		.word	1101004800
 1774 0224 00000544 		.word	1141178368
 1775 0228 00C00444 		.word	1141161984
 1776 022c 00800444 		.word	1141145600
 1777 0230 00000000 		.word	.LANCHOR0
 1778 0234 00000000 		.word	.LANCHOR9
 1779 0238 00000000 		.word	htim1
 1780              		.cfi_endproc
 1781              	.LFE76:
 1783              		.global	__aeabi_i2f
ARM GAS  C:\Users\86183\AppData\Local\Temp\ccaDF7Ye.s 			page 42


 1784              		.global	__aeabi_i2d
 1785              		.global	__aeabi_d2iz
 1786              		.section	.text.userGetCarPos,"ax",%progbits
 1787              		.align	1
 1788              		.global	userGetCarPos
 1789              		.syntax unified
 1790              		.thumb
 1791              		.thumb_func
 1792              		.fpu softvfp
 1794              	userGetCarPos:
 1795              	.LVL267:
 1796              	.LFB77:
 344:Core/Src/main.c **** struct MYCOORD userGetCarPos()
 345:Core/Src/main.c **** {
 1797              		.loc 1 345 1 is_stmt 1 view -0
 1798              		.cfi_startproc
 1799              		@ args = 0, pretend = 0, frame = 144
 1800              		@ frame_needed = 0, uses_anonymous_args = 0
 1801              		.loc 1 345 1 is_stmt 0 view .LVU421
 1802 0000 2DE9F04F 		push	{r4, r5, r6, r7, r8, r9, r10, fp, lr}
 1803              	.LCFI10:
 1804              		.cfi_def_cfa_offset 36
 1805              		.cfi_offset 4, -36
 1806              		.cfi_offset 5, -32
 1807              		.cfi_offset 6, -28
 1808              		.cfi_offset 7, -24
 1809              		.cfi_offset 8, -20
 1810              		.cfi_offset 9, -16
 1811              		.cfi_offset 10, -12
 1812              		.cfi_offset 11, -8
 1813              		.cfi_offset 14, -4
 1814 0004 A5B0     		sub	sp, sp, #148
 1815              	.LCFI11:
 1816              		.cfi_def_cfa_offset 184
 1817 0006 0590     		str	r0, [sp, #20]
 346:Core/Src/main.c ****   struct MYCOORD coord = {0, 0, 0};
 1818              		.loc 1 346 3 is_stmt 1 view .LVU422
 1819              		.loc 1 346 18 is_stmt 0 view .LVU423
 1820 0008 0023     		movs	r3, #0
 1821 000a 0360     		str	r3, [r0]	@ float
 1822 000c 4360     		str	r3, [r0, #4]	@ float
 1823 000e 8360     		str	r3, [r0, #8]	@ float
 347:Core/Src/main.c ****   if (getIsCarPosValid())
 1824              		.loc 1 347 3 is_stmt 1 view .LVU424
 1825              		.loc 1 347 7 is_stmt 0 view .LVU425
 1826 0010 FFF7FEFF 		bl	getIsCarPosValid
 1827              	.LVL268:
 1828              		.loc 1 347 6 view .LVU426
 1829 0014 B0B9     		cbnz	r0, .L163
 1830              	.LBB18:
 348:Core/Src/main.c ****   {
 349:Core/Src/main.c ****     coord.x = getCarPosX();
 350:Core/Src/main.c ****     coord.y = getCarPosY();
 351:Core/Src/main.c ****     return coord;
 352:Core/Src/main.c ****   }
 353:Core/Src/main.c ****   int x[3], y[3], beaconD[3], xBase, yBase, cnt = 0;
 354:Core/Src/main.c ****   float A[2], B[2], C[2], xTemp[2], yTemp[2], xRes = 0, yRes = 0;
ARM GAS  C:\Users\86183\AppData\Local\Temp\ccaDF7Ye.s 			page 43


 355:Core/Src/main.c ****   int rivalBeaconD[3];
 356:Core/Src/main.c ****   for (int i = 0; i < 3; i++)
 1831              		.loc 1 356 12 view .LVU427
 1832 0016 0024     		movs	r4, #0
 1833              	.L145:
 1834              	.LVL269:
 1835              		.loc 1 356 19 is_stmt 1 discriminator 1 view .LVU428
 1836              		.loc 1 356 3 is_stmt 0 discriminator 1 view .LVU429
 1837 0018 022C     		cmp	r4, #2
 1838 001a 1FDC     		bgt	.L164
 357:Core/Src/main.c ****   {
 358:Core/Src/main.c ****     x[i] = getMyBeaconPosX(i);
 1839              		.loc 1 358 5 is_stmt 1 discriminator 3 view .LVU430
 1840              		.loc 1 358 12 is_stmt 0 discriminator 3 view .LVU431
 1841 001c 2046     		mov	r0, r4
 1842 001e FFF7FEFF 		bl	getMyBeaconPosX
 1843              	.LVL270:
 1844              		.loc 1 358 10 discriminator 3 view .LVU432
 1845 0022 24AB     		add	r3, sp, #144
 1846 0024 03EB8405 		add	r5, r3, r4, lsl #2
 1847 0028 45F80C0C 		str	r0, [r5, #-12]
 359:Core/Src/main.c ****     y[i] = getMyBeaconPosY(i);
 1848              		.loc 1 359 5 is_stmt 1 discriminator 3 view .LVU433
 1849              		.loc 1 359 12 is_stmt 0 discriminator 3 view .LVU434
 1850 002c 2046     		mov	r0, r4
 1851 002e FFF7FEFF 		bl	getMyBeaconPosY
 1852              	.LVL271:
 1853              		.loc 1 359 10 discriminator 3 view .LVU435
 1854 0032 45F8180C 		str	r0, [r5, #-24]
 360:Core/Src/main.c ****     beaconD[i] = getDistanceOfMyBeacon(i);
 1855              		.loc 1 360 5 is_stmt 1 discriminator 3 view .LVU436
 1856              		.loc 1 360 18 is_stmt 0 discriminator 3 view .LVU437
 1857 0036 2046     		mov	r0, r4
 1858 0038 FFF7FEFF 		bl	getDistanceOfMyBeacon
 1859              	.LVL272:
 1860              		.loc 1 360 16 discriminator 3 view .LVU438
 1861 003c 45F8240C 		str	r0, [r5, #-36]
 356:Core/Src/main.c ****   {
 1862              		.loc 1 356 26 is_stmt 1 discriminator 3 view .LVU439
 356:Core/Src/main.c ****   {
 1863              		.loc 1 356 27 is_stmt 0 discriminator 3 view .LVU440
 1864 0040 0134     		adds	r4, r4, #1
 1865              	.LVL273:
 356:Core/Src/main.c ****   {
 1866              		.loc 1 356 27 discriminator 3 view .LVU441
 1867 0042 E9E7     		b	.L145
 1868              	.LVL274:
 1869              	.L163:
 356:Core/Src/main.c ****   {
 1870              		.loc 1 356 27 discriminator 3 view .LVU442
 1871              	.LBE18:
 349:Core/Src/main.c ****     coord.y = getCarPosY();
 1872              		.loc 1 349 5 is_stmt 1 view .LVU443
 349:Core/Src/main.c ****     coord.y = getCarPosY();
 1873              		.loc 1 349 15 is_stmt 0 view .LVU444
 1874 0044 FFF7FEFF 		bl	getCarPosX
 1875              	.LVL275:
ARM GAS  C:\Users\86183\AppData\Local\Temp\ccaDF7Ye.s 			page 44


 349:Core/Src/main.c ****     coord.y = getCarPosY();
 1876              		.loc 1 349 13 view .LVU445
 1877 0048 FFF7FEFF 		bl	__aeabi_ui2f
 1878              	.LVL276:
 1879 004c 059C     		ldr	r4, [sp, #20]
 1880 004e 2060     		str	r0, [r4]	@ float
 350:Core/Src/main.c ****     return coord;
 1881              		.loc 1 350 5 is_stmt 1 view .LVU446
 350:Core/Src/main.c ****     return coord;
 1882              		.loc 1 350 15 is_stmt 0 view .LVU447
 1883 0050 FFF7FEFF 		bl	getCarPosY
 1884              	.LVL277:
 350:Core/Src/main.c ****     return coord;
 1885              		.loc 1 350 13 view .LVU448
 1886 0054 FFF7FEFF 		bl	__aeabi_ui2f
 1887              	.LVL278:
 1888 0058 6060     		str	r0, [r4, #4]	@ float
 351:Core/Src/main.c ****   }
 1889              		.loc 1 351 5 is_stmt 1 view .LVU449
 351:Core/Src/main.c ****   }
 1890              		.loc 1 351 12 is_stmt 0 view .LVU450
 1891 005a 03E2     		b	.L144
 1892              	.LVL279:
 1893              	.L164:
 1894              	.LBB19:
 361:Core/Src/main.c ****   }
 362:Core/Src/main.c ****   for (int i = 0; i < RivalBeaconNum; i++)
 1895              		.loc 1 362 12 view .LVU451
 1896 005c 0024     		movs	r4, #0
 1897              	.LVL280:
 1898              	.L148:
 1899              		.loc 1 362 19 is_stmt 1 discriminator 1 view .LVU452
 1900              		.loc 1 362 21 is_stmt 0 discriminator 1 view .LVU453
 1901 005e 9B4B     		ldr	r3, .L170
 1902 0060 1B68     		ldr	r3, [r3]
 1903              		.loc 1 362 3 discriminator 1 view .LVU454
 1904 0062 A342     		cmp	r3, r4
 1905 0064 0EDD     		ble	.L165
 363:Core/Src/main.c ****     rivalBeaconD[i] = getDistanceOfRivalBeacon(RivalBeacon[i].id);
 1906              		.loc 1 363 5 is_stmt 1 discriminator 3 view .LVU455
 1907              		.loc 1 363 23 is_stmt 0 discriminator 3 view .LVU456
 1908 0066 04EB4402 		add	r2, r4, r4, lsl #1
 1909 006a 994B     		ldr	r3, .L170+4
 1910 006c 03EB8203 		add	r3, r3, r2, lsl #2
 1911 0070 9868     		ldr	r0, [r3, #8]
 1912 0072 FFF7FEFF 		bl	getDistanceOfRivalBeacon
 1913              	.LVL281:
 1914              		.loc 1 363 21 discriminator 3 view .LVU457
 1915 0076 24AB     		add	r3, sp, #144
 1916 0078 03EB8403 		add	r3, r3, r4, lsl #2
 1917 007c 43F8580C 		str	r0, [r3, #-88]
 362:Core/Src/main.c ****     rivalBeaconD[i] = getDistanceOfRivalBeacon(RivalBeacon[i].id);
 1918              		.loc 1 362 39 is_stmt 1 discriminator 3 view .LVU458
 362:Core/Src/main.c ****     rivalBeaconD[i] = getDistanceOfRivalBeacon(RivalBeacon[i].id);
 1919              		.loc 1 362 40 is_stmt 0 discriminator 3 view .LVU459
 1920 0080 0134     		adds	r4, r4, #1
 1921              	.LVL282:
ARM GAS  C:\Users\86183\AppData\Local\Temp\ccaDF7Ye.s 			page 45


 362:Core/Src/main.c ****     rivalBeaconD[i] = getDistanceOfRivalBeacon(RivalBeacon[i].id);
 1922              		.loc 1 362 40 discriminator 3 view .LVU460
 1923 0082 ECE7     		b	.L148
 1924              	.L165:
 362:Core/Src/main.c ****     rivalBeaconD[i] = getDistanceOfRivalBeacon(RivalBeacon[i].id);
 1925              		.loc 1 362 40 discriminator 3 view .LVU461
 1926              	.LBE19:
 364:Core/Src/main.c ****   A[0] = x[1] - x[0];
 1927              		.loc 1 364 3 is_stmt 1 view .LVU462
 1928              		.loc 1 364 11 is_stmt 0 view .LVU463
 1929 0084 229D     		ldr	r5, [sp, #136]
 1930 0086 0695     		str	r5, [sp, #24]
 1931              		.loc 1 364 18 view .LVU464
 1932 0088 DDF88490 		ldr	r9, [sp, #132]
 1933              		.loc 1 364 8 view .LVU465
 1934 008c A5EB0900 		sub	r0, r5, r9
 1935 0090 FFF7FEFF 		bl	__aeabi_i2f
 1936              	.LVL283:
 1937 0094 0646     		mov	r6, r0
 1938 0096 1990     		str	r0, [sp, #100]	@ float
 365:Core/Src/main.c ****   B[0] = y[1] - y[0];
 1939              		.loc 1 365 3 is_stmt 1 view .LVU466
 1940              		.loc 1 365 11 is_stmt 0 view .LVU467
 1941 0098 1F9B     		ldr	r3, [sp, #124]
 1942              		.loc 1 365 18 view .LVU468
 1943 009a DDF878B0 		ldr	fp, [sp, #120]
 1944              		.loc 1 365 8 view .LVU469
 1945 009e 0493     		str	r3, [sp, #16]
 1946 00a0 A3EB0B00 		sub	r0, r3, fp
 1947 00a4 FFF7FEFF 		bl	__aeabi_i2f
 1948              	.LVL284:
 1949 00a8 0446     		mov	r4, r0
 1950              	.LVL285:
 1951              		.loc 1 365 8 view .LVU470
 1952 00aa 1790     		str	r0, [sp, #92]	@ float
 366:Core/Src/main.c ****   A[1] = x[2] - x[0];
 1953              		.loc 1 366 3 is_stmt 1 view .LVU471
 1954              		.loc 1 366 11 is_stmt 0 view .LVU472
 1955 00ac 239A     		ldr	r2, [sp, #140]
 1956              		.loc 1 366 8 view .LVU473
 1957 00ae 0892     		str	r2, [sp, #32]
 1958 00b0 A2EB0900 		sub	r0, r2, r9
 1959 00b4 FFF7FEFF 		bl	__aeabi_i2f
 1960              	.LVL286:
 1961 00b8 0190     		str	r0, [sp, #4]	@ float
 1962 00ba 1A90     		str	r0, [sp, #104]	@ float
 367:Core/Src/main.c ****   B[1] = y[2] - y[0];
 1963              		.loc 1 367 3 is_stmt 1 view .LVU474
 1964              		.loc 1 367 11 is_stmt 0 view .LVU475
 1965 00bc 2099     		ldr	r1, [sp, #128]
 1966              		.loc 1 367 8 view .LVU476
 1967 00be 0991     		str	r1, [sp, #36]
 1968 00c0 A1EB0B00 		sub	r0, r1, fp
 1969 00c4 FFF7FEFF 		bl	__aeabi_i2f
 1970              	.LVL287:
 1971 00c8 0290     		str	r0, [sp, #8]	@ float
 1972 00ca 1890     		str	r0, [sp, #96]	@ float
ARM GAS  C:\Users\86183\AppData\Local\Temp\ccaDF7Ye.s 			page 46


 368:Core/Src/main.c ****   xTemp[0] = (x[0] + x[1]) / 2 - A[0] * (sq(beaconD[1]) - sq(beaconD[0])) / (sq(A[0]) + sq(B[0])) /
 1973              		.loc 1 368 3 is_stmt 1 view .LVU477
 1974              		.loc 1 368 20 is_stmt 0 view .LVU478
 1975 00cc 4D44     		add	r5, r5, r9
 1976              		.loc 1 368 28 view .LVU479
 1977 00ce 05EBD575 		add	r5, r5, r5, lsr #31
 1978 00d2 6D10     		asrs	r5, r5, #1
 1979              		.loc 1 368 42 view .LVU480
 1980 00d4 1C98     		ldr	r0, [sp, #112]
 1981 00d6 0790     		str	r0, [sp, #28]
 1982 00d8 00FB00F0 		mul	r0, r0, r0
 1983              		.loc 1 368 59 view .LVU481
 1984 00dc DDF86CA0 		ldr	r10, [sp, #108]
 1985 00e0 0AFB0AF8 		mul	r8, r10, r10
 1986              		.loc 1 368 39 view .LVU482
 1987 00e4 A0EB0800 		sub	r0, r0, r8
 1988 00e8 FFF7FEFF 		bl	__aeabi_i2f
 1989              	.LVL288:
 1990 00ec 0746     		mov	r7, r0
 1991 00ee 0146     		mov	r1, r0
 1992 00f0 3046     		mov	r0, r6
 1993 00f2 FFF7FEFF 		bl	__aeabi_fmul
 1994              	.LVL289:
 1995 00f6 0A90     		str	r0, [sp, #40]	@ float
 1996              		.loc 1 368 78 view .LVU483
 1997 00f8 3146     		mov	r1, r6
 1998 00fa 0396     		str	r6, [sp, #12]	@ float
 1999 00fc 3046     		mov	r0, r6
 2000 00fe FFF7FEFF 		bl	__aeabi_fmul
 2001              	.LVL290:
 2002 0102 0646     		mov	r6, r0
 2003              		.loc 1 368 89 view .LVU484
 2004 0104 2146     		mov	r1, r4
 2005 0106 2046     		mov	r0, r4
 2006 0108 FFF7FEFF 		bl	__aeabi_fmul
 2007              	.LVL291:
 2008 010c 0146     		mov	r1, r0
 2009              		.loc 1 368 87 view .LVU485
 2010 010e 3046     		mov	r0, r6
 2011 0110 FFF7FEFF 		bl	__aeabi_fadd
 2012              	.LVL292:
 2013 0114 0646     		mov	r6, r0
 2014              		.loc 1 368 75 view .LVU486
 2015 0116 0146     		mov	r1, r0
 2016 0118 0A98     		ldr	r0, [sp, #40]	@ float
 2017 011a FFF7FEFF 		bl	__aeabi_fdiv
 2018              	.LVL293:
 2019              		.loc 1 368 99 view .LVU487
 2020 011e 4FF07C51 		mov	r1, #1056964608
 2021 0122 FFF7FEFF 		bl	__aeabi_fmul
 2022              	.LVL294:
 2023 0126 0A90     		str	r0, [sp, #40]	@ float
 2024              		.loc 1 368 32 view .LVU488
 2025 0128 2846     		mov	r0, r5
 2026 012a FFF7FEFF 		bl	__aeabi_i2f
 2027              	.LVL295:
 2028 012e 0A99     		ldr	r1, [sp, #40]	@ float
ARM GAS  C:\Users\86183\AppData\Local\Temp\ccaDF7Ye.s 			page 47


 2029 0130 FFF7FEFF 		bl	__aeabi_fsub
 2030              	.LVL296:
 2031              		.loc 1 368 12 view .LVU489
 2032 0134 0B90     		str	r0, [sp, #44]	@ float
 2033 0136 1390     		str	r0, [sp, #76]	@ float
 369:Core/Src/main.c ****   yTemp[0] = (y[0] + y[1]) / 2 - B[0] * (sq(beaconD[1]) - sq(beaconD[0])) / (sq(A[0]) + sq(B[0])) /
 2034              		.loc 1 369 3 is_stmt 1 view .LVU490
 2035              		.loc 1 369 20 is_stmt 0 view .LVU491
 2036 0138 049D     		ldr	r5, [sp, #16]
 2037 013a 5D44     		add	r5, r5, fp
 2038              		.loc 1 369 28 view .LVU492
 2039 013c 05EBD575 		add	r5, r5, r5, lsr #31
 2040 0140 6D10     		asrs	r5, r5, #1
 2041              		.loc 1 369 39 view .LVU493
 2042 0142 3946     		mov	r1, r7
 2043 0144 2046     		mov	r0, r4
 2044 0146 FFF7FEFF 		bl	__aeabi_fmul
 2045              	.LVL297:
 2046              		.loc 1 369 75 view .LVU494
 2047 014a 3146     		mov	r1, r6
 2048 014c FFF7FEFF 		bl	__aeabi_fdiv
 2049              	.LVL298:
 2050              		.loc 1 369 99 view .LVU495
 2051 0150 4FF07C51 		mov	r1, #1056964608
 2052 0154 FFF7FEFF 		bl	__aeabi_fmul
 2053              	.LVL299:
 2054 0158 0646     		mov	r6, r0
 2055              		.loc 1 369 32 view .LVU496
 2056 015a 2846     		mov	r0, r5
 2057 015c FFF7FEFF 		bl	__aeabi_i2f
 2058              	.LVL300:
 2059 0160 3146     		mov	r1, r6
 2060 0162 FFF7FEFF 		bl	__aeabi_fsub
 2061              	.LVL301:
 2062 0166 0746     		mov	r7, r0
 2063              		.loc 1 369 12 view .LVU497
 2064 0168 1190     		str	r0, [sp, #68]	@ float
 370:Core/Src/main.c ****   xTemp[1] = (x[0] + x[2]) / 2 - A[1] * (sq(beaconD[2]) - sq(beaconD[0])) / (sq(A[1]) + sq(B[1])) /
 2065              		.loc 1 370 3 is_stmt 1 view .LVU498
 2066              		.loc 1 370 20 is_stmt 0 view .LVU499
 2067 016a 089D     		ldr	r5, [sp, #32]
 2068 016c 4D44     		add	r5, r9, r5
 2069              		.loc 1 370 28 view .LVU500
 2070 016e 05EBD575 		add	r5, r5, r5, lsr #31
 2071 0172 6D10     		asrs	r5, r5, #1
 2072              		.loc 1 370 42 view .LVU501
 2073 0174 DDF874E0 		ldr	lr, [sp, #116]
 2074 0178 CDF830E0 		str	lr, [sp, #48]
 2075 017c 0EFB0EF0 		mul	r0, lr, lr
 2076              		.loc 1 370 39 view .LVU502
 2077 0180 A0EB0800 		sub	r0, r0, r8
 2078 0184 FFF7FEFF 		bl	__aeabi_i2f
 2079              	.LVL302:
 2080 0188 0A90     		str	r0, [sp, #40]	@ float
 2081 018a 0146     		mov	r1, r0
 2082 018c 019E     		ldr	r6, [sp, #4]	@ float
 2083 018e 3046     		mov	r0, r6
ARM GAS  C:\Users\86183\AppData\Local\Temp\ccaDF7Ye.s 			page 48


 2084 0190 FFF7FEFF 		bl	__aeabi_fmul
 2085              	.LVL303:
 2086 0194 8046     		mov	r8, r0
 2087              		.loc 1 370 78 view .LVU503
 2088 0196 3146     		mov	r1, r6
 2089 0198 3046     		mov	r0, r6
 2090 019a FFF7FEFF 		bl	__aeabi_fmul
 2091              	.LVL304:
 2092 019e 0646     		mov	r6, r0
 2093              		.loc 1 370 89 view .LVU504
 2094 01a0 029A     		ldr	r2, [sp, #8]	@ float
 2095 01a2 1146     		mov	r1, r2
 2096 01a4 1046     		mov	r0, r2
 2097 01a6 FFF7FEFF 		bl	__aeabi_fmul
 2098              	.LVL305:
 2099 01aa 0146     		mov	r1, r0
 2100              		.loc 1 370 87 view .LVU505
 2101 01ac 3046     		mov	r0, r6
 2102 01ae FFF7FEFF 		bl	__aeabi_fadd
 2103              	.LVL306:
 2104 01b2 0646     		mov	r6, r0
 2105              		.loc 1 370 75 view .LVU506
 2106 01b4 0146     		mov	r1, r0
 2107 01b6 4046     		mov	r0, r8
 2108 01b8 FFF7FEFF 		bl	__aeabi_fdiv
 2109              	.LVL307:
 2110              		.loc 1 370 99 view .LVU507
 2111 01bc 4FF07C51 		mov	r1, #1056964608
 2112 01c0 FFF7FEFF 		bl	__aeabi_fmul
 2113              	.LVL308:
 2114 01c4 8046     		mov	r8, r0
 2115              		.loc 1 370 32 view .LVU508
 2116 01c6 2846     		mov	r0, r5
 2117 01c8 FFF7FEFF 		bl	__aeabi_i2f
 2118              	.LVL309:
 2119 01cc 4146     		mov	r1, r8
 2120 01ce FFF7FEFF 		bl	__aeabi_fsub
 2121              	.LVL310:
 2122 01d2 8046     		mov	r8, r0
 2123              		.loc 1 370 12 view .LVU509
 2124 01d4 1490     		str	r0, [sp, #80]	@ float
 371:Core/Src/main.c ****   yTemp[1] = (y[0] + y[2]) / 2 - B[1] * (sq(beaconD[2]) - sq(beaconD[0])) / (sq(A[1]) + sq(B[1])) /
 2125              		.loc 1 371 3 is_stmt 1 view .LVU510
 2126              		.loc 1 371 20 is_stmt 0 view .LVU511
 2127 01d6 099D     		ldr	r5, [sp, #36]
 2128 01d8 5D44     		add	r5, fp, r5
 2129              		.loc 1 371 28 view .LVU512
 2130 01da 05EBD575 		add	r5, r5, r5, lsr #31
 2131 01de 6D10     		asrs	r5, r5, #1
 2132              		.loc 1 371 39 view .LVU513
 2133 01e0 0A99     		ldr	r1, [sp, #40]	@ float
 2134 01e2 0298     		ldr	r0, [sp, #8]	@ float
 2135 01e4 FFF7FEFF 		bl	__aeabi_fmul
 2136              	.LVL311:
 2137              		.loc 1 371 75 view .LVU514
 2138 01e8 3146     		mov	r1, r6
 2139 01ea FFF7FEFF 		bl	__aeabi_fdiv
ARM GAS  C:\Users\86183\AppData\Local\Temp\ccaDF7Ye.s 			page 49


 2140              	.LVL312:
 2141              		.loc 1 371 99 view .LVU515
 2142 01ee 4FF07C51 		mov	r1, #1056964608
 2143 01f2 FFF7FEFF 		bl	__aeabi_fmul
 2144              	.LVL313:
 2145 01f6 0646     		mov	r6, r0
 2146              		.loc 1 371 32 view .LVU516
 2147 01f8 2846     		mov	r0, r5
 2148 01fa FFF7FEFF 		bl	__aeabi_i2f
 2149              	.LVL314:
 2150 01fe 3146     		mov	r1, r6
 2151 0200 FFF7FEFF 		bl	__aeabi_fsub
 2152              	.LVL315:
 2153 0204 0646     		mov	r6, r0
 2154              		.loc 1 371 12 view .LVU517
 2155 0206 1290     		str	r0, [sp, #72]	@ float
 372:Core/Src/main.c ****   C[0] = A[0] * xTemp[0] + B[0] * yTemp[0];
 2156              		.loc 1 372 3 is_stmt 1 view .LVU518
 2157              		.loc 1 372 15 is_stmt 0 view .LVU519
 2158 0208 0B99     		ldr	r1, [sp, #44]	@ float
 2159 020a 0398     		ldr	r0, [sp, #12]	@ float
 2160 020c FFF7FEFF 		bl	__aeabi_fmul
 2161              	.LVL316:
 2162 0210 0546     		mov	r5, r0
 2163              		.loc 1 372 33 view .LVU520
 2164 0212 3946     		mov	r1, r7
 2165 0214 2046     		mov	r0, r4
 2166 0216 FFF7FEFF 		bl	__aeabi_fmul
 2167              	.LVL317:
 2168 021a 0146     		mov	r1, r0
 2169              		.loc 1 372 26 view .LVU521
 2170 021c 2846     		mov	r0, r5
 2171 021e FFF7FEFF 		bl	__aeabi_fadd
 2172              	.LVL318:
 2173 0222 0546     		mov	r5, r0
 2174              		.loc 1 372 8 view .LVU522
 2175 0224 1590     		str	r0, [sp, #84]	@ float
 373:Core/Src/main.c ****   C[1] = A[1] * xTemp[1] + B[1] * yTemp[1];
 2176              		.loc 1 373 3 is_stmt 1 view .LVU523
 2177              		.loc 1 373 15 is_stmt 0 view .LVU524
 2178 0226 4146     		mov	r1, r8
 2179 0228 0198     		ldr	r0, [sp, #4]	@ float
 2180 022a FFF7FEFF 		bl	__aeabi_fmul
 2181              	.LVL319:
 2182 022e 0746     		mov	r7, r0
 2183              		.loc 1 373 33 view .LVU525
 2184 0230 3146     		mov	r1, r6
 2185 0232 DDF80880 		ldr	r8, [sp, #8]	@ float
 2186 0236 4046     		mov	r0, r8
 2187 0238 FFF7FEFF 		bl	__aeabi_fmul
 2188              	.LVL320:
 2189 023c 0146     		mov	r1, r0
 2190              		.loc 1 373 26 view .LVU526
 2191 023e 3846     		mov	r0, r7
 2192 0240 FFF7FEFF 		bl	__aeabi_fadd
 2193              	.LVL321:
 2194 0244 0646     		mov	r6, r0
ARM GAS  C:\Users\86183\AppData\Local\Temp\ccaDF7Ye.s 			page 50


 2195              		.loc 1 373 8 view .LVU527
 2196 0246 1690     		str	r0, [sp, #88]	@ float
 374:Core/Src/main.c ****   xBase = (C[0] * B[1] - C[1] * B[0]) / (A[0] * B[1] - A[1] * B[0]);
 2197              		.loc 1 374 3 is_stmt 1 view .LVU528
 2198              		.loc 1 374 17 is_stmt 0 view .LVU529
 2199 0248 2946     		mov	r1, r5
 2200 024a 4046     		mov	r0, r8
 2201 024c FFF7FEFF 		bl	__aeabi_fmul
 2202              	.LVL322:
 2203 0250 0746     		mov	r7, r0
 2204              		.loc 1 374 31 view .LVU530
 2205 0252 3146     		mov	r1, r6
 2206 0254 2046     		mov	r0, r4
 2207 0256 FFF7FEFF 		bl	__aeabi_fmul
 2208              	.LVL323:
 2209 025a 0146     		mov	r1, r0
 2210              		.loc 1 374 24 view .LVU531
 2211 025c 3846     		mov	r0, r7
 2212 025e FFF7FEFF 		bl	__aeabi_fsub
 2213              	.LVL324:
 2214 0262 0746     		mov	r7, r0
 2215              		.loc 1 374 47 view .LVU532
 2216 0264 4146     		mov	r1, r8
 2217 0266 0398     		ldr	r0, [sp, #12]	@ float
 2218 0268 FFF7FEFF 		bl	__aeabi_fmul
 2219              	.LVL325:
 2220 026c 8046     		mov	r8, r0
 2221              		.loc 1 374 61 view .LVU533
 2222 026e 0199     		ldr	r1, [sp, #4]	@ float
 2223 0270 2046     		mov	r0, r4
 2224 0272 FFF7FEFF 		bl	__aeabi_fmul
 2225              	.LVL326:
 2226 0276 0146     		mov	r1, r0
 2227              		.loc 1 374 54 view .LVU534
 2228 0278 4046     		mov	r0, r8
 2229 027a FFF7FEFF 		bl	__aeabi_fsub
 2230              	.LVL327:
 2231 027e 0446     		mov	r4, r0
 2232              		.loc 1 374 39 view .LVU535
 2233 0280 0146     		mov	r1, r0
 2234 0282 3846     		mov	r0, r7
 2235 0284 FFF7FEFF 		bl	__aeabi_fdiv
 2236              	.LVL328:
 2237              		.loc 1 374 9 view .LVU536
 2238 0288 FFF7FEFF 		bl	__aeabi_f2iz
 2239              	.LVL329:
 2240 028c 0746     		mov	r7, r0
 2241              	.LVL330:
 375:Core/Src/main.c ****   yBase = (C[1] * A[0] - C[0] * A[1]) / (A[0] * B[1] - A[1] * B[0]);
 2242              		.loc 1 375 3 is_stmt 1 view .LVU537
 2243              		.loc 1 375 17 is_stmt 0 view .LVU538
 2244 028e 3146     		mov	r1, r6
 2245 0290 0398     		ldr	r0, [sp, #12]	@ float
 2246              	.LVL331:
 2247              		.loc 1 375 17 view .LVU539
 2248 0292 FFF7FEFF 		bl	__aeabi_fmul
 2249              	.LVL332:
ARM GAS  C:\Users\86183\AppData\Local\Temp\ccaDF7Ye.s 			page 51


 2250 0296 0646     		mov	r6, r0
 2251              		.loc 1 375 31 view .LVU540
 2252 0298 2946     		mov	r1, r5
 2253 029a 0198     		ldr	r0, [sp, #4]	@ float
 2254 029c FFF7FEFF 		bl	__aeabi_fmul
 2255              	.LVL333:
 2256 02a0 0146     		mov	r1, r0
 2257              		.loc 1 375 24 view .LVU541
 2258 02a2 3046     		mov	r0, r6
 2259 02a4 FFF7FEFF 		bl	__aeabi_fsub
 2260              	.LVL334:
 2261              		.loc 1 375 39 view .LVU542
 2262 02a8 2146     		mov	r1, r4
 2263 02aa FFF7FEFF 		bl	__aeabi_fdiv
 2264              	.LVL335:
 2265              		.loc 1 375 9 view .LVU543
 2266 02ae FFF7FEFF 		bl	__aeabi_f2iz
 2267              	.LVL336:
 2268 02b2 0646     		mov	r6, r0
 2269              	.LVL337:
 376:Core/Src/main.c ****   for (int i = -1; i < 2; i++)
 2270              		.loc 1 376 3 is_stmt 1 view .LVU544
 2271              	.LBB20:
 2272              		.loc 1 376 8 view .LVU545
 2273              		.loc 1 376 12 is_stmt 0 view .LVU546
 2274 02b4 4FF0FF35 		mov	r5, #-1
 2275              	.LBE20:
 354:Core/Src/main.c ****   int rivalBeaconD[3];
 2276              		.loc 1 354 57 view .LVU547
 2277 02b8 0023     		movs	r3, #0
 2278 02ba 0393     		str	r3, [sp, #12]	@ float
 354:Core/Src/main.c ****   int rivalBeaconD[3];
 2279              		.loc 1 354 47 view .LVU548
 2280 02bc 0293     		str	r3, [sp, #8]	@ float
 353:Core/Src/main.c ****   float A[2], B[2], C[2], xTemp[2], yTemp[2], xRes = 0, yRes = 0;
 2281              		.loc 1 353 45 view .LVU549
 2282 02be 0023     		movs	r3, #0
 2283 02c0 0193     		str	r3, [sp, #4]
 2284 02c2 5346     		mov	r3, r10
 2285 02c4 DA46     		mov	r10, fp
 2286 02c6 9B46     		mov	fp, r3
 2287              	.LBB27:
 2288              		.loc 1 376 3 view .LVU550
 2289 02c8 A7E0     		b	.L150
 2290              	.L171:
 2291 02ca 00BF     		.align	2
 2292              	.L170:
 2293 02cc 00000000 		.word	.LANCHOR11
 2294 02d0 00000000 		.word	.LANCHOR10
 2295              	.LVL338:
 2296              	.L153:
 2297              	.LBB21:
 2298              	.LBB22:
 2299              	.LBB23:
 377:Core/Src/main.c ****     for (int j = -1; j < 2; j++)
 378:Core/Src/main.c ****       if ((int)sqrt(sq(xBase - x[0] + i) + sq(yBase - y[0] + j)) == beaconD[0] && (int)sqrt(sq(xBas
 379:Core/Src/main.c ****       {
ARM GAS  C:\Users\86183\AppData\Local\Temp\ccaDF7Ye.s 			page 52


 380:Core/Src/main.c ****         int flag = 1;
 381:Core/Src/main.c ****         for (int k = 0; k < RivalBeaconNum; k++)
 2300              		.loc 1 381 45 is_stmt 1 discriminator 2 view .LVU551
 2301              		.loc 1 381 46 is_stmt 0 discriminator 2 view .LVU552
 2302 02d4 09F10109 		add	r9, r9, #1
 2303              	.LVL339:
 2304              	.L152:
 2305              		.loc 1 381 25 is_stmt 1 discriminator 1 view .LVU553
 2306              		.loc 1 381 27 is_stmt 0 discriminator 1 view .LVU554
 2307 02d8 694B     		ldr	r3, .L172
 2308 02da 1B68     		ldr	r3, [r3]
 2309              		.loc 1 381 9 discriminator 1 view .LVU555
 2310 02dc 4B45     		cmp	r3, r9
 2311 02de 3DDD     		ble	.L166
 382:Core/Src/main.c ****           if ((int)sqrt(sq(xBase - RivalBeacon[k].x + i) + sq(yBase - RivalBeacon[k].y + j)) != riv
 2312              		.loc 1 382 11 is_stmt 1 view .LVU556
 2313              		.loc 1 382 25 is_stmt 0 view .LVU557
 2314 02e0 684B     		ldr	r3, .L172+4
 2315 02e2 09EB4902 		add	r2, r9, r9, lsl #1
 2316 02e6 03EB820A 		add	r10, r3, r2, lsl #2
 2317 02ea 53F82280 		ldr	r8, [r3, r2, lsl #2]	@ float
 2318 02ee 3846     		mov	r0, r7
 2319 02f0 FFF7FEFF 		bl	__aeabi_i2f
 2320              	.LVL340:
 2321 02f4 4146     		mov	r1, r8
 2322 02f6 FFF7FEFF 		bl	__aeabi_fsub
 2323              	.LVL341:
 2324 02fa 8046     		mov	r8, r0
 2325 02fc 2846     		mov	r0, r5
 2326 02fe FFF7FEFF 		bl	__aeabi_i2f
 2327              	.LVL342:
 2328 0302 4146     		mov	r1, r8
 2329 0304 FFF7FEFF 		bl	__aeabi_fadd
 2330              	.LVL343:
 2331 0308 0146     		mov	r1, r0
 2332 030a FFF7FEFF 		bl	__aeabi_fmul
 2333              	.LVL344:
 2334 030e 8046     		mov	r8, r0
 2335              		.loc 1 382 60 view .LVU558
 2336 0310 DAF804A0 		ldr	r10, [r10, #4]	@ float
 2337 0314 3046     		mov	r0, r6
 2338 0316 FFF7FEFF 		bl	__aeabi_i2f
 2339              	.LVL345:
 2340 031a 5146     		mov	r1, r10
 2341 031c FFF7FEFF 		bl	__aeabi_fsub
 2342              	.LVL346:
 2343 0320 8246     		mov	r10, r0
 2344 0322 2046     		mov	r0, r4
 2345 0324 FFF7FEFF 		bl	__aeabi_i2f
 2346              	.LVL347:
 2347 0328 5146     		mov	r1, r10
 2348 032a FFF7FEFF 		bl	__aeabi_fadd
 2349              	.LVL348:
 2350 032e 0146     		mov	r1, r0
 2351 0330 FFF7FEFF 		bl	__aeabi_fmul
 2352              	.LVL349:
 2353 0334 0146     		mov	r1, r0
ARM GAS  C:\Users\86183\AppData\Local\Temp\ccaDF7Ye.s 			page 53


 2354              		.loc 1 382 58 view .LVU559
 2355 0336 4046     		mov	r0, r8
 2356 0338 FFF7FEFF 		bl	__aeabi_fadd
 2357              	.LVL350:
 2358              		.loc 1 382 20 view .LVU560
 2359 033c FFF7FEFF 		bl	__aeabi_f2d
 2360              	.LVL351:
 2361 0340 FFF7FEFF 		bl	sqrt
 2362              	.LVL352:
 2363              		.loc 1 382 15 view .LVU561
 2364 0344 FFF7FEFF 		bl	__aeabi_d2iz
 2365              	.LVL353:
 2366              		.loc 1 382 109 view .LVU562
 2367 0348 24AB     		add	r3, sp, #144
 2368 034a 03EB8903 		add	r3, r3, r9, lsl #2
 2369 034e 53F8583C 		ldr	r3, [r3, #-88]
 2370              		.loc 1 382 14 view .LVU563
 2371 0352 9842     		cmp	r0, r3
 2372 0354 BED0     		beq	.L153
 383:Core/Src/main.c ****             flag = 0;
 2373              		.loc 1 383 18 view .LVU564
 2374 0356 0023     		movs	r3, #0
 2375 0358 0A93     		str	r3, [sp, #40]
 2376              	.LVL354:
 2377              		.loc 1 383 18 view .LVU565
 2378 035a BBE7     		b	.L153
 2379              	.LVL355:
 2380              	.L166:
 2381              		.loc 1 383 18 view .LVU566
 2382              	.LBE23:
 384:Core/Src/main.c ****         if (flag)
 2383              		.loc 1 384 12 view .LVU567
 2384 035c DDF82C80 		ldr	r8, [sp, #44]
 2385 0360 DDF834A0 		ldr	r10, [sp, #52]
 2386              		.loc 1 384 9 is_stmt 1 view .LVU568
 2387              		.loc 1 384 12 is_stmt 0 view .LVU569
 2388 0364 0A9B     		ldr	r3, [sp, #40]
 2389 0366 93B1     		cbz	r3, .L151
 385:Core/Src/main.c ****           xRes += i, yRes += j, cnt++;
 2390              		.loc 1 385 11 is_stmt 1 view .LVU570
 2391              		.loc 1 385 16 is_stmt 0 view .LVU571
 2392 0368 2846     		mov	r0, r5
 2393 036a FFF7FEFF 		bl	__aeabi_i2f
 2394              	.LVL356:
 2395 036e 0146     		mov	r1, r0
 2396 0370 0298     		ldr	r0, [sp, #8]	@ float
 2397 0372 FFF7FEFF 		bl	__aeabi_fadd
 2398              	.LVL357:
 2399 0376 0290     		str	r0, [sp, #8]	@ float
 2400              	.LVL358:
 2401              		.loc 1 385 27 view .LVU572
 2402 0378 2046     		mov	r0, r4
 2403              	.LVL359:
 2404              		.loc 1 385 27 view .LVU573
 2405 037a FFF7FEFF 		bl	__aeabi_i2f
 2406              	.LVL360:
 2407 037e 0146     		mov	r1, r0
ARM GAS  C:\Users\86183\AppData\Local\Temp\ccaDF7Ye.s 			page 54


 2408 0380 0398     		ldr	r0, [sp, #12]	@ float
 2409 0382 FFF7FEFF 		bl	__aeabi_fadd
 2410              	.LVL361:
 2411 0386 0390     		str	r0, [sp, #12]	@ float
 2412              	.LVL362:
 2413              		.loc 1 385 36 view .LVU574
 2414 0388 019B     		ldr	r3, [sp, #4]
 2415 038a 0133     		adds	r3, r3, #1
 2416 038c 0193     		str	r3, [sp, #4]
 2417              	.LVL363:
 2418              	.L151:
 2419              		.loc 1 385 36 view .LVU575
 2420              	.LBE22:
 377:Core/Src/main.c ****       if ((int)sqrt(sq(xBase - x[0] + i) + sq(yBase - y[0] + j)) == beaconD[0] && (int)sqrt(sq(xBas
 2421              		.loc 1 377 29 is_stmt 1 discriminator 2 view .LVU576
 377:Core/Src/main.c ****       if ((int)sqrt(sq(xBase - x[0] + i) + sq(yBase - y[0] + j)) == beaconD[0] && (int)sqrt(sq(xBas
 2422              		.loc 1 377 30 is_stmt 0 discriminator 2 view .LVU577
 2423 038e 0134     		adds	r4, r4, #1
 2424              	.LVL364:
 2425              	.L156:
 377:Core/Src/main.c ****       if ((int)sqrt(sq(xBase - x[0] + i) + sq(yBase - y[0] + j)) == beaconD[0] && (int)sqrt(sq(xBas
 2426              		.loc 1 377 22 is_stmt 1 discriminator 1 view .LVU578
 377:Core/Src/main.c ****       if ((int)sqrt(sq(xBase - x[0] + i) + sq(yBase - y[0] + j)) == beaconD[0] && (int)sqrt(sq(xBas
 2427              		.loc 1 377 5 is_stmt 0 discriminator 1 view .LVU579
 2428 0390 012C     		cmp	r4, #1
 2429 0392 40DC     		bgt	.L167
 378:Core/Src/main.c ****       {
 2430              		.loc 1 378 7 is_stmt 1 view .LVU580
 378:Core/Src/main.c ****       {
 2431              		.loc 1 378 21 is_stmt 0 view .LVU581
 2432 0394 A7EB0800 		sub	r0, r7, r8
 2433 0398 2844     		add	r0, r0, r5
 378:Core/Src/main.c ****       {
 2434              		.loc 1 378 44 view .LVU582
 2435 039a A6EB0A03 		sub	r3, r6, r10
 2436 039e 2344     		add	r3, r3, r4
 2437 03a0 03FB03F3 		mul	r3, r3, r3
 378:Core/Src/main.c ****       {
 2438              		.loc 1 378 16 view .LVU583
 2439 03a4 00FB0030 		mla	r0, r0, r0, r3
 2440 03a8 FFF7FEFF 		bl	__aeabi_i2d
 2441              	.LVL365:
 2442 03ac FFF7FEFF 		bl	sqrt
 2443              	.LVL366:
 378:Core/Src/main.c ****       {
 2444              		.loc 1 378 11 view .LVU584
 2445 03b0 FFF7FEFF 		bl	__aeabi_d2iz
 2446              	.LVL367:
 378:Core/Src/main.c ****       {
 2447              		.loc 1 378 10 view .LVU585
 2448 03b4 8345     		cmp	fp, r0
 2449 03b6 EAD1     		bne	.L151
 378:Core/Src/main.c ****       {
 2450              		.loc 1 378 93 discriminator 1 view .LVU586
 2451 03b8 069B     		ldr	r3, [sp, #24]
 2452 03ba F81A     		subs	r0, r7, r3
 2453 03bc 2844     		add	r0, r0, r5
ARM GAS  C:\Users\86183\AppData\Local\Temp\ccaDF7Ye.s 			page 55


 378:Core/Src/main.c ****       {
 2454              		.loc 1 378 116 discriminator 1 view .LVU587
 2455 03be 049B     		ldr	r3, [sp, #16]
 2456 03c0 F31A     		subs	r3, r6, r3
 2457 03c2 2344     		add	r3, r3, r4
 2458 03c4 03FB03F3 		mul	r3, r3, r3
 378:Core/Src/main.c ****       {
 2459              		.loc 1 378 88 discriminator 1 view .LVU588
 2460 03c8 00FB0030 		mla	r0, r0, r0, r3
 2461 03cc FFF7FEFF 		bl	__aeabi_i2d
 2462              	.LVL368:
 2463 03d0 FFF7FEFF 		bl	sqrt
 2464              	.LVL369:
 378:Core/Src/main.c ****       {
 2465              		.loc 1 378 83 discriminator 1 view .LVU589
 2466 03d4 FFF7FEFF 		bl	__aeabi_d2iz
 2467              	.LVL370:
 378:Core/Src/main.c ****       {
 2468              		.loc 1 378 80 discriminator 1 view .LVU590
 2469 03d8 079B     		ldr	r3, [sp, #28]
 2470 03da 8342     		cmp	r3, r0
 2471 03dc D7D1     		bne	.L151
 378:Core/Src/main.c ****       {
 2472              		.loc 1 378 165 discriminator 2 view .LVU591
 2473 03de 089B     		ldr	r3, [sp, #32]
 2474 03e0 F81A     		subs	r0, r7, r3
 2475 03e2 2844     		add	r0, r0, r5
 378:Core/Src/main.c ****       {
 2476              		.loc 1 378 188 discriminator 2 view .LVU592
 2477 03e4 099B     		ldr	r3, [sp, #36]
 2478 03e6 F31A     		subs	r3, r6, r3
 2479 03e8 2344     		add	r3, r3, r4
 2480 03ea 03FB03F3 		mul	r3, r3, r3
 378:Core/Src/main.c ****       {
 2481              		.loc 1 378 160 discriminator 2 view .LVU593
 2482 03ee 00FB0030 		mla	r0, r0, r0, r3
 2483 03f2 FFF7FEFF 		bl	__aeabi_i2d
 2484              	.LVL371:
 2485 03f6 FFF7FEFF 		bl	sqrt
 2486              	.LVL372:
 378:Core/Src/main.c ****       {
 2487              		.loc 1 378 155 discriminator 2 view .LVU594
 2488 03fa FFF7FEFF 		bl	__aeabi_d2iz
 2489              	.LVL373:
 378:Core/Src/main.c ****       {
 2490              		.loc 1 378 152 discriminator 2 view .LVU595
 2491 03fe 0C9B     		ldr	r3, [sp, #48]
 2492 0400 8342     		cmp	r3, r0
 2493 0402 C4D1     		bne	.L151
 2494              	.LBB25:
 2495              	.LBB24:
 381:Core/Src/main.c ****           if ((int)sqrt(sq(xBase - RivalBeacon[k].x + i) + sq(yBase - RivalBeacon[k].y + j)) != riv
 2496              		.loc 1 381 18 view .LVU596
 2497 0404 4FF00009 		mov	r9, #0
 2498              	.LBE24:
 380:Core/Src/main.c ****         for (int k = 0; k < RivalBeaconNum; k++)
 2499              		.loc 1 380 13 view .LVU597
ARM GAS  C:\Users\86183\AppData\Local\Temp\ccaDF7Ye.s 			page 56


 2500 0408 0123     		movs	r3, #1
 2501 040a 0A93     		str	r3, [sp, #40]
 2502 040c CDF82C80 		str	r8, [sp, #44]
 2503 0410 CDF834A0 		str	r10, [sp, #52]
 2504 0414 60E7     		b	.L152
 2505              	.L167:
 380:Core/Src/main.c ****         for (int k = 0; k < RivalBeaconNum; k++)
 2506              		.loc 1 380 13 view .LVU598
 2507              	.LBE25:
 2508              	.LBE21:
 376:Core/Src/main.c ****     for (int j = -1; j < 2; j++)
 2509              		.loc 1 376 28 discriminator 2 view .LVU599
 2510 0416 C146     		mov	r9, r8
 376:Core/Src/main.c ****     for (int j = -1; j < 2; j++)
 2511              		.loc 1 376 27 is_stmt 1 discriminator 2 view .LVU600
 376:Core/Src/main.c ****     for (int j = -1; j < 2; j++)
 2512              		.loc 1 376 28 is_stmt 0 discriminator 2 view .LVU601
 2513 0418 0135     		adds	r5, r5, #1
 2514              	.LVL374:
 2515              	.L150:
 376:Core/Src/main.c ****     for (int j = -1; j < 2; j++)
 2516              		.loc 1 376 20 is_stmt 1 discriminator 1 view .LVU602
 376:Core/Src/main.c ****     for (int j = -1; j < 2; j++)
 2517              		.loc 1 376 3 is_stmt 0 discriminator 1 view .LVU603
 2518 041a 012D     		cmp	r5, #1
 2519 041c 03DC     		bgt	.L168
 2520              	.LBB26:
 377:Core/Src/main.c ****       if ((int)sqrt(sq(xBase - x[0] + i) + sq(yBase - y[0] + j)) == beaconD[0] && (int)sqrt(sq(xBas
 2521              		.loc 1 377 14 view .LVU604
 2522 041e 4FF0FF34 		mov	r4, #-1
 2523 0422 C846     		mov	r8, r9
 2524 0424 B4E7     		b	.L156
 2525              	.L168:
 2526              	.LBE26:
 2527              	.LBE27:
 386:Core/Src/main.c ****       }
 387:Core/Src/main.c **** 
 388:Core/Src/main.c ****   if (cnt == 0)
 2528              		.loc 1 388 3 is_stmt 1 view .LVU605
 2529              		.loc 1 388 6 is_stmt 0 view .LVU606
 2530 0426 019B     		ldr	r3, [sp, #4]
 2531 0428 03B3     		cbz	r3, .L169
 389:Core/Src/main.c ****   {
 390:Core/Src/main.c ****     coord.x = xBase;
 391:Core/Src/main.c ****     coord.y = yBase;
 392:Core/Src/main.c ****     return coord;
 393:Core/Src/main.c ****   }
 394:Core/Src/main.c ****   coord.x = xBase + xRes / cnt;
 2532              		.loc 1 394 3 is_stmt 1 view .LVU607
 2533              		.loc 1 394 26 is_stmt 0 view .LVU608
 2534 042a 0198     		ldr	r0, [sp, #4]
 2535 042c FFF7FEFF 		bl	__aeabi_i2f
 2536              	.LVL375:
 2537 0430 0446     		mov	r4, r0
 2538 0432 0146     		mov	r1, r0
 2539 0434 0298     		ldr	r0, [sp, #8]	@ float
 2540 0436 FFF7FEFF 		bl	__aeabi_fdiv
ARM GAS  C:\Users\86183\AppData\Local\Temp\ccaDF7Ye.s 			page 57


 2541              	.LVL376:
 2542 043a 0546     		mov	r5, r0
 2543              	.LVL377:
 2544              		.loc 1 394 19 view .LVU609
 2545 043c 3846     		mov	r0, r7
 2546 043e FFF7FEFF 		bl	__aeabi_i2f
 2547              	.LVL378:
 2548 0442 2946     		mov	r1, r5
 2549 0444 FFF7FEFF 		bl	__aeabi_fadd
 2550              	.LVL379:
 2551              		.loc 1 394 11 view .LVU610
 2552 0448 059D     		ldr	r5, [sp, #20]
 2553 044a 2860     		str	r0, [r5]	@ float
 395:Core/Src/main.c ****   coord.y = yBase + yRes / cnt;
 2554              		.loc 1 395 3 is_stmt 1 view .LVU611
 2555              		.loc 1 395 26 is_stmt 0 view .LVU612
 2556 044c 2146     		mov	r1, r4
 2557 044e 0398     		ldr	r0, [sp, #12]	@ float
 2558 0450 FFF7FEFF 		bl	__aeabi_fdiv
 2559              	.LVL380:
 2560 0454 0446     		mov	r4, r0
 2561              		.loc 1 395 19 view .LVU613
 2562 0456 3046     		mov	r0, r6
 2563 0458 FFF7FEFF 		bl	__aeabi_i2f
 2564              	.LVL381:
 2565 045c 2146     		mov	r1, r4
 2566 045e FFF7FEFF 		bl	__aeabi_fadd
 2567              	.LVL382:
 2568              		.loc 1 395 11 view .LVU614
 2569 0462 6860     		str	r0, [r5, #4]	@ float
 396:Core/Src/main.c ****   return coord;
 2570              		.loc 1 396 3 is_stmt 1 view .LVU615
 2571              	.LVL383:
 2572              	.L144:
 397:Core/Src/main.c **** }
 2573              		.loc 1 397 1 is_stmt 0 view .LVU616
 2574 0464 0598     		ldr	r0, [sp, #20]
 2575 0466 25B0     		add	sp, sp, #148
 2576              	.LCFI12:
 2577              		.cfi_remember_state
 2578              		.cfi_def_cfa_offset 36
 2579              		@ sp needed
 2580 0468 BDE8F08F 		pop	{r4, r5, r6, r7, r8, r9, r10, fp, pc}
 2581              	.LVL384:
 2582              	.L169:
 2583              	.LCFI13:
 2584              		.cfi_restore_state
 390:Core/Src/main.c ****     coord.y = yBase;
 2585              		.loc 1 390 5 is_stmt 1 view .LVU617
 390:Core/Src/main.c ****     coord.y = yBase;
 2586              		.loc 1 390 13 is_stmt 0 view .LVU618
 2587 046c 3846     		mov	r0, r7
 2588 046e FFF7FEFF 		bl	__aeabi_i2f
 2589              	.LVL385:
 2590 0472 059C     		ldr	r4, [sp, #20]
 2591 0474 2060     		str	r0, [r4]	@ float
 391:Core/Src/main.c ****     return coord;
ARM GAS  C:\Users\86183\AppData\Local\Temp\ccaDF7Ye.s 			page 58


 2592              		.loc 1 391 5 is_stmt 1 view .LVU619
 391:Core/Src/main.c ****     return coord;
 2593              		.loc 1 391 13 is_stmt 0 view .LVU620
 2594 0476 3046     		mov	r0, r6
 2595 0478 FFF7FEFF 		bl	__aeabi_i2f
 2596              	.LVL386:
 2597 047c 6060     		str	r0, [r4, #4]	@ float
 392:Core/Src/main.c ****   }
 2598              		.loc 1 392 5 is_stmt 1 view .LVU621
 392:Core/Src/main.c ****   }
 2599              		.loc 1 392 12 is_stmt 0 view .LVU622
 2600 047e F1E7     		b	.L144
 2601              	.L173:
 2602              		.align	2
 2603              	.L172:
 2604 0480 00000000 		.word	.LANCHOR11
 2605 0484 00000000 		.word	.LANCHOR10
 2606              		.cfi_endproc
 2607              	.LFE77:
 2609              		.section	.text.surveyGetCarPos,"ax",%progbits
 2610              		.align	1
 2611              		.global	surveyGetCarPos
 2612              		.syntax unified
 2613              		.thumb
 2614              		.thumb_func
 2615              		.fpu softvfp
 2617              	surveyGetCarPos:
 2618              	.LVL387:
 2619              	.LFB78:
 398:Core/Src/main.c **** 
 399:Core/Src/main.c **** struct MYCOORD surveyGetCarPos()
 400:Core/Src/main.c **** {
 2620              		.loc 1 400 1 is_stmt 1 view -0
 2621              		.cfi_startproc
 2622              		@ args = 0, pretend = 0, frame = 144
 2623              		@ frame_needed = 0, uses_anonymous_args = 0
 2624              		.loc 1 400 1 is_stmt 0 view .LVU624
 2625 0000 2DE9F04F 		push	{r4, r5, r6, r7, r8, r9, r10, fp, lr}
 2626              	.LCFI14:
 2627              		.cfi_def_cfa_offset 36
 2628              		.cfi_offset 4, -36
 2629              		.cfi_offset 5, -32
 2630              		.cfi_offset 6, -28
 2631              		.cfi_offset 7, -24
 2632              		.cfi_offset 8, -20
 2633              		.cfi_offset 9, -16
 2634              		.cfi_offset 10, -12
 2635              		.cfi_offset 11, -8
 2636              		.cfi_offset 14, -4
 2637 0004 A5B0     		sub	sp, sp, #148
 2638              	.LCFI15:
 2639              		.cfi_def_cfa_offset 184
 2640 0006 0590     		str	r0, [sp, #20]
 401:Core/Src/main.c ****   struct MYCOORD coord = {0, 0, 0};
 2641              		.loc 1 401 3 is_stmt 1 view .LVU625
 2642              		.loc 1 401 18 is_stmt 0 view .LVU626
 2643 0008 0023     		movs	r3, #0
ARM GAS  C:\Users\86183\AppData\Local\Temp\ccaDF7Ye.s 			page 59


 2644 000a 0360     		str	r3, [r0]	@ float
 2645 000c 4360     		str	r3, [r0, #4]	@ float
 2646 000e 8360     		str	r3, [r0, #8]	@ float
 402:Core/Src/main.c ****   if (getIsCarPosValid())
 2647              		.loc 1 402 3 is_stmt 1 view .LVU627
 2648              		.loc 1 402 7 is_stmt 0 view .LVU628
 2649 0010 FFF7FEFF 		bl	getIsCarPosValid
 2650              	.LVL388:
 2651              		.loc 1 402 6 view .LVU629
 2652 0014 B0B9     		cbnz	r0, .L194
 2653              	.LBB28:
 403:Core/Src/main.c ****   {
 404:Core/Src/main.c ****     coord.x = getCarPosX();
 405:Core/Src/main.c ****     coord.y = getCarPosY();
 406:Core/Src/main.c ****     return coord;
 407:Core/Src/main.c ****   };
 408:Core/Src/main.c ****   int x[3], y[3], beaconD[3], xBase, yBase, cnt = 0;
 409:Core/Src/main.c ****   int rivalBeaconD[3];
 410:Core/Src/main.c ****   float A[2], B[2], C[2], xTemp[2], yTemp[2], xRes = 0, yRes = 0;
 411:Core/Src/main.c ****   for (int i = 0; i < 3; i++)
 2654              		.loc 1 411 12 view .LVU630
 2655 0016 0024     		movs	r4, #0
 2656              	.L175:
 2657              	.LVL389:
 2658              		.loc 1 411 19 is_stmt 1 discriminator 1 view .LVU631
 2659              		.loc 1 411 3 is_stmt 0 discriminator 1 view .LVU632
 2660 0018 022C     		cmp	r4, #2
 2661 001a 1FDC     		bgt	.L195
 412:Core/Src/main.c ****   {
 413:Core/Src/main.c ****     x[i] = getMyBeaconPosX(i);
 2662              		.loc 1 413 5 is_stmt 1 discriminator 3 view .LVU633
 2663              		.loc 1 413 12 is_stmt 0 discriminator 3 view .LVU634
 2664 001c 2046     		mov	r0, r4
 2665 001e FFF7FEFF 		bl	getMyBeaconPosX
 2666              	.LVL390:
 2667              		.loc 1 413 10 discriminator 3 view .LVU635
 2668 0022 24AB     		add	r3, sp, #144
 2669 0024 03EB8405 		add	r5, r3, r4, lsl #2
 2670 0028 45F80C0C 		str	r0, [r5, #-12]
 414:Core/Src/main.c ****     y[i] = getMyBeaconPosY(i);
 2671              		.loc 1 414 5 is_stmt 1 discriminator 3 view .LVU636
 2672              		.loc 1 414 12 is_stmt 0 discriminator 3 view .LVU637
 2673 002c 2046     		mov	r0, r4
 2674 002e FFF7FEFF 		bl	getMyBeaconPosY
 2675              	.LVL391:
 2676              		.loc 1 414 10 discriminator 3 view .LVU638
 2677 0032 45F8180C 		str	r0, [r5, #-24]
 415:Core/Src/main.c ****     beaconD[i] = getDistanceOfMyBeacon(i);
 2678              		.loc 1 415 5 is_stmt 1 discriminator 3 view .LVU639
 2679              		.loc 1 415 18 is_stmt 0 discriminator 3 view .LVU640
 2680 0036 2046     		mov	r0, r4
 2681 0038 FFF7FEFF 		bl	getDistanceOfMyBeacon
 2682              	.LVL392:
 2683              		.loc 1 415 16 discriminator 3 view .LVU641
 2684 003c 45F8240C 		str	r0, [r5, #-36]
 411:Core/Src/main.c ****   {
 2685              		.loc 1 411 26 is_stmt 1 discriminator 3 view .LVU642
ARM GAS  C:\Users\86183\AppData\Local\Temp\ccaDF7Ye.s 			page 60


 411:Core/Src/main.c ****   {
 2686              		.loc 1 411 27 is_stmt 0 discriminator 3 view .LVU643
 2687 0040 0134     		adds	r4, r4, #1
 2688              	.LVL393:
 411:Core/Src/main.c ****   {
 2689              		.loc 1 411 27 discriminator 3 view .LVU644
 2690 0042 E9E7     		b	.L175
 2691              	.LVL394:
 2692              	.L194:
 411:Core/Src/main.c ****   {
 2693              		.loc 1 411 27 discriminator 3 view .LVU645
 2694              	.LBE28:
 404:Core/Src/main.c ****     coord.y = getCarPosY();
 2695              		.loc 1 404 5 is_stmt 1 view .LVU646
 404:Core/Src/main.c ****     coord.y = getCarPosY();
 2696              		.loc 1 404 15 is_stmt 0 view .LVU647
 2697 0044 FFF7FEFF 		bl	getCarPosX
 2698              	.LVL395:
 404:Core/Src/main.c ****     coord.y = getCarPosY();
 2699              		.loc 1 404 13 view .LVU648
 2700 0048 FFF7FEFF 		bl	__aeabi_ui2f
 2701              	.LVL396:
 2702 004c 059C     		ldr	r4, [sp, #20]
 2703 004e 2060     		str	r0, [r4]	@ float
 405:Core/Src/main.c ****     return coord;
 2704              		.loc 1 405 5 is_stmt 1 view .LVU649
 405:Core/Src/main.c ****     return coord;
 2705              		.loc 1 405 15 is_stmt 0 view .LVU650
 2706 0050 FFF7FEFF 		bl	getCarPosY
 2707              	.LVL397:
 405:Core/Src/main.c ****     return coord;
 2708              		.loc 1 405 13 view .LVU651
 2709 0054 FFF7FEFF 		bl	__aeabi_ui2f
 2710              	.LVL398:
 2711 0058 6060     		str	r0, [r4, #4]	@ float
 406:Core/Src/main.c ****   };
 2712              		.loc 1 406 5 is_stmt 1 view .LVU652
 406:Core/Src/main.c ****   };
 2713              		.loc 1 406 12 is_stmt 0 view .LVU653
 2714 005a ECE1     		b	.L174
 2715              	.LVL399:
 2716              	.L195:
 2717              	.LBB29:
 416:Core/Src/main.c ****   }
 417:Core/Src/main.c ****   for (int i = 0; i < RivalBeaconNum; i++)
 2718              		.loc 1 417 12 view .LVU654
 2719 005c 0024     		movs	r4, #0
 2720              	.LVL400:
 2721              	.L178:
 2722              		.loc 1 417 19 is_stmt 1 discriminator 1 view .LVU655
 2723              		.loc 1 417 21 is_stmt 0 discriminator 1 view .LVU656
 2724 005e 9B4B     		ldr	r3, .L200
 2725 0060 1B68     		ldr	r3, [r3]
 2726              		.loc 1 417 3 discriminator 1 view .LVU657
 2727 0062 A342     		cmp	r3, r4
 2728 0064 0EDD     		ble	.L196
 418:Core/Src/main.c ****     rivalBeaconD[i] = getDistanceOfRivalBeacon(RivalBeacon[i].id);
ARM GAS  C:\Users\86183\AppData\Local\Temp\ccaDF7Ye.s 			page 61


 2729              		.loc 1 418 5 is_stmt 1 discriminator 3 view .LVU658
 2730              		.loc 1 418 23 is_stmt 0 discriminator 3 view .LVU659
 2731 0066 04EB4402 		add	r2, r4, r4, lsl #1
 2732 006a 994B     		ldr	r3, .L200+4
 2733 006c 03EB8203 		add	r3, r3, r2, lsl #2
 2734 0070 9868     		ldr	r0, [r3, #8]
 2735 0072 FFF7FEFF 		bl	getDistanceOfRivalBeacon
 2736              	.LVL401:
 2737              		.loc 1 418 21 discriminator 3 view .LVU660
 2738 0076 24AB     		add	r3, sp, #144
 2739 0078 03EB8403 		add	r3, r3, r4, lsl #2
 2740 007c 43F8300C 		str	r0, [r3, #-48]
 417:Core/Src/main.c ****     rivalBeaconD[i] = getDistanceOfRivalBeacon(RivalBeacon[i].id);
 2741              		.loc 1 417 39 is_stmt 1 discriminator 3 view .LVU661
 417:Core/Src/main.c ****     rivalBeaconD[i] = getDistanceOfRivalBeacon(RivalBeacon[i].id);
 2742              		.loc 1 417 40 is_stmt 0 discriminator 3 view .LVU662
 2743 0080 0134     		adds	r4, r4, #1
 2744              	.LVL402:
 417:Core/Src/main.c ****     rivalBeaconD[i] = getDistanceOfRivalBeacon(RivalBeacon[i].id);
 2745              		.loc 1 417 40 discriminator 3 view .LVU663
 2746 0082 ECE7     		b	.L178
 2747              	.L196:
 417:Core/Src/main.c ****     rivalBeaconD[i] = getDistanceOfRivalBeacon(RivalBeacon[i].id);
 2748              		.loc 1 417 40 discriminator 3 view .LVU664
 2749              	.LBE29:
 419:Core/Src/main.c ****   A[0] = x[1] - x[0];
 2750              		.loc 1 419 3 is_stmt 1 view .LVU665
 2751              		.loc 1 419 11 is_stmt 0 view .LVU666
 2752 0084 229D     		ldr	r5, [sp, #136]
 2753 0086 0695     		str	r5, [sp, #24]
 2754              		.loc 1 419 18 view .LVU667
 2755 0088 DDF884A0 		ldr	r10, [sp, #132]
 2756              		.loc 1 419 8 view .LVU668
 2757 008c A5EB0A00 		sub	r0, r5, r10
 2758 0090 FFF7FEFF 		bl	__aeabi_i2f
 2759              	.LVL403:
 2760 0094 0646     		mov	r6, r0
 2761 0096 1690     		str	r0, [sp, #88]	@ float
 420:Core/Src/main.c ****   B[0] = y[1] - y[0];
 2762              		.loc 1 420 3 is_stmt 1 view .LVU669
 2763              		.loc 1 420 11 is_stmt 0 view .LVU670
 2764 0098 1F9B     		ldr	r3, [sp, #124]
 2765              		.loc 1 420 18 view .LVU671
 2766 009a DDF878B0 		ldr	fp, [sp, #120]
 2767              		.loc 1 420 8 view .LVU672
 2768 009e 0493     		str	r3, [sp, #16]
 2769 00a0 A3EB0B00 		sub	r0, r3, fp
 2770 00a4 FFF7FEFF 		bl	__aeabi_i2f
 2771              	.LVL404:
 2772 00a8 0446     		mov	r4, r0
 2773              	.LVL405:
 2774              		.loc 1 420 8 view .LVU673
 2775 00aa 1490     		str	r0, [sp, #80]	@ float
 421:Core/Src/main.c ****   A[1] = x[2] - x[0];
 2776              		.loc 1 421 3 is_stmt 1 view .LVU674
 2777              		.loc 1 421 11 is_stmt 0 view .LVU675
 2778 00ac 239A     		ldr	r2, [sp, #140]
ARM GAS  C:\Users\86183\AppData\Local\Temp\ccaDF7Ye.s 			page 62


 2779              		.loc 1 421 8 view .LVU676
 2780 00ae 0892     		str	r2, [sp, #32]
 2781 00b0 A2EB0A00 		sub	r0, r2, r10
 2782 00b4 FFF7FEFF 		bl	__aeabi_i2f
 2783              	.LVL406:
 2784 00b8 0190     		str	r0, [sp, #4]	@ float
 2785 00ba 1790     		str	r0, [sp, #92]	@ float
 422:Core/Src/main.c ****   B[1] = y[2] - y[0];
 2786              		.loc 1 422 3 is_stmt 1 view .LVU677
 2787              		.loc 1 422 11 is_stmt 0 view .LVU678
 2788 00bc 2099     		ldr	r1, [sp, #128]
 2789              		.loc 1 422 8 view .LVU679
 2790 00be 0991     		str	r1, [sp, #36]
 2791 00c0 A1EB0B00 		sub	r0, r1, fp
 2792 00c4 FFF7FEFF 		bl	__aeabi_i2f
 2793              	.LVL407:
 2794 00c8 0290     		str	r0, [sp, #8]	@ float
 2795 00ca 1590     		str	r0, [sp, #84]	@ float
 423:Core/Src/main.c ****   xTemp[0] = (x[0] + x[1]) / 2 - A[0] * (sq(beaconD[1]) - sq(beaconD[0])) / (sq(A[0]) + sq(B[0])) /
 2796              		.loc 1 423 3 is_stmt 1 view .LVU680
 2797              		.loc 1 423 20 is_stmt 0 view .LVU681
 2798 00cc 5544     		add	r5, r5, r10
 2799              		.loc 1 423 28 view .LVU682
 2800 00ce 05EBD575 		add	r5, r5, r5, lsr #31
 2801 00d2 6D10     		asrs	r5, r5, #1
 2802              		.loc 1 423 42 view .LVU683
 2803 00d4 1C98     		ldr	r0, [sp, #112]
 2804 00d6 0790     		str	r0, [sp, #28]
 2805 00d8 00FB00F0 		mul	r0, r0, r0
 2806              		.loc 1 423 59 view .LVU684
 2807 00dc DDF86C90 		ldr	r9, [sp, #108]
 2808 00e0 09FB09F8 		mul	r8, r9, r9
 2809              		.loc 1 423 39 view .LVU685
 2810 00e4 A0EB0800 		sub	r0, r0, r8
 2811 00e8 FFF7FEFF 		bl	__aeabi_i2f
 2812              	.LVL408:
 2813 00ec 0746     		mov	r7, r0
 2814 00ee 0146     		mov	r1, r0
 2815 00f0 3046     		mov	r0, r6
 2816 00f2 FFF7FEFF 		bl	__aeabi_fmul
 2817              	.LVL409:
 2818 00f6 0A90     		str	r0, [sp, #40]	@ float
 2819              		.loc 1 423 78 view .LVU686
 2820 00f8 3146     		mov	r1, r6
 2821 00fa 0396     		str	r6, [sp, #12]	@ float
 2822 00fc 3046     		mov	r0, r6
 2823 00fe FFF7FEFF 		bl	__aeabi_fmul
 2824              	.LVL410:
 2825 0102 0646     		mov	r6, r0
 2826              		.loc 1 423 89 view .LVU687
 2827 0104 2146     		mov	r1, r4
 2828 0106 2046     		mov	r0, r4
 2829 0108 FFF7FEFF 		bl	__aeabi_fmul
 2830              	.LVL411:
 2831 010c 0146     		mov	r1, r0
 2832              		.loc 1 423 87 view .LVU688
 2833 010e 3046     		mov	r0, r6
ARM GAS  C:\Users\86183\AppData\Local\Temp\ccaDF7Ye.s 			page 63


 2834 0110 FFF7FEFF 		bl	__aeabi_fadd
 2835              	.LVL412:
 2836 0114 0646     		mov	r6, r0
 2837              		.loc 1 423 75 view .LVU689
 2838 0116 0146     		mov	r1, r0
 2839 0118 0A98     		ldr	r0, [sp, #40]	@ float
 2840 011a FFF7FEFF 		bl	__aeabi_fdiv
 2841              	.LVL413:
 2842              		.loc 1 423 99 view .LVU690
 2843 011e 4FF07C51 		mov	r1, #1056964608
 2844 0122 FFF7FEFF 		bl	__aeabi_fmul
 2845              	.LVL414:
 2846 0126 0A90     		str	r0, [sp, #40]	@ float
 2847              		.loc 1 423 32 view .LVU691
 2848 0128 2846     		mov	r0, r5
 2849 012a FFF7FEFF 		bl	__aeabi_i2f
 2850              	.LVL415:
 2851 012e 0A99     		ldr	r1, [sp, #40]	@ float
 2852 0130 FFF7FEFF 		bl	__aeabi_fsub
 2853              	.LVL416:
 2854              		.loc 1 423 12 view .LVU692
 2855 0134 0B90     		str	r0, [sp, #44]	@ float
 2856 0136 1090     		str	r0, [sp, #64]	@ float
 424:Core/Src/main.c ****   yTemp[0] = (y[0] + y[1]) / 2 - B[0] * (sq(beaconD[1]) - sq(beaconD[0])) / (sq(A[0]) + sq(B[0])) /
 2857              		.loc 1 424 3 is_stmt 1 view .LVU693
 2858              		.loc 1 424 20 is_stmt 0 view .LVU694
 2859 0138 049D     		ldr	r5, [sp, #16]
 2860 013a 5D44     		add	r5, r5, fp
 2861              		.loc 1 424 28 view .LVU695
 2862 013c 05EBD575 		add	r5, r5, r5, lsr #31
 2863 0140 6D10     		asrs	r5, r5, #1
 2864              		.loc 1 424 39 view .LVU696
 2865 0142 3946     		mov	r1, r7
 2866 0144 2046     		mov	r0, r4
 2867 0146 FFF7FEFF 		bl	__aeabi_fmul
 2868              	.LVL417:
 2869              		.loc 1 424 75 view .LVU697
 2870 014a 3146     		mov	r1, r6
 2871 014c FFF7FEFF 		bl	__aeabi_fdiv
 2872              	.LVL418:
 2873              		.loc 1 424 99 view .LVU698
 2874 0150 4FF07C51 		mov	r1, #1056964608
 2875 0154 FFF7FEFF 		bl	__aeabi_fmul
 2876              	.LVL419:
 2877 0158 0646     		mov	r6, r0
 2878              		.loc 1 424 32 view .LVU699
 2879 015a 2846     		mov	r0, r5
 2880 015c FFF7FEFF 		bl	__aeabi_i2f
 2881              	.LVL420:
 2882 0160 3146     		mov	r1, r6
 2883 0162 FFF7FEFF 		bl	__aeabi_fsub
 2884              	.LVL421:
 2885 0166 0746     		mov	r7, r0
 2886              		.loc 1 424 12 view .LVU700
 2887 0168 0E90     		str	r0, [sp, #56]	@ float
 425:Core/Src/main.c ****   xTemp[1] = (x[0] + x[2]) / 2 - A[1] * (sq(beaconD[2]) - sq(beaconD[0])) / (sq(A[1]) + sq(B[1])) /
 2888              		.loc 1 425 3 is_stmt 1 view .LVU701
ARM GAS  C:\Users\86183\AppData\Local\Temp\ccaDF7Ye.s 			page 64


 2889              		.loc 1 425 20 is_stmt 0 view .LVU702
 2890 016a 089D     		ldr	r5, [sp, #32]
 2891 016c 5544     		add	r5, r10, r5
 2892              		.loc 1 425 28 view .LVU703
 2893 016e 05EBD575 		add	r5, r5, r5, lsr #31
 2894 0172 6D10     		asrs	r5, r5, #1
 2895              		.loc 1 425 42 view .LVU704
 2896 0174 DDF874E0 		ldr	lr, [sp, #116]
 2897 0178 CDF830E0 		str	lr, [sp, #48]
 2898 017c 0EFB0EF0 		mul	r0, lr, lr
 2899              		.loc 1 425 39 view .LVU705
 2900 0180 A0EB0800 		sub	r0, r0, r8
 2901 0184 FFF7FEFF 		bl	__aeabi_i2f
 2902              	.LVL422:
 2903 0188 0A90     		str	r0, [sp, #40]	@ float
 2904 018a 0146     		mov	r1, r0
 2905 018c 019E     		ldr	r6, [sp, #4]	@ float
 2906 018e 3046     		mov	r0, r6
 2907 0190 FFF7FEFF 		bl	__aeabi_fmul
 2908              	.LVL423:
 2909 0194 8046     		mov	r8, r0
 2910              		.loc 1 425 78 view .LVU706
 2911 0196 3146     		mov	r1, r6
 2912 0198 3046     		mov	r0, r6
 2913 019a FFF7FEFF 		bl	__aeabi_fmul
 2914              	.LVL424:
 2915 019e 0646     		mov	r6, r0
 2916              		.loc 1 425 89 view .LVU707
 2917 01a0 029A     		ldr	r2, [sp, #8]	@ float
 2918 01a2 1146     		mov	r1, r2
 2919 01a4 1046     		mov	r0, r2
 2920 01a6 FFF7FEFF 		bl	__aeabi_fmul
 2921              	.LVL425:
 2922 01aa 0146     		mov	r1, r0
 2923              		.loc 1 425 87 view .LVU708
 2924 01ac 3046     		mov	r0, r6
 2925 01ae FFF7FEFF 		bl	__aeabi_fadd
 2926              	.LVL426:
 2927 01b2 0646     		mov	r6, r0
 2928              		.loc 1 425 75 view .LVU709
 2929 01b4 0146     		mov	r1, r0
 2930 01b6 4046     		mov	r0, r8
 2931 01b8 FFF7FEFF 		bl	__aeabi_fdiv
 2932              	.LVL427:
 2933              		.loc 1 425 99 view .LVU710
 2934 01bc 4FF07C51 		mov	r1, #1056964608
 2935 01c0 FFF7FEFF 		bl	__aeabi_fmul
 2936              	.LVL428:
 2937 01c4 8046     		mov	r8, r0
 2938              		.loc 1 425 32 view .LVU711
 2939 01c6 2846     		mov	r0, r5
 2940 01c8 FFF7FEFF 		bl	__aeabi_i2f
 2941              	.LVL429:
 2942 01cc 4146     		mov	r1, r8
 2943 01ce FFF7FEFF 		bl	__aeabi_fsub
 2944              	.LVL430:
 2945 01d2 8046     		mov	r8, r0
ARM GAS  C:\Users\86183\AppData\Local\Temp\ccaDF7Ye.s 			page 65


 2946              		.loc 1 425 12 view .LVU712
 2947 01d4 1190     		str	r0, [sp, #68]	@ float
 426:Core/Src/main.c ****   yTemp[1] = (y[0] + y[2]) / 2 - B[1] * (sq(beaconD[2]) - sq(beaconD[0])) / (sq(A[1]) + sq(B[1])) /
 2948              		.loc 1 426 3 is_stmt 1 view .LVU713
 2949              		.loc 1 426 20 is_stmt 0 view .LVU714
 2950 01d6 099D     		ldr	r5, [sp, #36]
 2951 01d8 5D44     		add	r5, fp, r5
 2952              		.loc 1 426 28 view .LVU715
 2953 01da 05EBD575 		add	r5, r5, r5, lsr #31
 2954 01de 6D10     		asrs	r5, r5, #1
 2955              		.loc 1 426 39 view .LVU716
 2956 01e0 0A99     		ldr	r1, [sp, #40]	@ float
 2957 01e2 0298     		ldr	r0, [sp, #8]	@ float
 2958 01e4 FFF7FEFF 		bl	__aeabi_fmul
 2959              	.LVL431:
 2960              		.loc 1 426 75 view .LVU717
 2961 01e8 3146     		mov	r1, r6
 2962 01ea FFF7FEFF 		bl	__aeabi_fdiv
 2963              	.LVL432:
 2964              		.loc 1 426 99 view .LVU718
 2965 01ee 4FF07C51 		mov	r1, #1056964608
 2966 01f2 FFF7FEFF 		bl	__aeabi_fmul
 2967              	.LVL433:
 2968 01f6 0646     		mov	r6, r0
 2969              		.loc 1 426 32 view .LVU719
 2970 01f8 2846     		mov	r0, r5
 2971 01fa FFF7FEFF 		bl	__aeabi_i2f
 2972              	.LVL434:
 2973 01fe 3146     		mov	r1, r6
 2974 0200 FFF7FEFF 		bl	__aeabi_fsub
 2975              	.LVL435:
 2976 0204 0646     		mov	r6, r0
 2977              		.loc 1 426 12 view .LVU720
 2978 0206 0F90     		str	r0, [sp, #60]	@ float
 427:Core/Src/main.c ****   C[0] = A[0] * xTemp[0] + B[0] * yTemp[0];
 2979              		.loc 1 427 3 is_stmt 1 view .LVU721
 2980              		.loc 1 427 15 is_stmt 0 view .LVU722
 2981 0208 0B99     		ldr	r1, [sp, #44]	@ float
 2982 020a 0398     		ldr	r0, [sp, #12]	@ float
 2983 020c FFF7FEFF 		bl	__aeabi_fmul
 2984              	.LVL436:
 2985 0210 0546     		mov	r5, r0
 2986              		.loc 1 427 33 view .LVU723
 2987 0212 3946     		mov	r1, r7
 2988 0214 2046     		mov	r0, r4
 2989 0216 FFF7FEFF 		bl	__aeabi_fmul
 2990              	.LVL437:
 2991 021a 0146     		mov	r1, r0
 2992              		.loc 1 427 26 view .LVU724
 2993 021c 2846     		mov	r0, r5
 2994 021e FFF7FEFF 		bl	__aeabi_fadd
 2995              	.LVL438:
 2996 0222 0546     		mov	r5, r0
 2997              		.loc 1 427 8 view .LVU725
 2998 0224 1290     		str	r0, [sp, #72]	@ float
 428:Core/Src/main.c ****   C[1] = A[1] * xTemp[1] + B[1] * yTemp[1];
 2999              		.loc 1 428 3 is_stmt 1 view .LVU726
ARM GAS  C:\Users\86183\AppData\Local\Temp\ccaDF7Ye.s 			page 66


 3000              		.loc 1 428 15 is_stmt 0 view .LVU727
 3001 0226 4146     		mov	r1, r8
 3002 0228 0198     		ldr	r0, [sp, #4]	@ float
 3003 022a FFF7FEFF 		bl	__aeabi_fmul
 3004              	.LVL439:
 3005 022e 0746     		mov	r7, r0
 3006              		.loc 1 428 33 view .LVU728
 3007 0230 3146     		mov	r1, r6
 3008 0232 DDF80880 		ldr	r8, [sp, #8]	@ float
 3009 0236 4046     		mov	r0, r8
 3010 0238 FFF7FEFF 		bl	__aeabi_fmul
 3011              	.LVL440:
 3012 023c 0146     		mov	r1, r0
 3013              		.loc 1 428 26 view .LVU729
 3014 023e 3846     		mov	r0, r7
 3015 0240 FFF7FEFF 		bl	__aeabi_fadd
 3016              	.LVL441:
 3017 0244 0646     		mov	r6, r0
 3018              		.loc 1 428 8 view .LVU730
 3019 0246 1390     		str	r0, [sp, #76]	@ float
 429:Core/Src/main.c ****   xBase = (C[0] * B[1] - C[1] * B[0]) / (A[0] * B[1] - A[1] * B[0]);
 3020              		.loc 1 429 3 is_stmt 1 view .LVU731
 3021              		.loc 1 429 17 is_stmt 0 view .LVU732
 3022 0248 2946     		mov	r1, r5
 3023 024a 4046     		mov	r0, r8
 3024 024c FFF7FEFF 		bl	__aeabi_fmul
 3025              	.LVL442:
 3026 0250 0746     		mov	r7, r0
 3027              		.loc 1 429 31 view .LVU733
 3028 0252 3146     		mov	r1, r6
 3029 0254 2046     		mov	r0, r4
 3030 0256 FFF7FEFF 		bl	__aeabi_fmul
 3031              	.LVL443:
 3032 025a 0146     		mov	r1, r0
 3033              		.loc 1 429 24 view .LVU734
 3034 025c 3846     		mov	r0, r7
 3035 025e FFF7FEFF 		bl	__aeabi_fsub
 3036              	.LVL444:
 3037 0262 0746     		mov	r7, r0
 3038              		.loc 1 429 47 view .LVU735
 3039 0264 4146     		mov	r1, r8
 3040 0266 0398     		ldr	r0, [sp, #12]	@ float
 3041 0268 FFF7FEFF 		bl	__aeabi_fmul
 3042              	.LVL445:
 3043 026c 8046     		mov	r8, r0
 3044              		.loc 1 429 61 view .LVU736
 3045 026e 0199     		ldr	r1, [sp, #4]	@ float
 3046 0270 2046     		mov	r0, r4
 3047 0272 FFF7FEFF 		bl	__aeabi_fmul
 3048              	.LVL446:
 3049 0276 0146     		mov	r1, r0
 3050              		.loc 1 429 54 view .LVU737
 3051 0278 4046     		mov	r0, r8
 3052 027a FFF7FEFF 		bl	__aeabi_fsub
 3053              	.LVL447:
 3054 027e 0446     		mov	r4, r0
 3055              		.loc 1 429 39 view .LVU738
ARM GAS  C:\Users\86183\AppData\Local\Temp\ccaDF7Ye.s 			page 67


 3056 0280 0146     		mov	r1, r0
 3057 0282 3846     		mov	r0, r7
 3058 0284 FFF7FEFF 		bl	__aeabi_fdiv
 3059              	.LVL448:
 3060              		.loc 1 429 9 view .LVU739
 3061 0288 FFF7FEFF 		bl	__aeabi_f2iz
 3062              	.LVL449:
 3063 028c 0746     		mov	r7, r0
 3064              	.LVL450:
 430:Core/Src/main.c ****   yBase = (C[1] * A[0] - C[0] * A[1]) / (A[0] * B[1] - A[1] * B[0]);
 3065              		.loc 1 430 3 is_stmt 1 view .LVU740
 3066              		.loc 1 430 17 is_stmt 0 view .LVU741
 3067 028e 3146     		mov	r1, r6
 3068 0290 0398     		ldr	r0, [sp, #12]	@ float
 3069              	.LVL451:
 3070              		.loc 1 430 17 view .LVU742
 3071 0292 FFF7FEFF 		bl	__aeabi_fmul
 3072              	.LVL452:
 3073 0296 0646     		mov	r6, r0
 3074              		.loc 1 430 31 view .LVU743
 3075 0298 2946     		mov	r1, r5
 3076 029a 0198     		ldr	r0, [sp, #4]	@ float
 3077 029c FFF7FEFF 		bl	__aeabi_fmul
 3078              	.LVL453:
 3079 02a0 0146     		mov	r1, r0
 3080              		.loc 1 430 24 view .LVU744
 3081 02a2 3046     		mov	r0, r6
 3082 02a4 FFF7FEFF 		bl	__aeabi_fsub
 3083              	.LVL454:
 3084              		.loc 1 430 39 view .LVU745
 3085 02a8 2146     		mov	r1, r4
 3086 02aa FFF7FEFF 		bl	__aeabi_fdiv
 3087              	.LVL455:
 3088              		.loc 1 430 9 view .LVU746
 3089 02ae FFF7FEFF 		bl	__aeabi_f2iz
 3090              	.LVL456:
 3091 02b2 0646     		mov	r6, r0
 3092              	.LVL457:
 431:Core/Src/main.c ****   for (int i = -1; i < 2; i++)
 3093              		.loc 1 431 3 is_stmt 1 view .LVU747
 3094              	.LBB30:
 3095              		.loc 1 431 8 view .LVU748
 3096              		.loc 1 431 12 is_stmt 0 view .LVU749
 3097 02b4 4FF0FF35 		mov	r5, #-1
 3098              	.LBE30:
 410:Core/Src/main.c ****   for (int i = 0; i < 3; i++)
 3099              		.loc 1 410 57 view .LVU750
 3100 02b8 0023     		movs	r3, #0
 3101 02ba 0393     		str	r3, [sp, #12]	@ float
 410:Core/Src/main.c ****   for (int i = 0; i < 3; i++)
 3102              		.loc 1 410 47 view .LVU751
 3103 02bc 0293     		str	r3, [sp, #8]	@ float
 408:Core/Src/main.c ****   int rivalBeaconD[3];
 3104              		.loc 1 408 45 view .LVU752
 3105 02be 0023     		movs	r3, #0
 3106 02c0 0193     		str	r3, [sp, #4]
 3107 02c2 4B46     		mov	r3, r9
ARM GAS  C:\Users\86183\AppData\Local\Temp\ccaDF7Ye.s 			page 68


 3108 02c4 D146     		mov	r9, r10
 3109 02c6 DA46     		mov	r10, fp
 3110 02c8 9B46     		mov	fp, r3
 3111              	.LBB37:
 3112              		.loc 1 431 3 view .LVU753
 3113 02ca A6E0     		b	.L180
 3114              	.L201:
 3115              		.align	2
 3116              	.L200:
 3117 02cc 00000000 		.word	.LANCHOR11
 3118 02d0 00000000 		.word	.LANCHOR10
 3119              	.LVL458:
 3120              	.L183:
 3121              	.LBB31:
 3122              	.LBB32:
 3123              	.LBB33:
 432:Core/Src/main.c ****     for (int j = -1; j < 2; j++)
 433:Core/Src/main.c ****       if ((int)sqrt(sq(xBase - x[0] + i) + sq(yBase - y[0] + j)) == beaconD[0] && (int)sqrt(sq(xBas
 434:Core/Src/main.c ****       {
 435:Core/Src/main.c ****         int flag = 1;
 436:Core/Src/main.c ****         for (int k = 0; k < RivalBeaconNum; k++)
 3124              		.loc 1 436 45 is_stmt 1 discriminator 2 view .LVU754
 3125              		.loc 1 436 46 is_stmt 0 discriminator 2 view .LVU755
 3126 02d4 09F10109 		add	r9, r9, #1
 3127              	.LVL459:
 3128              	.L182:
 3129              		.loc 1 436 25 is_stmt 1 discriminator 1 view .LVU756
 3130              		.loc 1 436 27 is_stmt 0 discriminator 1 view .LVU757
 3131 02d8 614B     		ldr	r3, .L202
 3132 02da 1B68     		ldr	r3, [r3]
 3133              		.loc 1 436 9 discriminator 1 view .LVU758
 3134 02dc 4B45     		cmp	r3, r9
 3135 02de 3DDD     		ble	.L197
 437:Core/Src/main.c ****           if ((int)sqrt(sq(xBase - RivalBeacon[k].x + i) + sq(yBase - RivalBeacon[k].y + j)) != riv
 3136              		.loc 1 437 11 is_stmt 1 view .LVU759
 3137              		.loc 1 437 25 is_stmt 0 view .LVU760
 3138 02e0 604B     		ldr	r3, .L202+4
 3139 02e2 09EB4902 		add	r2, r9, r9, lsl #1
 3140 02e6 03EB820A 		add	r10, r3, r2, lsl #2
 3141 02ea 53F82280 		ldr	r8, [r3, r2, lsl #2]	@ float
 3142 02ee 3846     		mov	r0, r7
 3143 02f0 FFF7FEFF 		bl	__aeabi_i2f
 3144              	.LVL460:
 3145 02f4 4146     		mov	r1, r8
 3146 02f6 FFF7FEFF 		bl	__aeabi_fsub
 3147              	.LVL461:
 3148 02fa 8046     		mov	r8, r0
 3149 02fc 2846     		mov	r0, r5
 3150 02fe FFF7FEFF 		bl	__aeabi_i2f
 3151              	.LVL462:
 3152 0302 4146     		mov	r1, r8
 3153 0304 FFF7FEFF 		bl	__aeabi_fadd
 3154              	.LVL463:
 3155 0308 0146     		mov	r1, r0
 3156 030a FFF7FEFF 		bl	__aeabi_fmul
 3157              	.LVL464:
 3158 030e 8046     		mov	r8, r0
ARM GAS  C:\Users\86183\AppData\Local\Temp\ccaDF7Ye.s 			page 69


 3159              		.loc 1 437 60 view .LVU761
 3160 0310 DAF804A0 		ldr	r10, [r10, #4]	@ float
 3161 0314 3046     		mov	r0, r6
 3162 0316 FFF7FEFF 		bl	__aeabi_i2f
 3163              	.LVL465:
 3164 031a 5146     		mov	r1, r10
 3165 031c FFF7FEFF 		bl	__aeabi_fsub
 3166              	.LVL466:
 3167 0320 8246     		mov	r10, r0
 3168 0322 2046     		mov	r0, r4
 3169 0324 FFF7FEFF 		bl	__aeabi_i2f
 3170              	.LVL467:
 3171 0328 5146     		mov	r1, r10
 3172 032a FFF7FEFF 		bl	__aeabi_fadd
 3173              	.LVL468:
 3174 032e 0146     		mov	r1, r0
 3175 0330 FFF7FEFF 		bl	__aeabi_fmul
 3176              	.LVL469:
 3177 0334 0146     		mov	r1, r0
 3178              		.loc 1 437 58 view .LVU762
 3179 0336 4046     		mov	r0, r8
 3180 0338 FFF7FEFF 		bl	__aeabi_fadd
 3181              	.LVL470:
 3182              		.loc 1 437 20 view .LVU763
 3183 033c FFF7FEFF 		bl	__aeabi_f2d
 3184              	.LVL471:
 3185 0340 FFF7FEFF 		bl	sqrt
 3186              	.LVL472:
 3187              		.loc 1 437 15 view .LVU764
 3188 0344 FFF7FEFF 		bl	__aeabi_d2iz
 3189              	.LVL473:
 3190              		.loc 1 437 109 view .LVU765
 3191 0348 24AB     		add	r3, sp, #144
 3192 034a 03EB8903 		add	r3, r3, r9, lsl #2
 3193 034e 53F8303C 		ldr	r3, [r3, #-48]
 3194              		.loc 1 437 14 view .LVU766
 3195 0352 9842     		cmp	r0, r3
 3196 0354 BED0     		beq	.L183
 438:Core/Src/main.c ****             flag = 0;
 3197              		.loc 1 438 18 view .LVU767
 3198 0356 0023     		movs	r3, #0
 3199 0358 0A93     		str	r3, [sp, #40]
 3200              	.LVL474:
 3201              		.loc 1 438 18 view .LVU768
 3202 035a BBE7     		b	.L183
 3203              	.LVL475:
 3204              	.L197:
 3205              		.loc 1 438 18 view .LVU769
 3206              	.LBE33:
 439:Core/Src/main.c ****         if (flag)
 3207              		.loc 1 439 12 view .LVU770
 3208 035c DDF82C80 		ldr	r8, [sp, #44]
 3209 0360 DDF834A0 		ldr	r10, [sp, #52]
 3210              		.loc 1 439 9 is_stmt 1 view .LVU771
 3211              		.loc 1 439 12 is_stmt 0 view .LVU772
 3212 0364 0A9B     		ldr	r3, [sp, #40]
 3213 0366 93B1     		cbz	r3, .L181
ARM GAS  C:\Users\86183\AppData\Local\Temp\ccaDF7Ye.s 			page 70


 440:Core/Src/main.c ****           xRes += i, yRes += j, cnt++;
 3214              		.loc 1 440 11 is_stmt 1 view .LVU773
 3215              		.loc 1 440 16 is_stmt 0 view .LVU774
 3216 0368 2846     		mov	r0, r5
 3217 036a FFF7FEFF 		bl	__aeabi_i2f
 3218              	.LVL476:
 3219 036e 0146     		mov	r1, r0
 3220 0370 0298     		ldr	r0, [sp, #8]	@ float
 3221 0372 FFF7FEFF 		bl	__aeabi_fadd
 3222              	.LVL477:
 3223 0376 0290     		str	r0, [sp, #8]	@ float
 3224              	.LVL478:
 3225              		.loc 1 440 27 view .LVU775
 3226 0378 2046     		mov	r0, r4
 3227              	.LVL479:
 3228              		.loc 1 440 27 view .LVU776
 3229 037a FFF7FEFF 		bl	__aeabi_i2f
 3230              	.LVL480:
 3231 037e 0146     		mov	r1, r0
 3232 0380 0398     		ldr	r0, [sp, #12]	@ float
 3233 0382 FFF7FEFF 		bl	__aeabi_fadd
 3234              	.LVL481:
 3235 0386 0390     		str	r0, [sp, #12]	@ float
 3236              	.LVL482:
 3237              		.loc 1 440 36 view .LVU777
 3238 0388 019B     		ldr	r3, [sp, #4]
 3239 038a 0133     		adds	r3, r3, #1
 3240 038c 0193     		str	r3, [sp, #4]
 3241              	.LVL483:
 3242              	.L181:
 3243              		.loc 1 440 36 view .LVU778
 3244              	.LBE32:
 432:Core/Src/main.c ****       if ((int)sqrt(sq(xBase - x[0] + i) + sq(yBase - y[0] + j)) == beaconD[0] && (int)sqrt(sq(xBas
 3245              		.loc 1 432 29 is_stmt 1 discriminator 2 view .LVU779
 432:Core/Src/main.c ****       if ((int)sqrt(sq(xBase - x[0] + i) + sq(yBase - y[0] + j)) == beaconD[0] && (int)sqrt(sq(xBas
 3246              		.loc 1 432 30 is_stmt 0 discriminator 2 view .LVU780
 3247 038e 0134     		adds	r4, r4, #1
 3248              	.LVL484:
 3249              	.L186:
 432:Core/Src/main.c ****       if ((int)sqrt(sq(xBase - x[0] + i) + sq(yBase - y[0] + j)) == beaconD[0] && (int)sqrt(sq(xBas
 3250              		.loc 1 432 22 is_stmt 1 discriminator 1 view .LVU781
 432:Core/Src/main.c ****       if ((int)sqrt(sq(xBase - x[0] + i) + sq(yBase - y[0] + j)) == beaconD[0] && (int)sqrt(sq(xBas
 3251              		.loc 1 432 5 is_stmt 0 discriminator 1 view .LVU782
 3252 0390 012C     		cmp	r4, #1
 3253 0392 40DC     		bgt	.L198
 433:Core/Src/main.c ****       {
 3254              		.loc 1 433 7 is_stmt 1 view .LVU783
 433:Core/Src/main.c ****       {
 3255              		.loc 1 433 21 is_stmt 0 view .LVU784
 3256 0394 A7EB0800 		sub	r0, r7, r8
 3257 0398 2844     		add	r0, r0, r5
 433:Core/Src/main.c ****       {
 3258              		.loc 1 433 44 view .LVU785
 3259 039a A6EB0A03 		sub	r3, r6, r10
 3260 039e 2344     		add	r3, r3, r4
 3261 03a0 03FB03F3 		mul	r3, r3, r3
 433:Core/Src/main.c ****       {
ARM GAS  C:\Users\86183\AppData\Local\Temp\ccaDF7Ye.s 			page 71


 3262              		.loc 1 433 16 view .LVU786
 3263 03a4 00FB0030 		mla	r0, r0, r0, r3
 3264 03a8 FFF7FEFF 		bl	__aeabi_i2d
 3265              	.LVL485:
 3266 03ac FFF7FEFF 		bl	sqrt
 3267              	.LVL486:
 433:Core/Src/main.c ****       {
 3268              		.loc 1 433 11 view .LVU787
 3269 03b0 FFF7FEFF 		bl	__aeabi_d2iz
 3270              	.LVL487:
 433:Core/Src/main.c ****       {
 3271              		.loc 1 433 10 view .LVU788
 3272 03b4 8345     		cmp	fp, r0
 3273 03b6 EAD1     		bne	.L181
 433:Core/Src/main.c ****       {
 3274              		.loc 1 433 93 discriminator 1 view .LVU789
 3275 03b8 069B     		ldr	r3, [sp, #24]
 3276 03ba F81A     		subs	r0, r7, r3
 3277 03bc 2844     		add	r0, r0, r5
 433:Core/Src/main.c ****       {
 3278              		.loc 1 433 116 discriminator 1 view .LVU790
 3279 03be 049B     		ldr	r3, [sp, #16]
 3280 03c0 F31A     		subs	r3, r6, r3
 3281 03c2 2344     		add	r3, r3, r4
 3282 03c4 03FB03F3 		mul	r3, r3, r3
 433:Core/Src/main.c ****       {
 3283              		.loc 1 433 88 discriminator 1 view .LVU791
 3284 03c8 00FB0030 		mla	r0, r0, r0, r3
 3285 03cc FFF7FEFF 		bl	__aeabi_i2d
 3286              	.LVL488:
 3287 03d0 FFF7FEFF 		bl	sqrt
 3288              	.LVL489:
 433:Core/Src/main.c ****       {
 3289              		.loc 1 433 83 discriminator 1 view .LVU792
 3290 03d4 FFF7FEFF 		bl	__aeabi_d2iz
 3291              	.LVL490:
 433:Core/Src/main.c ****       {
 3292              		.loc 1 433 80 discriminator 1 view .LVU793
 3293 03d8 079B     		ldr	r3, [sp, #28]
 3294 03da 8342     		cmp	r3, r0
 3295 03dc D7D1     		bne	.L181
 433:Core/Src/main.c ****       {
 3296              		.loc 1 433 165 discriminator 2 view .LVU794
 3297 03de 089B     		ldr	r3, [sp, #32]
 3298 03e0 F81A     		subs	r0, r7, r3
 3299 03e2 2844     		add	r0, r0, r5
 433:Core/Src/main.c ****       {
 3300              		.loc 1 433 188 discriminator 2 view .LVU795
 3301 03e4 099B     		ldr	r3, [sp, #36]
 3302 03e6 F31A     		subs	r3, r6, r3
 3303 03e8 2344     		add	r3, r3, r4
 3304 03ea 03FB03F3 		mul	r3, r3, r3
 433:Core/Src/main.c ****       {
 3305              		.loc 1 433 160 discriminator 2 view .LVU796
 3306 03ee 00FB0030 		mla	r0, r0, r0, r3
 3307 03f2 FFF7FEFF 		bl	__aeabi_i2d
 3308              	.LVL491:
ARM GAS  C:\Users\86183\AppData\Local\Temp\ccaDF7Ye.s 			page 72


 3309 03f6 FFF7FEFF 		bl	sqrt
 3310              	.LVL492:
 433:Core/Src/main.c ****       {
 3311              		.loc 1 433 155 discriminator 2 view .LVU797
 3312 03fa FFF7FEFF 		bl	__aeabi_d2iz
 3313              	.LVL493:
 433:Core/Src/main.c ****       {
 3314              		.loc 1 433 152 discriminator 2 view .LVU798
 3315 03fe 0C9B     		ldr	r3, [sp, #48]
 3316 0400 8342     		cmp	r3, r0
 3317 0402 C4D1     		bne	.L181
 3318              	.LBB35:
 3319              	.LBB34:
 436:Core/Src/main.c ****           if ((int)sqrt(sq(xBase - RivalBeacon[k].x + i) + sq(yBase - RivalBeacon[k].y + j)) != riv
 3320              		.loc 1 436 18 view .LVU799
 3321 0404 4FF00009 		mov	r9, #0
 3322              	.LBE34:
 435:Core/Src/main.c ****         for (int k = 0; k < RivalBeaconNum; k++)
 3323              		.loc 1 435 13 view .LVU800
 3324 0408 0123     		movs	r3, #1
 3325 040a 0A93     		str	r3, [sp, #40]
 3326 040c CDF82C80 		str	r8, [sp, #44]
 3327 0410 CDF834A0 		str	r10, [sp, #52]
 3328 0414 60E7     		b	.L182
 3329              	.L198:
 435:Core/Src/main.c ****         for (int k = 0; k < RivalBeaconNum; k++)
 3330              		.loc 1 435 13 view .LVU801
 3331              	.LBE35:
 3332              	.LBE31:
 431:Core/Src/main.c ****     for (int j = -1; j < 2; j++)
 3333              		.loc 1 431 28 discriminator 2 view .LVU802
 3334 0416 C146     		mov	r9, r8
 431:Core/Src/main.c ****     for (int j = -1; j < 2; j++)
 3335              		.loc 1 431 27 is_stmt 1 discriminator 2 view .LVU803
 431:Core/Src/main.c ****     for (int j = -1; j < 2; j++)
 3336              		.loc 1 431 28 is_stmt 0 discriminator 2 view .LVU804
 3337 0418 0135     		adds	r5, r5, #1
 3338              	.LVL494:
 3339              	.L180:
 431:Core/Src/main.c ****     for (int j = -1; j < 2; j++)
 3340              		.loc 1 431 20 is_stmt 1 discriminator 1 view .LVU805
 431:Core/Src/main.c ****     for (int j = -1; j < 2; j++)
 3341              		.loc 1 431 3 is_stmt 0 discriminator 1 view .LVU806
 3342 041a 012D     		cmp	r5, #1
 3343 041c 03DC     		bgt	.L199
 3344              	.LBB36:
 432:Core/Src/main.c ****       if ((int)sqrt(sq(xBase - x[0] + i) + sq(yBase - y[0] + j)) == beaconD[0] && (int)sqrt(sq(xBas
 3345              		.loc 1 432 14 view .LVU807
 3346 041e 4FF0FF34 		mov	r4, #-1
 3347 0422 C846     		mov	r8, r9
 3348 0424 B4E7     		b	.L186
 3349              	.L199:
 3350              	.LBE36:
 3351              	.LBE37:
 441:Core/Src/main.c ****       }
 442:Core/Src/main.c ****   if (cnt != 1)
 3352              		.loc 1 442 3 is_stmt 1 view .LVU808
ARM GAS  C:\Users\86183\AppData\Local\Temp\ccaDF7Ye.s 			page 73


 3353              		.loc 1 442 6 is_stmt 0 view .LVU809
 3354 0426 019B     		ldr	r3, [sp, #4]
 3355 0428 012B     		cmp	r3, #1
 3356 042a 08D0     		beq	.L187
 443:Core/Src/main.c ****   {
 444:Core/Src/main.c ****     coord.x = -1.0;
 3357              		.loc 1 444 5 is_stmt 1 view .LVU810
 3358              		.loc 1 444 13 is_stmt 0 view .LVU811
 3359 042c 0E4B     		ldr	r3, .L202+8
 3360 042e 059A     		ldr	r2, [sp, #20]
 3361 0430 1360     		str	r3, [r2]	@ float
 445:Core/Src/main.c ****     coord.y = -1.0;
 3362              		.loc 1 445 5 is_stmt 1 view .LVU812
 3363              		.loc 1 445 13 is_stmt 0 view .LVU813
 3364 0432 5360     		str	r3, [r2, #4]	@ float
 446:Core/Src/main.c ****     coord.I = -1.0;
 3365              		.loc 1 446 5 is_stmt 1 view .LVU814
 3366              		.loc 1 446 13 is_stmt 0 view .LVU815
 3367 0434 9360     		str	r3, [r2, #8]	@ float
 3368              	.LVL495:
 3369              	.L174:
 447:Core/Src/main.c ****   }
 448:Core/Src/main.c ****   else
 449:Core/Src/main.c ****   {
 450:Core/Src/main.c ****     coord.x = xBase + xRes;
 451:Core/Src/main.c ****     coord.y = yBase + yRes;
 452:Core/Src/main.c ****   }
 453:Core/Src/main.c ****   return coord;
 454:Core/Src/main.c **** }
 3370              		.loc 1 454 1 view .LVU816
 3371 0436 0598     		ldr	r0, [sp, #20]
 3372 0438 25B0     		add	sp, sp, #148
 3373              	.LCFI16:
 3374              		.cfi_remember_state
 3375              		.cfi_def_cfa_offset 36
 3376              		@ sp needed
 3377 043a BDE8F08F 		pop	{r4, r5, r6, r7, r8, r9, r10, fp, pc}
 3378              	.LVL496:
 3379              	.L187:
 3380              	.LCFI17:
 3381              		.cfi_restore_state
 450:Core/Src/main.c ****     coord.y = yBase + yRes;
 3382              		.loc 1 450 5 is_stmt 1 view .LVU817
 450:Core/Src/main.c ****     coord.y = yBase + yRes;
 3383              		.loc 1 450 21 is_stmt 0 view .LVU818
 3384 043e 3846     		mov	r0, r7
 3385 0440 FFF7FEFF 		bl	__aeabi_i2f
 3386              	.LVL497:
 3387 0444 0299     		ldr	r1, [sp, #8]	@ float
 3388 0446 FFF7FEFF 		bl	__aeabi_fadd
 3389              	.LVL498:
 450:Core/Src/main.c ****     coord.y = yBase + yRes;
 3390              		.loc 1 450 13 view .LVU819
 3391 044a 059C     		ldr	r4, [sp, #20]
 3392 044c 2060     		str	r0, [r4]	@ float
 451:Core/Src/main.c ****   }
 3393              		.loc 1 451 5 is_stmt 1 view .LVU820
ARM GAS  C:\Users\86183\AppData\Local\Temp\ccaDF7Ye.s 			page 74


 451:Core/Src/main.c ****   }
 3394              		.loc 1 451 21 is_stmt 0 view .LVU821
 3395 044e 3046     		mov	r0, r6
 3396 0450 FFF7FEFF 		bl	__aeabi_i2f
 3397              	.LVL499:
 3398 0454 0399     		ldr	r1, [sp, #12]	@ float
 3399 0456 FFF7FEFF 		bl	__aeabi_fadd
 3400              	.LVL500:
 451:Core/Src/main.c ****   }
 3401              		.loc 1 451 13 view .LVU822
 3402 045a 6060     		str	r0, [r4, #4]	@ float
 453:Core/Src/main.c **** }
 3403              		.loc 1 453 3 is_stmt 1 view .LVU823
 453:Core/Src/main.c **** }
 3404              		.loc 1 453 10 is_stmt 0 view .LVU824
 3405 045c EBE7     		b	.L174
 3406              	.L203:
 3407 045e 00BF     		.align	2
 3408              	.L202:
 3409 0460 00000000 		.word	.LANCHOR11
 3410 0464 00000000 		.word	.LANCHOR10
 3411 0468 000080BF 		.word	-1082130432
 3412              		.cfi_endproc
 3413              	.LFE78:
 3415              		.global	__aeabi_ddiv
 3416              		.section	.text.Calculate_Package_Position,"ax",%progbits
 3417              		.align	1
 3418              		.global	Calculate_Package_Position
 3419              		.syntax unified
 3420              		.thumb
 3421              		.thumb_func
 3422              		.fpu softvfp
 3424              	Calculate_Package_Position:
 3425              	.LVL501:
 3426              	.LFB79:
 455:Core/Src/main.c **** 
 456:Core/Src/main.c **** void Calculate_Package_Position(int i)
 457:Core/Src/main.c **** {
 3427              		.loc 1 457 1 is_stmt 1 view -0
 3428              		.cfi_startproc
 3429              		@ args = 0, pretend = 0, frame = 64
 3430              		@ frame_needed = 0, uses_anonymous_args = 0
 3431              		.loc 1 457 1 is_stmt 0 view .LVU826
 3432 0000 2DE9F04F 		push	{r4, r5, r6, r7, r8, r9, r10, fp, lr}
 3433              	.LCFI18:
 3434              		.cfi_def_cfa_offset 36
 3435              		.cfi_offset 4, -36
 3436              		.cfi_offset 5, -32
 3437              		.cfi_offset 6, -28
 3438              		.cfi_offset 7, -24
 3439              		.cfi_offset 8, -20
 3440              		.cfi_offset 9, -16
 3441              		.cfi_offset 10, -12
 3442              		.cfi_offset 11, -8
 3443              		.cfi_offset 14, -4
 3444 0004 91B0     		sub	sp, sp, #68
 3445              	.LCFI19:
ARM GAS  C:\Users\86183\AppData\Local\Temp\ccaDF7Ye.s 			page 75


 3446              		.cfi_def_cfa_offset 104
 3447 0006 8346     		mov	fp, r0
 458:Core/Src/main.c ****   float A[2], B[2], C[2], invdet;
 3448              		.loc 1 458 3 is_stmt 1 view .LVU827
 459:Core/Src/main.c ****   A[0] = surveyData[i][1].x - surveyData[i][0].x;
 3449              		.loc 1 459 3 view .LVU828
 3450              		.loc 1 459 26 is_stmt 0 view .LVU829
 3451 0008 894B     		ldr	r3, .L206+8
 3452 000a 00EBC002 		add	r2, r0, r0, lsl #3
 3453 000e 03EB8207 		add	r7, r3, r2, lsl #2
 3454 0012 D7F80CA0 		ldr	r10, [r7, #12]	@ float
 3455              		.loc 1 459 47 view .LVU830
 3456 0016 53F82230 		ldr	r3, [r3, r2, lsl #2]	@ float
 3457              		.loc 1 459 29 view .LVU831
 3458 001a 0393     		str	r3, [sp, #12]	@ float
 3459 001c 1946     		mov	r1, r3
 3460 001e 5046     		mov	r0, r10
 3461              	.LVL502:
 3462              		.loc 1 459 29 view .LVU832
 3463 0020 FFF7FEFF 		bl	__aeabi_fsub
 3464              	.LVL503:
 3465              		.loc 1 459 8 view .LVU833
 3466 0024 0190     		str	r0, [sp, #4]	@ float
 3467 0026 0E90     		str	r0, [sp, #56]	@ float
 460:Core/Src/main.c ****   A[1] = surveyData[i][2].x - surveyData[i][1].x;
 3468              		.loc 1 460 3 is_stmt 1 view .LVU834
 3469              		.loc 1 460 26 is_stmt 0 view .LVU835
 3470 0028 BA69     		ldr	r2, [r7, #24]	@ float
 3471              		.loc 1 460 29 view .LVU836
 3472 002a 5146     		mov	r1, r10
 3473 002c 0492     		str	r2, [sp, #16]	@ float
 3474 002e 1046     		mov	r0, r2
 3475 0030 FFF7FEFF 		bl	__aeabi_fsub
 3476              	.LVL504:
 3477              		.loc 1 460 8 view .LVU837
 3478 0034 0690     		str	r0, [sp, #24]	@ float
 3479 0036 0F90     		str	r0, [sp, #60]	@ float
 461:Core/Src/main.c ****   B[0] = surveyData[i][1].y - surveyData[i][0].y;
 3480              		.loc 1 461 3 is_stmt 1 view .LVU838
 3481              		.loc 1 461 26 is_stmt 0 view .LVU839
 3482 0038 3D69     		ldr	r5, [r7, #16]	@ float
 3483              		.loc 1 461 47 view .LVU840
 3484 003a 7C68     		ldr	r4, [r7, #4]	@ float
 3485              		.loc 1 461 29 view .LVU841
 3486 003c 2146     		mov	r1, r4
 3487 003e 2846     		mov	r0, r5
 3488 0040 FFF7FEFF 		bl	__aeabi_fsub
 3489              	.LVL505:
 3490              		.loc 1 461 8 view .LVU842
 3491 0044 0290     		str	r0, [sp, #8]	@ float
 3492 0046 0C90     		str	r0, [sp, #48]	@ float
 462:Core/Src/main.c ****   B[1] = surveyData[i][2].y - surveyData[i][1].y;
 3493              		.loc 1 462 3 is_stmt 1 view .LVU843
 3494              		.loc 1 462 26 is_stmt 0 view .LVU844
 3495 0048 FA69     		ldr	r2, [r7, #28]	@ float
 3496              		.loc 1 462 29 view .LVU845
 3497 004a 2946     		mov	r1, r5
ARM GAS  C:\Users\86183\AppData\Local\Temp\ccaDF7Ye.s 			page 76


 3498 004c 0592     		str	r2, [sp, #20]	@ float
 3499 004e 1046     		mov	r0, r2
 3500 0050 FFF7FEFF 		bl	__aeabi_fsub
 3501              	.LVL506:
 3502              		.loc 1 462 8 view .LVU846
 3503 0054 0790     		str	r0, [sp, #28]	@ float
 3504 0056 0D90     		str	r0, [sp, #52]	@ float
 463:Core/Src/main.c ****   C[0] = 2.0e9 * (surveyData[i][1].I - surveyData[i][0].I) / (surveyData[i][1].I + surveyData[i][0]
 3505              		.loc 1 463 3 is_stmt 1 view .LVU847
 3506              		.loc 1 463 35 is_stmt 0 view .LVU848
 3507 0058 7E69     		ldr	r6, [r7, #20]	@ float
 3508              		.loc 1 463 56 view .LVU849
 3509 005a D7F80880 		ldr	r8, [r7, #8]	@ float
 3510              		.loc 1 463 38 view .LVU850
 3511 005e 4146     		mov	r1, r8
 3512 0060 3046     		mov	r0, r6
 3513 0062 FFF7FEFF 		bl	__aeabi_fsub
 3514              	.LVL507:
 3515 0066 FFF7FEFF 		bl	__aeabi_f2d
 3516              	.LVL508:
 3517              		.loc 1 463 16 view .LVU851
 3518 006a 6FA3     		adr	r3, .L206
 3519 006c D3E90023 		ldrd	r2, [r3]
 3520 0070 FFF7FEFF 		bl	__aeabi_dmul
 3521              	.LVL509:
 3522 0074 CDE90801 		strd	r0, [sp, #32]
 3523              		.loc 1 463 82 view .LVU852
 3524 0078 4146     		mov	r1, r8
 3525 007a 3046     		mov	r0, r6
 3526 007c FFF7FEFF 		bl	__aeabi_fadd
 3527              	.LVL510:
 3528 0080 FFF7FEFF 		bl	__aeabi_f2d
 3529              	.LVL511:
 3530 0084 8046     		mov	r8, r0
 3531 0086 8946     		mov	r9, r1
 3532              		.loc 1 463 60 view .LVU853
 3533 0088 0246     		mov	r2, r0
 3534 008a 0B46     		mov	r3, r1
 3535 008c DDE90801 		ldrd	r0, [sp, #32]
 3536 0090 FFF7FEFF 		bl	__aeabi_ddiv
 3537              	.LVL512:
 3538              		.loc 1 463 104 view .LVU854
 3539 0094 4246     		mov	r2, r8
 3540 0096 4B46     		mov	r3, r9
 3541 0098 FFF7FEFF 		bl	__aeabi_ddiv
 3542              	.LVL513:
 3543 009c 8046     		mov	r8, r0
 3544 009e 8946     		mov	r9, r1
 3545              		.loc 1 463 170 view .LVU855
 3546 00a0 0399     		ldr	r1, [sp, #12]	@ float
 3547 00a2 5046     		mov	r0, r10
 3548 00a4 FFF7FEFF 		bl	__aeabi_fadd
 3549              	.LVL514:
 3550 00a8 0146     		mov	r1, r0
 3551              		.loc 1 463 192 view .LVU856
 3552 00aa 0198     		ldr	r0, [sp, #4]	@ float
 3553 00ac FFF7FEFF 		bl	__aeabi_fmul
ARM GAS  C:\Users\86183\AppData\Local\Temp\ccaDF7Ye.s 			page 77


 3554              	.LVL515:
 3555 00b0 FFF7FEFF 		bl	__aeabi_f2d
 3556              	.LVL516:
 3557              		.loc 1 463 199 view .LVU857
 3558 00b4 0022     		movs	r2, #0
 3559 00b6 5F4B     		ldr	r3, .L206+12
 3560 00b8 FFF7FEFF 		bl	__aeabi_dmul
 3561              	.LVL517:
 3562 00bc 0246     		mov	r2, r0
 3563 00be 0B46     		mov	r3, r1
 3564              		.loc 1 463 148 view .LVU858
 3565 00c0 4046     		mov	r0, r8
 3566 00c2 4946     		mov	r1, r9
 3567 00c4 FFF7FEFF 		bl	__aeabi_dadd
 3568              	.LVL518:
 3569 00c8 8046     		mov	r8, r0
 3570 00ca 8946     		mov	r9, r1
 3571              		.loc 1 463 227 view .LVU859
 3572 00cc 2146     		mov	r1, r4
 3573 00ce 2846     		mov	r0, r5
 3574 00d0 FFF7FEFF 		bl	__aeabi_fadd
 3575              	.LVL519:
 3576 00d4 0146     		mov	r1, r0
 3577              		.loc 1 463 249 view .LVU860
 3578 00d6 0298     		ldr	r0, [sp, #8]	@ float
 3579 00d8 FFF7FEFF 		bl	__aeabi_fmul
 3580              	.LVL520:
 3581 00dc FFF7FEFF 		bl	__aeabi_f2d
 3582              	.LVL521:
 3583              		.loc 1 463 256 view .LVU861
 3584 00e0 0022     		movs	r2, #0
 3585 00e2 544B     		ldr	r3, .L206+12
 3586 00e4 FFF7FEFF 		bl	__aeabi_dmul
 3587              	.LVL522:
 3588 00e8 0246     		mov	r2, r0
 3589 00ea 0B46     		mov	r3, r1
 3590              		.loc 1 463 205 view .LVU862
 3591 00ec 4046     		mov	r0, r8
 3592 00ee 4946     		mov	r1, r9
 3593 00f0 FFF7FEFF 		bl	__aeabi_dadd
 3594              	.LVL523:
 3595 00f4 FFF7FEFF 		bl	__aeabi_d2f
 3596              	.LVL524:
 3597 00f8 0446     		mov	r4, r0
 3598              		.loc 1 463 8 view .LVU863
 3599 00fa 0A90     		str	r0, [sp, #40]	@ float
 464:Core/Src/main.c ****   C[1] = 2.0e9 * (surveyData[i][2].I - surveyData[i][1].I) / (surveyData[i][2].I + surveyData[i][1]
 3600              		.loc 1 464 3 is_stmt 1 view .LVU864
 3601              		.loc 1 464 35 is_stmt 0 view .LVU865
 3602 00fc 3F6A     		ldr	r7, [r7, #32]	@ float
 3603              		.loc 1 464 38 view .LVU866
 3604 00fe 3146     		mov	r1, r6
 3605 0100 3846     		mov	r0, r7
 3606 0102 FFF7FEFF 		bl	__aeabi_fsub
 3607              	.LVL525:
 3608 0106 FFF7FEFF 		bl	__aeabi_f2d
 3609              	.LVL526:
ARM GAS  C:\Users\86183\AppData\Local\Temp\ccaDF7Ye.s 			page 78


 3610              		.loc 1 464 16 view .LVU867
 3611 010a 47A3     		adr	r3, .L206
 3612 010c D3E90023 		ldrd	r2, [r3]
 3613 0110 FFF7FEFF 		bl	__aeabi_dmul
 3614              	.LVL527:
 3615 0114 8046     		mov	r8, r0
 3616 0116 8946     		mov	r9, r1
 3617              		.loc 1 464 82 view .LVU868
 3618 0118 3946     		mov	r1, r7
 3619 011a 3046     		mov	r0, r6
 3620 011c FFF7FEFF 		bl	__aeabi_fadd
 3621              	.LVL528:
 3622 0120 FFF7FEFF 		bl	__aeabi_f2d
 3623              	.LVL529:
 3624 0124 0646     		mov	r6, r0
 3625 0126 0F46     		mov	r7, r1
 3626              		.loc 1 464 60 view .LVU869
 3627 0128 0246     		mov	r2, r0
 3628 012a 0B46     		mov	r3, r1
 3629 012c 4046     		mov	r0, r8
 3630 012e 4946     		mov	r1, r9
 3631 0130 FFF7FEFF 		bl	__aeabi_ddiv
 3632              	.LVL530:
 3633              		.loc 1 464 104 view .LVU870
 3634 0134 3246     		mov	r2, r6
 3635 0136 3B46     		mov	r3, r7
 3636 0138 FFF7FEFF 		bl	__aeabi_ddiv
 3637              	.LVL531:
 3638 013c 0646     		mov	r6, r0
 3639 013e 0F46     		mov	r7, r1
 3640              		.loc 1 464 170 view .LVU871
 3641 0140 0499     		ldr	r1, [sp, #16]	@ float
 3642 0142 5046     		mov	r0, r10
 3643 0144 FFF7FEFF 		bl	__aeabi_fadd
 3644              	.LVL532:
 3645 0148 0146     		mov	r1, r0
 3646              		.loc 1 464 192 view .LVU872
 3647 014a DDF81890 		ldr	r9, [sp, #24]	@ float
 3648 014e 4846     		mov	r0, r9
 3649 0150 FFF7FEFF 		bl	__aeabi_fmul
 3650              	.LVL533:
 3651 0154 FFF7FEFF 		bl	__aeabi_f2d
 3652              	.LVL534:
 3653              		.loc 1 464 199 view .LVU873
 3654 0158 0022     		movs	r2, #0
 3655 015a 364B     		ldr	r3, .L206+12
 3656 015c FFF7FEFF 		bl	__aeabi_dmul
 3657              	.LVL535:
 3658 0160 0246     		mov	r2, r0
 3659 0162 0B46     		mov	r3, r1
 3660              		.loc 1 464 148 view .LVU874
 3661 0164 3046     		mov	r0, r6
 3662 0166 3946     		mov	r1, r7
 3663 0168 FFF7FEFF 		bl	__aeabi_dadd
 3664              	.LVL536:
 3665 016c 0646     		mov	r6, r0
 3666 016e 0F46     		mov	r7, r1
ARM GAS  C:\Users\86183\AppData\Local\Temp\ccaDF7Ye.s 			page 79


 3667              		.loc 1 464 227 view .LVU875
 3668 0170 0599     		ldr	r1, [sp, #20]	@ float
 3669 0172 2846     		mov	r0, r5
 3670 0174 FFF7FEFF 		bl	__aeabi_fadd
 3671              	.LVL537:
 3672 0178 0146     		mov	r1, r0
 3673              		.loc 1 464 249 view .LVU876
 3674 017a DDF81CA0 		ldr	r10, [sp, #28]	@ float
 3675 017e 5046     		mov	r0, r10
 3676 0180 FFF7FEFF 		bl	__aeabi_fmul
 3677              	.LVL538:
 3678 0184 FFF7FEFF 		bl	__aeabi_f2d
 3679              	.LVL539:
 3680              		.loc 1 464 256 view .LVU877
 3681 0188 0022     		movs	r2, #0
 3682 018a 2A4B     		ldr	r3, .L206+12
 3683 018c FFF7FEFF 		bl	__aeabi_dmul
 3684              	.LVL540:
 3685 0190 0246     		mov	r2, r0
 3686 0192 0B46     		mov	r3, r1
 3687              		.loc 1 464 205 view .LVU878
 3688 0194 3046     		mov	r0, r6
 3689 0196 3946     		mov	r1, r7
 3690 0198 FFF7FEFF 		bl	__aeabi_dadd
 3691              	.LVL541:
 3692 019c FFF7FEFF 		bl	__aeabi_d2f
 3693              	.LVL542:
 3694 01a0 0546     		mov	r5, r0
 3695              		.loc 1 464 8 view .LVU879
 3696 01a2 0B90     		str	r0, [sp, #44]	@ float
 465:Core/Src/main.c ****   invdet = 1.0 / (A[0] * B[1] - A[1] * B[0]);
 3697              		.loc 1 465 3 is_stmt 1 view .LVU880
 3698              		.loc 1 465 24 is_stmt 0 view .LVU881
 3699 01a4 5746     		mov	r7, r10
 3700 01a6 5146     		mov	r1, r10
 3701 01a8 DDF80480 		ldr	r8, [sp, #4]	@ float
 3702 01ac 4046     		mov	r0, r8
 3703 01ae FFF7FEFF 		bl	__aeabi_fmul
 3704              	.LVL543:
 3705 01b2 0646     		mov	r6, r0
 3706              		.loc 1 465 38 view .LVU882
 3707 01b4 DDF808A0 		ldr	r10, [sp, #8]	@ float
 3708 01b8 5146     		mov	r1, r10
 3709 01ba 4846     		mov	r0, r9
 3710 01bc FFF7FEFF 		bl	__aeabi_fmul
 3711              	.LVL544:
 3712 01c0 0146     		mov	r1, r0
 3713              		.loc 1 465 31 view .LVU883
 3714 01c2 3046     		mov	r0, r6
 3715 01c4 FFF7FEFF 		bl	__aeabi_fsub
 3716              	.LVL545:
 3717 01c8 0146     		mov	r1, r0
 3718              		.loc 1 465 10 view .LVU884
 3719 01ca 4FF07E50 		mov	r0, #1065353216
 3720 01ce FFF7FEFF 		bl	__aeabi_fdiv
 3721              	.LVL546:
 3722 01d2 0646     		mov	r6, r0
ARM GAS  C:\Users\86183\AppData\Local\Temp\ccaDF7Ye.s 			page 80


 3723              	.LVL547:
 466:Core/Src/main.c ****   packageX[i] = (B[1] * C[0] - B[0] * C[1]) * invdet;
 3724              		.loc 1 466 3 is_stmt 1 view .LVU885
 3725              		.loc 1 466 23 is_stmt 0 view .LVU886
 3726 01d4 2146     		mov	r1, r4
 3727 01d6 3846     		mov	r0, r7
 3728              	.LVL548:
 3729              		.loc 1 466 23 view .LVU887
 3730 01d8 FFF7FEFF 		bl	__aeabi_fmul
 3731              	.LVL549:
 3732 01dc 0746     		mov	r7, r0
 3733              		.loc 1 466 37 view .LVU888
 3734 01de 2946     		mov	r1, r5
 3735 01e0 5046     		mov	r0, r10
 3736 01e2 FFF7FEFF 		bl	__aeabi_fmul
 3737              	.LVL550:
 3738 01e6 0146     		mov	r1, r0
 3739              		.loc 1 466 30 view .LVU889
 3740 01e8 3846     		mov	r0, r7
 3741 01ea FFF7FEFF 		bl	__aeabi_fsub
 3742              	.LVL551:
 3743              		.loc 1 466 45 view .LVU890
 3744 01ee 3146     		mov	r1, r6
 3745 01f0 FFF7FEFF 		bl	__aeabi_fmul
 3746              	.LVL552:
 3747              		.loc 1 466 15 view .LVU891
 3748 01f4 104B     		ldr	r3, .L206+16
 3749 01f6 43F82B00 		str	r0, [r3, fp, lsl #2]	@ float
 467:Core/Src/main.c ****   packageY[i] = (A[0] * C[1] - A[1] * C[0]) * invdet;
 3750              		.loc 1 467 3 is_stmt 1 view .LVU892
 3751              		.loc 1 467 23 is_stmt 0 view .LVU893
 3752 01fa 2946     		mov	r1, r5
 3753 01fc 4046     		mov	r0, r8
 3754 01fe FFF7FEFF 		bl	__aeabi_fmul
 3755              	.LVL553:
 3756 0202 0546     		mov	r5, r0
 3757              		.loc 1 467 37 view .LVU894
 3758 0204 2146     		mov	r1, r4
 3759 0206 4846     		mov	r0, r9
 3760 0208 FFF7FEFF 		bl	__aeabi_fmul
 3761              	.LVL554:
 3762 020c 0146     		mov	r1, r0
 3763              		.loc 1 467 30 view .LVU895
 3764 020e 2846     		mov	r0, r5
 3765 0210 FFF7FEFF 		bl	__aeabi_fsub
 3766              	.LVL555:
 3767              		.loc 1 467 45 view .LVU896
 3768 0214 3146     		mov	r1, r6
 3769 0216 FFF7FEFF 		bl	__aeabi_fmul
 3770              	.LVL556:
 3771              		.loc 1 467 15 view .LVU897
 3772 021a 084B     		ldr	r3, .L206+20
 3773 021c 43F82B00 		str	r0, [r3, fp, lsl #2]	@ float
 468:Core/Src/main.c **** }
 3774              		.loc 1 468 1 view .LVU898
 3775 0220 11B0     		add	sp, sp, #68
 3776              	.LCFI20:
ARM GAS  C:\Users\86183\AppData\Local\Temp\ccaDF7Ye.s 			page 81


 3777              		.cfi_def_cfa_offset 36
 3778              		@ sp needed
 3779 0222 BDE8F08F 		pop	{r4, r5, r6, r7, r8, r9, r10, fp, pc}
 3780              	.LVL557:
 3781              	.L207:
 3782              		.loc 1 468 1 view .LVU899
 3783 0226 00BF     		.align	3
 3784              	.L206:
 3785 0228 00000000 		.word	0
 3786 022c 65CDDD41 		.word	1105055077
 3787 0230 00000000 		.word	.LANCHOR12
 3788 0234 0000E03F 		.word	1071644672
 3789 0238 00000000 		.word	.LANCHOR13
 3790 023c 00000000 		.word	.LANCHOR14
 3791              		.cfi_endproc
 3792              	.LFE79:
 3794              		.section	.text.survey,"ax",%progbits
 3795              		.align	1
 3796              		.global	survey
 3797              		.syntax unified
 3798              		.thumb
 3799              		.thumb_func
 3800              		.fpu softvfp
 3802              	survey:
 3803              	.LFB80:
 469:Core/Src/main.c **** 
 470:Core/Src/main.c **** void survey()
 471:Core/Src/main.c **** {
 3804              		.loc 1 471 1 is_stmt 1 view -0
 3805              		.cfi_startproc
 3806              		@ args = 0, pretend = 0, frame = 16
 3807              		@ frame_needed = 0, uses_anonymous_args = 0
 3808 0000 2DE9F043 		push	{r4, r5, r6, r7, r8, r9, lr}
 3809              	.LCFI21:
 3810              		.cfi_def_cfa_offset 28
 3811              		.cfi_offset 4, -28
 3812              		.cfi_offset 5, -24
 3813              		.cfi_offset 6, -20
 3814              		.cfi_offset 7, -16
 3815              		.cfi_offset 8, -12
 3816              		.cfi_offset 9, -8
 3817              		.cfi_offset 14, -4
 3818 0004 85B0     		sub	sp, sp, #20
 3819              	.LCFI22:
 3820              		.cfi_def_cfa_offset 48
 472:Core/Src/main.c ****   struct MYCOORD coord = surveyGetCarPos();
 3821              		.loc 1 472 3 view .LVU901
 3822              		.loc 1 472 26 is_stmt 0 view .LVU902
 3823 0006 01A8     		add	r0, sp, #4
 3824 0008 FFF7FEFF 		bl	surveyGetCarPos
 3825              	.LVL558:
 473:Core/Src/main.c ****   if (coord.I < -0.5)
 3826              		.loc 1 473 3 is_stmt 1 view .LVU903
 3827              		.loc 1 473 6 is_stmt 0 view .LVU904
 3828 000c 4FF03F41 		mov	r1, #-1090519040
 3829 0010 0398     		ldr	r0, [sp, #12]	@ float
 3830 0012 FFF7FEFF 		bl	__aeabi_fcmplt
ARM GAS  C:\Users\86183\AppData\Local\Temp\ccaDF7Ye.s 			page 82


 3831              	.LVL559:
 3832 0016 0028     		cmp	r0, #0
 3833 0018 40F0CD80 		bne	.L208
 3834              	.LBB38:
 474:Core/Src/main.c ****     return;
 475:Core/Src/main.c ****   for (int i = 0; i < 2; i++)
 3835              		.loc 1 475 12 view .LVU905
 3836 001c 0024     		movs	r4, #0
 3837 001e 14E0     		b	.L209
 3838              	.LVL560:
 3839              	.L234:
 476:Core/Src/main.c ****   {
 477:Core/Src/main.c ****     if (isPackageValid[i])
 478:Core/Src/main.c ****       continue;
 479:Core/Src/main.c ****     if (surveyDataCount[i] == 0)
 480:Core/Src/main.c ****     {
 481:Core/Src/main.c ****       surveyData[i][0] = coord;
 3840              		.loc 1 481 7 is_stmt 1 view .LVU906
 3841              		.loc 1 481 24 is_stmt 0 view .LVU907
 3842 0020 04EBC405 		add	r5, r4, r4, lsl #3
 3843 0024 654B     		ldr	r3, .L236
 3844 0026 03EB8505 		add	r5, r3, r5, lsl #2
 3845 002a 04AB     		add	r3, sp, #16
 3846 002c 13E90700 		ldmdb	r3, {r0, r1, r2}
 3847 0030 85E80700 		stm	r5, {r0, r1, r2}
 482:Core/Src/main.c ****       surveyData[i][0].I = getMineIntensity(i);
 3848              		.loc 1 482 7 is_stmt 1 view .LVU908
 3849              		.loc 1 482 28 is_stmt 0 view .LVU909
 3850 0034 2046     		mov	r0, r4
 3851 0036 FFF7FEFF 		bl	getMineIntensity
 3852              	.LVL561:
 3853              		.loc 1 482 26 view .LVU910
 3854 003a FFF7FEFF 		bl	__aeabi_ui2f
 3855              	.LVL562:
 3856 003e A860     		str	r0, [r5, #8]	@ float
 483:Core/Src/main.c ****       surveyDataCount[i] = 1;
 3857              		.loc 1 483 7 is_stmt 1 view .LVU911
 3858              		.loc 1 483 26 is_stmt 0 view .LVU912
 3859 0040 5F4B     		ldr	r3, .L236+4
 3860 0042 0122     		movs	r2, #1
 3861 0044 43F82420 		str	r2, [r3, r4, lsl #2]
 3862              	.L212:
 475:Core/Src/main.c ****   {
 3863              		.loc 1 475 26 is_stmt 1 discriminator 2 view .LVU913
 475:Core/Src/main.c ****   {
 3864              		.loc 1 475 27 is_stmt 0 discriminator 2 view .LVU914
 3865 0048 0134     		adds	r4, r4, #1
 3866              	.LVL563:
 3867              	.L209:
 475:Core/Src/main.c ****   {
 3868              		.loc 1 475 19 is_stmt 1 discriminator 1 view .LVU915
 475:Core/Src/main.c ****   {
 3869              		.loc 1 475 3 is_stmt 0 discriminator 1 view .LVU916
 3870 004a 012C     		cmp	r4, #1
 3871 004c 7BDC     		bgt	.L233
 477:Core/Src/main.c ****       continue;
 3872              		.loc 1 477 5 is_stmt 1 view .LVU917
ARM GAS  C:\Users\86183\AppData\Local\Temp\ccaDF7Ye.s 			page 83


 477:Core/Src/main.c ****       continue;
 3873              		.loc 1 477 23 is_stmt 0 view .LVU918
 3874 004e 5D4B     		ldr	r3, .L236+8
 3875 0050 53F82430 		ldr	r3, [r3, r4, lsl #2]
 477:Core/Src/main.c ****       continue;
 3876              		.loc 1 477 8 view .LVU919
 3877 0054 002B     		cmp	r3, #0
 3878 0056 F7D1     		bne	.L212
 479:Core/Src/main.c ****     {
 3879              		.loc 1 479 5 is_stmt 1 view .LVU920
 479:Core/Src/main.c ****     {
 3880              		.loc 1 479 24 is_stmt 0 view .LVU921
 3881 0058 594B     		ldr	r3, .L236+4
 3882 005a 53F82430 		ldr	r3, [r3, r4, lsl #2]
 479:Core/Src/main.c ****     {
 3883              		.loc 1 479 8 view .LVU922
 3884 005e 002B     		cmp	r3, #0
 3885 0060 DED0     		beq	.L234
 484:Core/Src/main.c ****     }
 485:Core/Src/main.c ****     else if (surveyDataCount[i] == 1)
 3886              		.loc 1 485 10 is_stmt 1 view .LVU923
 3887              		.loc 1 485 13 is_stmt 0 view .LVU924
 3888 0062 012B     		cmp	r3, #1
 3889 0064 3DD0     		beq	.L235
 486:Core/Src/main.c ****     {
 487:Core/Src/main.c ****       if ((int)coord.x == (int)surveyData[i][0].x && (int)coord.y == (int)surveyData[i][0].y)
 488:Core/Src/main.c ****         continue;
 489:Core/Src/main.c ****       surveyData[i][1] = coord;
 490:Core/Src/main.c ****       surveyData[i][1].I = getMineIntensity(i);
 491:Core/Src/main.c ****       surveyDataCount[i] = 2;
 492:Core/Src/main.c ****     }
 493:Core/Src/main.c ****     else if (surveyDataCount[i] == 2)
 3890              		.loc 1 493 10 is_stmt 1 view .LVU925
 3891              		.loc 1 493 13 is_stmt 0 view .LVU926
 3892 0066 022B     		cmp	r3, #2
 3893 0068 EED1     		bne	.L212
 494:Core/Src/main.c ****     {
 495:Core/Src/main.c ****       if (((int)surveyData[i][1].x - (int)surveyData[i][0].x) * ((int)coord.y - (int)surveyData[i][
 3894              		.loc 1 495 7 is_stmt 1 view .LVU927
 3895              		.loc 1 495 33 is_stmt 0 view .LVU928
 3896 006a 544E     		ldr	r6, .L236
 3897 006c 04EBC407 		add	r7, r4, r4, lsl #3
 3898 0070 4FEA8708 		lsl	r8, r7, #2
 3899 0074 06EB8707 		add	r7, r6, r7, lsl #2
 3900              		.loc 1 495 12 view .LVU929
 3901 0078 F868     		ldr	r0, [r7, #12]	@ float
 3902 007a FFF7FEFF 		bl	__aeabi_f2iz
 3903              	.LVL564:
 3904 007e 0546     		mov	r5, r0
 3905              		.loc 1 495 38 view .LVU930
 3906 0080 56F80800 		ldr	r0, [r6, r8]	@ float
 3907 0084 FFF7FEFF 		bl	__aeabi_f2iz
 3908              	.LVL565:
 3909 0088 0646     		mov	r6, r0
 3910              		.loc 1 495 36 view .LVU931
 3911 008a 2D1A     		subs	r5, r5, r0
 3912              		.loc 1 495 66 view .LVU932
ARM GAS  C:\Users\86183\AppData\Local\Temp\ccaDF7Ye.s 			page 84


 3913 008c 0298     		ldr	r0, [sp, #8]	@ float
 3914 008e FFF7FEFF 		bl	__aeabi_f2iz
 3915              	.LVL566:
 3916 0092 8046     		mov	r8, r0
 3917              		.loc 1 495 81 view .LVU933
 3918 0094 7868     		ldr	r0, [r7, #4]	@ float
 3919 0096 FFF7FEFF 		bl	__aeabi_f2iz
 3920              	.LVL567:
 3921 009a 8146     		mov	r9, r0
 3922              		.loc 1 495 79 view .LVU934
 3923 009c A8EB0008 		sub	r8, r8, r0
 3924              		.loc 1 495 63 view .LVU935
 3925 00a0 08FB05F5 		mul	r5, r8, r5
 3926              		.loc 1 495 109 view .LVU936
 3927 00a4 0198     		ldr	r0, [sp, #4]	@ float
 3928 00a6 FFF7FEFF 		bl	__aeabi_f2iz
 3929              	.LVL568:
 3930              		.loc 1 495 122 view .LVU937
 3931 00aa 861B     		subs	r6, r0, r6
 3932              		.loc 1 495 152 view .LVU938
 3933 00ac 3869     		ldr	r0, [r7, #16]	@ float
 3934 00ae FFF7FEFF 		bl	__aeabi_f2iz
 3935              	.LVL569:
 3936              		.loc 1 495 176 view .LVU939
 3937 00b2 A0EB0909 		sub	r9, r0, r9
 3938              		.loc 1 495 149 view .LVU940
 3939 00b6 09FB06F6 		mul	r6, r9, r6
 3940              		.loc 1 495 10 view .LVU941
 3941 00ba B542     		cmp	r5, r6
 3942 00bc C4D0     		beq	.L212
 496:Core/Src/main.c ****         continue;
 497:Core/Src/main.c ****       surveyData[i][2] = coord;
 3943              		.loc 1 497 7 is_stmt 1 view .LVU942
 3944              		.loc 1 497 24 is_stmt 0 view .LVU943
 3945 00be 07F11803 		add	r3, r7, #24
 3946 00c2 04AA     		add	r2, sp, #16
 3947 00c4 12E90700 		ldmdb	r2, {r0, r1, r2}
 3948 00c8 83E80700 		stm	r3, {r0, r1, r2}
 498:Core/Src/main.c ****       surveyData[i][2].I = getMineIntensity(i);
 3949              		.loc 1 498 7 is_stmt 1 view .LVU944
 3950              		.loc 1 498 28 is_stmt 0 view .LVU945
 3951 00cc 2046     		mov	r0, r4
 3952 00ce FFF7FEFF 		bl	getMineIntensity
 3953              	.LVL570:
 3954              		.loc 1 498 26 view .LVU946
 3955 00d2 FFF7FEFF 		bl	__aeabi_ui2f
 3956              	.LVL571:
 3957 00d6 3862     		str	r0, [r7, #32]	@ float
 499:Core/Src/main.c ****       surveyDataCount[i] = 3;
 3958              		.loc 1 499 7 is_stmt 1 view .LVU947
 3959              		.loc 1 499 26 is_stmt 0 view .LVU948
 3960 00d8 394B     		ldr	r3, .L236+4
 3961 00da 0322     		movs	r2, #3
 3962 00dc 43F82420 		str	r2, [r3, r4, lsl #2]
 3963 00e0 B2E7     		b	.L212
 3964              	.L235:
 487:Core/Src/main.c ****         continue;
ARM GAS  C:\Users\86183\AppData\Local\Temp\ccaDF7Ye.s 			page 85


 3965              		.loc 1 487 7 is_stmt 1 view .LVU949
 487:Core/Src/main.c ****         continue;
 3966              		.loc 1 487 11 is_stmt 0 view .LVU950
 3967 00e2 0198     		ldr	r0, [sp, #4]	@ float
 3968 00e4 FFF7FEFF 		bl	__aeabi_f2iz
 3969              	.LVL572:
 3970 00e8 0546     		mov	r5, r0
 487:Core/Src/main.c ****         continue;
 3971              		.loc 1 487 48 view .LVU951
 3972 00ea 04EBC403 		add	r3, r4, r4, lsl #3
 487:Core/Src/main.c ****         continue;
 3973              		.loc 1 487 27 view .LVU952
 3974 00ee 334A     		ldr	r2, .L236
 3975 00f0 52F82300 		ldr	r0, [r2, r3, lsl #2]	@ float
 3976 00f4 FFF7FEFF 		bl	__aeabi_f2iz
 3977              	.LVL573:
 487:Core/Src/main.c ****         continue;
 3978              		.loc 1 487 10 view .LVU953
 3979 00f8 8542     		cmp	r5, r0
 3980 00fa 0DD1     		bne	.L215
 487:Core/Src/main.c ****         continue;
 3981              		.loc 1 487 54 discriminator 1 view .LVU954
 3982 00fc 0298     		ldr	r0, [sp, #8]	@ float
 3983 00fe FFF7FEFF 		bl	__aeabi_f2iz
 3984              	.LVL574:
 3985 0102 0546     		mov	r5, r0
 487:Core/Src/main.c ****         continue;
 3986              		.loc 1 487 91 discriminator 1 view .LVU955
 3987 0104 04EBC403 		add	r3, r4, r4, lsl #3
 3988 0108 2C4A     		ldr	r2, .L236
 3989 010a 02EB8303 		add	r3, r2, r3, lsl #2
 487:Core/Src/main.c ****         continue;
 3990              		.loc 1 487 70 discriminator 1 view .LVU956
 3991 010e 5868     		ldr	r0, [r3, #4]	@ float
 3992 0110 FFF7FEFF 		bl	__aeabi_f2iz
 3993              	.LVL575:
 487:Core/Src/main.c ****         continue;
 3994              		.loc 1 487 51 discriminator 1 view .LVU957
 3995 0114 8542     		cmp	r5, r0
 3996 0116 97D0     		beq	.L212
 3997              	.L215:
 489:Core/Src/main.c ****       surveyData[i][1].I = getMineIntensity(i);
 3998              		.loc 1 489 7 is_stmt 1 view .LVU958
 489:Core/Src/main.c ****       surveyData[i][1].I = getMineIntensity(i);
 3999              		.loc 1 489 24 is_stmt 0 view .LVU959
 4000 0118 04EBC405 		add	r5, r4, r4, lsl #3
 4001 011c 274B     		ldr	r3, .L236
 4002 011e 03EB8505 		add	r5, r3, r5, lsl #2
 4003 0122 05F10C03 		add	r3, r5, #12
 4004 0126 04AA     		add	r2, sp, #16
 4005 0128 12E90700 		ldmdb	r2, {r0, r1, r2}
 4006 012c 83E80700 		stm	r3, {r0, r1, r2}
 490:Core/Src/main.c ****       surveyDataCount[i] = 2;
 4007              		.loc 1 490 7 is_stmt 1 view .LVU960
 490:Core/Src/main.c ****       surveyDataCount[i] = 2;
 4008              		.loc 1 490 28 is_stmt 0 view .LVU961
 4009 0130 2046     		mov	r0, r4
ARM GAS  C:\Users\86183\AppData\Local\Temp\ccaDF7Ye.s 			page 86


 4010 0132 FFF7FEFF 		bl	getMineIntensity
 4011              	.LVL576:
 490:Core/Src/main.c ****       surveyDataCount[i] = 2;
 4012              		.loc 1 490 26 view .LVU962
 4013 0136 FFF7FEFF 		bl	__aeabi_ui2f
 4014              	.LVL577:
 4015 013a 6861     		str	r0, [r5, #20]	@ float
 491:Core/Src/main.c ****     }
 4016              		.loc 1 491 7 is_stmt 1 view .LVU963
 491:Core/Src/main.c ****     }
 4017              		.loc 1 491 26 is_stmt 0 view .LVU964
 4018 013c 204B     		ldr	r3, .L236+4
 4019 013e 0222     		movs	r2, #2
 4020 0140 43F82420 		str	r2, [r3, r4, lsl #2]
 4021 0144 80E7     		b	.L212
 4022              	.L233:
 491:Core/Src/main.c ****     }
 4023              		.loc 1 491 26 view .LVU965
 4024              	.LBE38:
 4025              	.LBB39:
 500:Core/Src/main.c ****     }
 501:Core/Src/main.c ****     else if (surveyDataCount[i] == 3)
 502:Core/Src/main.c ****     {
 503:Core/Src/main.c ****       continue;
 504:Core/Src/main.c ****     }
 505:Core/Src/main.c ****     else if (surveyDataCount[i] == 4)
 506:Core/Src/main.c ****       continue;
 507:Core/Src/main.c ****   }
 508:Core/Src/main.c ****   for (int i = 0; i < 2; i++)
 4026              		.loc 1 508 12 view .LVU966
 4027 0146 0024     		movs	r4, #0
 4028              	.LVL578:
 4029              		.loc 1 508 12 view .LVU967
 4030 0148 08E0     		b	.L217
 4031              	.LVL579:
 4032              	.L219:
 509:Core/Src/main.c ****     if (surveyDataCount[i] == 3)
 510:Core/Src/main.c ****     {
 511:Core/Src/main.c ****       Calculate_Package_Position(i);
 512:Core/Src/main.c ****       if (packageX[i] > 7 && packageX[i] < 248 && packageY[i] > 7 && packageY[i] < 248)
 513:Core/Src/main.c ****         isPackageValid[i] = 1;
 514:Core/Src/main.c ****       else
 515:Core/Src/main.c ****         isPackageValid[i] = 0;
 4033              		.loc 1 515 9 is_stmt 1 view .LVU968
 4034              		.loc 1 515 27 is_stmt 0 view .LVU969
 4035 014a 1E4B     		ldr	r3, .L236+8
 4036 014c 0022     		movs	r2, #0
 4037 014e 43F82420 		str	r2, [r3, r4, lsl #2]
 4038              	.L224:
 516:Core/Src/main.c ****       surveyDataCount[i] = 0;
 4039              		.loc 1 516 7 is_stmt 1 view .LVU970
 4040              		.loc 1 516 26 is_stmt 0 view .LVU971
 4041 0152 1B4B     		ldr	r3, .L236+4
 4042 0154 0022     		movs	r2, #0
 4043 0156 43F82420 		str	r2, [r3, r4, lsl #2]
 4044              	.L218:
 508:Core/Src/main.c ****     if (surveyDataCount[i] == 3)
ARM GAS  C:\Users\86183\AppData\Local\Temp\ccaDF7Ye.s 			page 87


 4045              		.loc 1 508 26 is_stmt 1 discriminator 2 view .LVU972
 508:Core/Src/main.c ****     if (surveyDataCount[i] == 3)
 4046              		.loc 1 508 27 is_stmt 0 discriminator 2 view .LVU973
 4047 015a 0134     		adds	r4, r4, #1
 4048              	.LVL580:
 4049              	.L217:
 508:Core/Src/main.c ****     if (surveyDataCount[i] == 3)
 4050              		.loc 1 508 19 is_stmt 1 discriminator 1 view .LVU974
 508:Core/Src/main.c ****     if (surveyDataCount[i] == 3)
 4051              		.loc 1 508 3 is_stmt 0 discriminator 1 view .LVU975
 4052 015c 012C     		cmp	r4, #1
 4053 015e 2ADC     		bgt	.L208
 509:Core/Src/main.c ****     if (surveyDataCount[i] == 3)
 4054              		.loc 1 509 5 is_stmt 1 view .LVU976
 509:Core/Src/main.c ****     if (surveyDataCount[i] == 3)
 4055              		.loc 1 509 24 is_stmt 0 view .LVU977
 4056 0160 174B     		ldr	r3, .L236+4
 4057 0162 53F82430 		ldr	r3, [r3, r4, lsl #2]
 509:Core/Src/main.c ****     if (surveyDataCount[i] == 3)
 4058              		.loc 1 509 8 view .LVU978
 4059 0166 032B     		cmp	r3, #3
 4060 0168 F7D1     		bne	.L218
 511:Core/Src/main.c ****       if (packageX[i] > 7 && packageX[i] < 248 && packageY[i] > 7 && packageY[i] < 248)
 4061              		.loc 1 511 7 is_stmt 1 view .LVU979
 4062 016a 2046     		mov	r0, r4
 4063 016c FFF7FEFF 		bl	Calculate_Package_Position
 4064              	.LVL581:
 512:Core/Src/main.c ****         isPackageValid[i] = 1;
 4065              		.loc 1 512 7 view .LVU980
 512:Core/Src/main.c ****         isPackageValid[i] = 1;
 4066              		.loc 1 512 19 is_stmt 0 view .LVU981
 4067 0170 154B     		ldr	r3, .L236+12
 4068 0172 53F82450 		ldr	r5, [r3, r4, lsl #2]	@ float
 512:Core/Src/main.c ****         isPackageValid[i] = 1;
 4069              		.loc 1 512 10 view .LVU982
 4070 0176 1549     		ldr	r1, .L236+16
 4071 0178 2846     		mov	r0, r5
 4072 017a FFF7FEFF 		bl	__aeabi_fcmpgt
 4073              	.LVL582:
 4074 017e 0028     		cmp	r0, #0
 4075 0180 E3D0     		beq	.L219
 512:Core/Src/main.c ****         isPackageValid[i] = 1;
 4076              		.loc 1 512 27 discriminator 1 view .LVU983
 4077 0182 1349     		ldr	r1, .L236+20
 4078 0184 2846     		mov	r0, r5
 4079 0186 FFF7FEFF 		bl	__aeabi_fcmplt
 4080              	.LVL583:
 4081 018a 0028     		cmp	r0, #0
 4082 018c DDD0     		beq	.L219
 512:Core/Src/main.c ****         isPackageValid[i] = 1;
 4083              		.loc 1 512 59 discriminator 2 view .LVU984
 4084 018e 114B     		ldr	r3, .L236+24
 4085 0190 53F82450 		ldr	r5, [r3, r4, lsl #2]	@ float
 512:Core/Src/main.c ****         isPackageValid[i] = 1;
 4086              		.loc 1 512 48 discriminator 2 view .LVU985
 4087 0194 0D49     		ldr	r1, .L236+16
 4088 0196 2846     		mov	r0, r5
ARM GAS  C:\Users\86183\AppData\Local\Temp\ccaDF7Ye.s 			page 88


 4089 0198 FFF7FEFF 		bl	__aeabi_fcmpgt
 4090              	.LVL584:
 4091 019c 0028     		cmp	r0, #0
 4092 019e D4D0     		beq	.L219
 512:Core/Src/main.c ****         isPackageValid[i] = 1;
 4093              		.loc 1 512 67 discriminator 3 view .LVU986
 4094 01a0 0B49     		ldr	r1, .L236+20
 4095 01a2 2846     		mov	r0, r5
 4096 01a4 FFF7FEFF 		bl	__aeabi_fcmplt
 4097              	.LVL585:
 4098 01a8 0028     		cmp	r0, #0
 4099 01aa CED0     		beq	.L219
 513:Core/Src/main.c ****       else
 4100              		.loc 1 513 9 is_stmt 1 view .LVU987
 513:Core/Src/main.c ****       else
 4101              		.loc 1 513 27 is_stmt 0 view .LVU988
 4102 01ac 054B     		ldr	r3, .L236+8
 4103 01ae 0122     		movs	r2, #1
 4104 01b0 43F82420 		str	r2, [r3, r4, lsl #2]
 4105 01b4 CDE7     		b	.L224
 4106              	.LVL586:
 4107              	.L208:
 513:Core/Src/main.c ****       else
 4108              		.loc 1 513 27 view .LVU989
 4109              	.LBE39:
 517:Core/Src/main.c ****     }
 518:Core/Src/main.c **** }
 4110              		.loc 1 518 1 view .LVU990
 4111 01b6 05B0     		add	sp, sp, #20
 4112              	.LCFI23:
 4113              		.cfi_def_cfa_offset 28
 4114              		@ sp needed
 4115 01b8 BDE8F083 		pop	{r4, r5, r6, r7, r8, r9, pc}
 4116              	.L237:
 4117              		.align	2
 4118              	.L236:
 4119 01bc 00000000 		.word	.LANCHOR12
 4120 01c0 00000000 		.word	.LANCHOR16
 4121 01c4 00000000 		.word	.LANCHOR15
 4122 01c8 00000000 		.word	.LANCHOR13
 4123 01cc 0000E040 		.word	1088421888
 4124 01d0 00007843 		.word	1131937792
 4125 01d4 00000000 		.word	.LANCHOR14
 4126              		.cfi_endproc
 4127              	.LFE80:
 4129              		.section	.text.getNearestPark,"ax",%progbits
 4130              		.align	1
 4131              		.global	getNearestPark
 4132              		.syntax unified
 4133              		.thumb
 4134              		.thumb_func
 4135              		.fpu softvfp
 4137              	getNearestPark:
 4138              	.LVL587:
 4139              	.LFB85:
 519:Core/Src/main.c **** 
 520:Core/Src/main.c **** // void MoveTo(float x, float y)
ARM GAS  C:\Users\86183\AppData\Local\Temp\ccaDF7Ye.s 			page 89


 521:Core/Src/main.c **** // {
 522:Core/Src/main.c **** //   float TurningCoefficient = 1; //调参
 523:Core/Src/main.c **** //   uint16_t errX = x - getCarPosX();
 524:Core/Src/main.c **** //   uint16_t errY = y - getCarPosY();
 525:Core/Src/main.c **** //   float targetAngle = (float)atan2(errY, errX) * 57.296, errAngle, velosity = 20;
 526:Core/Src/main.c **** //   targetAngle = Add_Angle(targetAngle, absoluteAngle - angle0);
 527:Core/Src/main.c **** //   Turn(targetAngle);
 528:Core/Src/main.c **** //   Set_Left_Direction(1);
 529:Core/Src/main.c **** //   Set_Right_Direction(1);
 530:Core/Src/main.c **** //   for (int i = 0; i < 4; i++)
 531:Core/Src/main.c **** //     Set_Speed(10, i);
 532:Core/Src/main.c **** //   while (1)
 533:Core/Src/main.c **** //   {
 534:Core/Src/main.c **** //     if (x * x + y * y < 25) //调参
 535:Core/Src/main.c **** //       break;
 536:Core/Src/main.c **** //     if (x * x + y * y < 200) //调参
 537:Core/Src/main.c **** //       velosity = 5;          //调参
 538:Core/Src/main.c **** //     errX = x - getCarPosX();
 539:Core/Src/main.c **** //     errY = y - getCarPosY();
 540:Core/Src/main.c **** //     errAngle = Add_Angle(atan2(errY, errX), absoluteAngle - GetYaw());
 541:Core/Src/main.c **** //     Set_Speed(velosity + TurningCoefficient * errAngle, 0);
 542:Core/Src/main.c **** //     Set_Speed(velosity + TurningCoefficient * errAngle, 1);
 543:Core/Src/main.c **** //     Set_Speed(velosity - TurningCoefficient * errAngle, 2);
 544:Core/Src/main.c **** //     Set_Speed(velosity - TurningCoefficient * errAngle, 3);
 545:Core/Src/main.c **** //   }
 546:Core/Src/main.c **** //   Set_Left_Direction(0);
 547:Core/Src/main.c **** //   Set_Right_Direction(0);
 548:Core/Src/main.c **** //   angle0 = GetYaw();
 549:Core/Src/main.c **** // }
 550:Core/Src/main.c **** 
 551:Core/Src/main.c **** // void MoveTo(float x, float y, uint16_t _mineType)
 552:Core/Src/main.c **** // {
 553:Core/Src/main.c **** //   if (x < 7 || x > 248 || y < 7 || y > 248)
 554:Core/Src/main.c **** //     return;
 555:Core/Src/main.c **** //   float velocity;
 556:Core/Src/main.c **** //   float errX = x - userGetCarPosX();
 557:Core/Src/main.c **** //   float errY = y - userGetCarPosY();
 558:Core/Src/main.c **** //   float targetAngle = 0, difference = sqrt(errX * errX + errY * errY);
 559:Core/Src/main.c **** //   clearDistance();
 560:Core/Src/main.c **** //   int flag = 0;
 561:Core/Src/main.c **** //   if (STATE == (uint8_t)GET_PACKAGE)
 562:Core/Src/main.c **** //     flag = getCarMineSumNum();
 563:Core/Src/main.c **** //   while (difference > 5)
 564:Core/Src/main.c **** //   {
 565:Core/Src/main.c **** //     if (STATE == (uint8_t)GET_PACKAGE && flag < getCarMineSumNum())
 566:Core/Src/main.c **** //       break;
 567:Core/Src/main.c **** //     else if (STATE == (uint8_t)SET_BEACON && difference < 15)
 568:Core/Src/main.c **** //       break;
 569:Core/Src/main.c **** //     if (difference < 10)
 570:Core/Src/main.c **** //       velocity = 3;
 571:Core/Src/main.c **** //     else if (difference < 20)
 572:Core/Src/main.c **** //       velocity = 7;
 573:Core/Src/main.c **** //     else if (difference < 30)
 574:Core/Src/main.c **** //       velocity = 10;
 575:Core/Src/main.c **** //     else if (difference < 50)
 576:Core/Src/main.c **** //     {
 577:Core/Src/main.c **** //       if (STATE == (uint8_t)PUT_PACKAGE)
ARM GAS  C:\Users\86183\AppData\Local\Temp\ccaDF7Ye.s 			page 90


 578:Core/Src/main.c **** //         velocity = 13;
 579:Core/Src/main.c **** //       else
 580:Core/Src/main.c **** //         velocity = 17;
 581:Core/Src/main.c **** //     }
 582:Core/Src/main.c **** //     else if (difference < 100)
 583:Core/Src/main.c **** //     {
 584:Core/Src/main.c **** //       if (STATE == (uint8_t)PUT_PACKAGE)
 585:Core/Src/main.c **** //         velocity = 17;
 586:Core/Src/main.c **** //       else
 587:Core/Src/main.c **** //         velocity = 23;
 588:Core/Src/main.c **** //     }
 589:Core/Src/main.c **** //     else
 590:Core/Src/main.c **** //     {
 591:Core/Src/main.c **** //       if (STATE == (uint8_t)PUT_PACKAGE)
 592:Core/Src/main.c **** //         velocity = 20;
 593:Core/Src/main.c **** //       else
 594:Core/Src/main.c **** //         velocity = 27;
 595:Core/Src/main.c **** //     }
 596:Core/Src/main.c **** //     angle0 = GetYaw();
 597:Core/Src/main.c **** //     targetAngle = Add_Angle(atan2(errX, errY) * 57.296, absoluteAngle - angle0);
 598:Core/Src/main.c **** //     Turn(targetAngle);
 599:Core/Src/main.c **** //     clearDistance();
 600:Core/Src/main.c **** //     Set_Left_Direction(1);
 601:Core/Src/main.c **** //     Set_Right_Direction(1);
 602:Core/Src/main.c **** //     for (int i = 0; i < 4; i++)
 603:Core/Src/main.c **** //       Set_Speed(velocity, i);
 604:Core/Src/main.c **** //     while (getDistance() < 0.70 * difference)
 605:Core/Src/main.c **** //     {
 606:Core/Src/main.c **** //       HAL_Delay(20);
 607:Core/Src/main.c **** //       if (STATE == (uint8_t)GET_PACKAGE && flag < getCarMineSumNum())
 608:Core/Src/main.c **** //         break;
 609:Core/Src/main.c **** //     }
 610:Core/Src/main.c **** //     Set_Left_Direction(0);
 611:Core/Src/main.c **** //     Set_Right_Direction(0);
 612:Core/Src/main.c **** //     HAL_Delay(400);
 613:Core/Src/main.c **** //     // while (STATE == (uint8_t)PUT_PACKAGE && userGetMineNum(_mineType) != 0)
 614:Core/Src/main.c **** //     //   HAL_Delay(100);
 615:Core/Src/main.c **** //     errX = x - userGetCarPosX();
 616:Core/Src/main.c **** //     errY = y - userGetCarPosY();
 617:Core/Src/main.c **** //     difference = sqrt(errX * errX + errY * errY);
 618:Core/Src/main.c **** //   }
 619:Core/Src/main.c **** // }
 620:Core/Src/main.c **** 
 621:Core/Src/main.c **** void Set_RF_Direction(int direction);
 622:Core/Src/main.c **** void Set_LF_Direction(int direction);
 623:Core/Src/main.c **** 
 624:Core/Src/main.c **** void Move(float velocity, float angle)
 625:Core/Src/main.c **** {
 626:Core/Src/main.c ****   angle *= 2 * 3.14159 / 360;
 627:Core/Src/main.c ****   angle += 0.785398;
 628:Core/Src/main.c ****   float v1, v2;
 629:Core/Src/main.c ****   v1 = velocity * cos(angle);
 630:Core/Src/main.c ****   v2 = velocity * sin(angle);
 631:Core/Src/main.c ****   if (v1 >= 0)
 632:Core/Src/main.c ****   {
 633:Core/Src/main.c ****     Set_LF_Direction(1);
 634:Core/Src/main.c ****     Set_Speed(v1, 0);
ARM GAS  C:\Users\86183\AppData\Local\Temp\ccaDF7Ye.s 			page 91


 635:Core/Src/main.c ****     Set_Speed(v1, 2);
 636:Core/Src/main.c ****   }
 637:Core/Src/main.c ****   else
 638:Core/Src/main.c ****   {
 639:Core/Src/main.c ****     Set_LF_Direction(-1);
 640:Core/Src/main.c ****     Set_Speed(-v1, 0);
 641:Core/Src/main.c ****     Set_Speed(-v1, 2);
 642:Core/Src/main.c ****   }
 643:Core/Src/main.c **** 
 644:Core/Src/main.c ****   if (v2 >= 0)
 645:Core/Src/main.c ****   {
 646:Core/Src/main.c ****     Set_RF_Direction(1);
 647:Core/Src/main.c ****     Set_Speed(v2, 1);
 648:Core/Src/main.c ****     Set_Speed(v2, 3);
 649:Core/Src/main.c ****   }
 650:Core/Src/main.c ****   else
 651:Core/Src/main.c ****   {
 652:Core/Src/main.c ****     Set_RF_Direction(-1);
 653:Core/Src/main.c ****     Set_Speed(-v2, 1);
 654:Core/Src/main.c ****     Set_Speed(-v2, 3);
 655:Core/Src/main.c ****   }
 656:Core/Src/main.c **** }
 657:Core/Src/main.c **** 
 658:Core/Src/main.c **** void SurveyTowards(float targetAngle)
 659:Core/Src/main.c **** {
 660:Core/Src/main.c ****   HAL_GPIO_WritePin(LED_GPIO_Port, LED_Pin, SET);
 661:Core/Src/main.c ****   if (isPackageValid[0] && isPackageValid[1])
 662:Core/Src/main.c ****   {
 663:Core/Src/main.c ****     HAL_GPIO_WritePin(LED_GPIO_Port, LED_Pin, RESET);
 664:Core/Src/main.c ****     return;
 665:Core/Src/main.c ****   }
 666:Core/Src/main.c ****   if (!isPackageValid[0])
 667:Core/Src/main.c ****     surveyDataCount[0] = 0;
 668:Core/Src/main.c ****   if (!isPackageValid[1])
 669:Core/Src/main.c ****     surveyDataCount[1] = 0;
 670:Core/Src/main.c ****   Move(10, targetAngle);
 671:Core/Src/main.c ****   int temp = surveyDataCount[0] + surveyDataCount[1];
 672:Core/Src/main.c ****   while (surveyDataCount[0] + surveyDataCount[1] == temp)
 673:Core/Src/main.c ****   {
 674:Core/Src/main.c ****     HAL_Delay(20);
 675:Core/Src/main.c ****     survey();
 676:Core/Src/main.c ****   }
 677:Core/Src/main.c ****   Move(10, targetAngle - 30);
 678:Core/Src/main.c ****   temp = surveyDataCount[0] + surveyDataCount[1];
 679:Core/Src/main.c ****   while (surveyDataCount[0] + surveyDataCount[1] == temp)
 680:Core/Src/main.c ****   {
 681:Core/Src/main.c ****     HAL_Delay(20);
 682:Core/Src/main.c ****     survey();
 683:Core/Src/main.c ****   }
 684:Core/Src/main.c ****   temp = surveyDataCount[0] + surveyDataCount[1];
 685:Core/Src/main.c ****   Move(10, targetAngle + 30);
 686:Core/Src/main.c ****   while (surveyDataCount[0] + surveyDataCount[1] == temp)
 687:Core/Src/main.c ****   {
 688:Core/Src/main.c ****     HAL_Delay(20);
 689:Core/Src/main.c ****     survey();
 690:Core/Src/main.c ****   }
 691:Core/Src/main.c ****   HAL_GPIO_WritePin(LED_GPIO_Port, LED_Pin, RESET);
ARM GAS  C:\Users\86183\AppData\Local\Temp\ccaDF7Ye.s 			page 92


 692:Core/Src/main.c **** }
 693:Core/Src/main.c **** 
 694:Core/Src/main.c **** void MoveTo(float x, float y, uint16_t _mineType)
 695:Core/Src/main.c **** {
 696:Core/Src/main.c ****   if (x < 7 || x > 248 || y < 7 || y > 248)
 697:Core/Src/main.c ****     return;
 698:Core/Src/main.c ****   float velocity;
 699:Core/Src/main.c ****   struct MYCOORD coord = userGetCarPos();
 700:Core/Src/main.c ****   float errX = x - coord.x;
 701:Core/Src/main.c ****   float errY = y - coord.y;
 702:Core/Src/main.c ****   float targetAngle = 0, difference = sqrt(errX * errX + errY * errY);
 703:Core/Src/main.c ****   clearDistance();
 704:Core/Src/main.c ****   int flag = 0;
 705:Core/Src/main.c ****   targetAngle = atan2(errX, errY) * 57.296 + absoluteAngle - GetYaw();
 706:Core/Src/main.c ****   if (STATE == (uint8_t)GET_PACKAGE)
 707:Core/Src/main.c ****     flag = getCarMineSumNum();
 708:Core/Src/main.c ****   if (STATE != SET_BEACON && getCarTask() != 0)
 709:Core/Src/main.c ****     SurveyTowards(targetAngle);
 710:Core/Src/main.c ****   targetAngle = atan2(errX, errY) * 57.296 + absoluteAngle - GetYaw();
 711:Core/Src/main.c ****   while (difference > 5)
 712:Core/Src/main.c ****   {
 713:Core/Src/main.c ****     clearDistance();
 714:Core/Src/main.c ****     if (STATE == (uint8_t)GET_PACKAGE && flag < getCarMineSumNum())
 715:Core/Src/main.c ****       break;
 716:Core/Src/main.c ****     else if (STATE == (uint8_t)SET_BEACON && difference < 15)
 717:Core/Src/main.c ****       break;
 718:Core/Src/main.c ****     if (difference < 10)
 719:Core/Src/main.c ****       velocity = 3;
 720:Core/Src/main.c ****     else if (difference < 20)
 721:Core/Src/main.c ****       velocity = 7;
 722:Core/Src/main.c ****     else if (difference < 30)
 723:Core/Src/main.c ****       velocity = 10;
 724:Core/Src/main.c ****     else if (difference < 50)
 725:Core/Src/main.c ****     {
 726:Core/Src/main.c ****       if (STATE == (uint8_t)PUT_PACKAGE)
 727:Core/Src/main.c ****         velocity = 13;
 728:Core/Src/main.c ****       else
 729:Core/Src/main.c ****         velocity = 17;
 730:Core/Src/main.c ****     }
 731:Core/Src/main.c ****     else if (difference < 100)
 732:Core/Src/main.c ****     {
 733:Core/Src/main.c ****       if (STATE == (uint8_t)PUT_PACKAGE)
 734:Core/Src/main.c ****         velocity = 17;
 735:Core/Src/main.c ****       else
 736:Core/Src/main.c ****         velocity = 23;
 737:Core/Src/main.c ****     }
 738:Core/Src/main.c ****     else
 739:Core/Src/main.c ****     {
 740:Core/Src/main.c ****       if (STATE == (uint8_t)PUT_PACKAGE)
 741:Core/Src/main.c ****         velocity = 20;
 742:Core/Src/main.c ****       else
 743:Core/Src/main.c ****         velocity = 27;
 744:Core/Src/main.c ****     }
 745:Core/Src/main.c **** 
 746:Core/Src/main.c ****     Move(velocity, targetAngle);
 747:Core/Src/main.c **** 
 748:Core/Src/main.c ****     while (getDistance() < 0.7 * difference)
ARM GAS  C:\Users\86183\AppData\Local\Temp\ccaDF7Ye.s 			page 93


 749:Core/Src/main.c ****     {
 750:Core/Src/main.c ****       HAL_Delay(20);
 751:Core/Src/main.c ****       if (STATE == (uint8_t)GET_PACKAGE && flag < getCarMineSumNum())
 752:Core/Src/main.c ****         break;
 753:Core/Src/main.c ****     }
 754:Core/Src/main.c **** 
 755:Core/Src/main.c ****     Set_LF_Direction(0);
 756:Core/Src/main.c ****     Set_RF_Direction(0);
 757:Core/Src/main.c ****     HAL_Delay(400);
 758:Core/Src/main.c ****     // while (STATE == (uint8_t)PUT_PACKAGE && userGetMineNum(_mineType) != 0)
 759:Core/Src/main.c ****     //   HAL_Delay(100);
 760:Core/Src/main.c ****     coord = userGetCarPos();
 761:Core/Src/main.c ****     errX = x - coord.x;
 762:Core/Src/main.c ****     errY = y - coord.y;
 763:Core/Src/main.c ****     difference = sqrt(errX * errX + errY * errY);
 764:Core/Src/main.c ****     targetAngle = atan2(errX, errY) * 57.296 + absoluteAngle - GetYaw();
 765:Core/Src/main.c ****   }
 766:Core/Src/main.c **** }
 767:Core/Src/main.c **** 
 768:Core/Src/main.c **** // void Calculate_Package_Position(void)
 769:Core/Src/main.c **** // {
 770:Core/Src/main.c **** //   float x[3], y[3];
 771:Core/Src/main.c **** //   float I[3][2];
 772:Core/Src/main.c **** //   float A[2], B[2], C[2][2], invdet;
 773:Core/Src/main.c **** //   Get_Survey_Data(&x[0], &y[0], I[0]);
 774:Core/Src/main.c **** //   do
 775:Core/Src/main.c **** //   {
 776:Core/Src/main.c **** //     Get_Survey_Data(&x[0], &y[0], I[0]);
 777:Core/Src/main.c **** //   } while (x[0] < 0 || y[0] < 0);
 778:Core/Src/main.c **** //   // u2_printf("%d, %d, %d, %d\n", x[0], y[0], I[0][0], I[0][1]);
 779:Core/Src/main.c **** //   Set_Speed(0, 0);
 780:Core/Src/main.c **** //   Set_Speed(0, 2);
 781:Core/Src/main.c **** //   Set_Speed(7, 1);
 782:Core/Src/main.c **** //   Set_Speed(7, 3);
 783:Core/Src/main.c **** //   Set_LF_Direction(0);
 784:Core/Src/main.c **** //   Set_RF_Direction(1);
 785:Core/Src/main.c **** //   do
 786:Core/Src/main.c **** //   {
 787:Core/Src/main.c **** //     HAL_Delay(100);
 788:Core/Src/main.c **** //     Get_Survey_Data(&x[1], &y[1], I[1]);
 789:Core/Src/main.c **** //     if (x[1] < 0 || y[1] < 0)
 790:Core/Src/main.c **** //       continue;
 791:Core/Src/main.c **** //   } while (((int)x[1] - (int)x[0]) == 0 && ((int)y[1] - (int)y[0]) == 0);
 792:Core/Src/main.c **** //   Set_Speed(7, 0);
 793:Core/Src/main.c **** //   Set_Speed(7, 2);
 794:Core/Src/main.c **** //   Set_Speed(0, 1);
 795:Core/Src/main.c **** //   Set_Speed(0, 3);
 796:Core/Src/main.c **** //   Set_LF_Direction(1);
 797:Core/Src/main.c **** //   Set_RF_Direction(0);
 798:Core/Src/main.c **** //   do
 799:Core/Src/main.c **** //   {
 800:Core/Src/main.c **** //     HAL_Delay(100);
 801:Core/Src/main.c **** //     Get_Survey_Data(&x[2], &y[2], I[2]);
 802:Core/Src/main.c **** //     if (x[2] < 0 || y[2] < 0)
 803:Core/Src/main.c **** //       continue;
 804:Core/Src/main.c **** //   } while (((int)x[1] - (int)x[0]) * ((int)y[2] - (int)y[0]) - ((int)x[2] - (int)x[0]) * ((int)y
 805:Core/Src/main.c **** //   A[0] = (x[1] - x[0]);
ARM GAS  C:\Users\86183\AppData\Local\Temp\ccaDF7Ye.s 			page 94


 806:Core/Src/main.c **** //   A[1] = (x[2] - x[1]);
 807:Core/Src/main.c **** //   B[0] = (y[1] - y[0]);
 808:Core/Src/main.c **** //   B[1] = (y[2] - y[1]);
 809:Core/Src/main.c **** //   C[0][0] = 2.0e9 * (I[1][0] - I[0][0]) / (I[1][0] + I[0][0]) / (I[1][0] + I[0][0]) + (x[1] + x[
 810:Core/Src/main.c **** //   C[1][0] = 2.0e9 * (I[2][0] - I[1][0]) / (I[2][0] + I[1][0]) / (I[2][0] + I[1][0]) + (x[2] + x[
 811:Core/Src/main.c **** //   C[0][1] = 2.0e9 * (I[1][1] - I[0][1]) / (I[1][1] + I[0][1]) / (I[1][1] + I[0][1]) + (x[1] + x[
 812:Core/Src/main.c **** //   C[1][1] = 2.0e9 * (I[2][1] - I[1][1]) / (I[2][1] + I[1][1]) / (I[2][1] + I[1][1]) + (x[2] + x[
 813:Core/Src/main.c **** //   invdet = 1.0 / (A[0] * B[1] - A[1] * B[0]);
 814:Core/Src/main.c **** //   packageX[0] = (B[1] * C[0][0] - B[0] * C[1][0]) * invdet;
 815:Core/Src/main.c **** //   packageY[0] = (A[0] * C[1][0] - A[1] * C[0][0]) * invdet;
 816:Core/Src/main.c **** //   packageX[1] = (B[1] * C[0][1] - B[0] * C[1][1]) * invdet;
 817:Core/Src/main.c **** //   packageY[1] = (A[0] * C[1][1] - A[1] * C[0][1]) * invdet;
 818:Core/Src/main.c **** // }
 819:Core/Src/main.c **** 
 820:Core/Src/main.c **** void Set_Beacon()
 821:Core/Src/main.c **** {
 822:Core/Src/main.c ****   Set_LF_Direction(0);
 823:Core/Src/main.c ****   Set_RF_Direction(0);
 824:Core/Src/main.c ****   HAL_Delay(500);
 825:Core/Src/main.c ****   HAL_GPIO_WritePin(LED_GPIO_Port, LED_Pin, SET);
 826:Core/Src/main.c ****   HAL_Delay(1000);
 827:Core/Src/main.c ****   HAL_GPIO_WritePin(LED_GPIO_Port, LED_Pin, RESET);
 828:Core/Src/main.c **** }
 829:Core/Src/main.c **** 
 830:Core/Src/main.c **** uint16_t getNearestPark(uint16_t _mineType)
 831:Core/Src/main.c **** {
 4140              		.loc 1 831 1 is_stmt 1 view -0
 4141              		.cfi_startproc
 4142              		@ args = 0, pretend = 0, frame = 16
 4143              		@ frame_needed = 0, uses_anonymous_args = 0
 4144              		.loc 1 831 1 is_stmt 0 view .LVU992
 4145 0000 2DE9F04F 		push	{r4, r5, r6, r7, r8, r9, r10, fp, lr}
 4146              	.LCFI24:
 4147              		.cfi_def_cfa_offset 36
 4148              		.cfi_offset 4, -36
 4149              		.cfi_offset 5, -32
 4150              		.cfi_offset 6, -28
 4151              		.cfi_offset 7, -24
 4152              		.cfi_offset 8, -20
 4153              		.cfi_offset 9, -16
 4154              		.cfi_offset 10, -12
 4155              		.cfi_offset 11, -8
 4156              		.cfi_offset 14, -4
 4157 0004 85B0     		sub	sp, sp, #20
 4158              	.LCFI25:
 4159              		.cfi_def_cfa_offset 56
 4160 0006 0546     		mov	r5, r0
 832:Core/Src/main.c ****   uint16_t tmp = 0;
 4161              		.loc 1 832 3 is_stmt 1 view .LVU993
 4162              	.LVL588:
 833:Core/Src/main.c ****   struct MYCOORD coord = userGetCarPos();
 4163              		.loc 1 833 3 view .LVU994
 4164              		.loc 1 833 26 is_stmt 0 view .LVU995
 4165 0008 01A8     		add	r0, sp, #4
 4166              	.LVL589:
 4167              		.loc 1 833 26 view .LVU996
 4168 000a FFF7FEFF 		bl	userGetCarPos
ARM GAS  C:\Users\86183\AppData\Local\Temp\ccaDF7Ye.s 			page 95


 4169              	.LVL590:
 834:Core/Src/main.c ****   float x = coord.x, y = coord.y;
 4170              		.loc 1 834 3 is_stmt 1 view .LVU997
 4171              		.loc 1 834 9 is_stmt 0 view .LVU998
 4172 000e 019E     		ldr	r6, [sp, #4]	@ float
 4173              	.LVL591:
 4174              		.loc 1 834 22 view .LVU999
 4175 0010 029F     		ldr	r7, [sp, #8]	@ float
 4176              	.LVL592:
 835:Core/Src/main.c ****   float dist = 0, distMin = 1e9;
 4177              		.loc 1 835 3 is_stmt 1 view .LVU1000
 836:Core/Src/main.c ****   if (getCarTask() == 0)
 4178              		.loc 1 836 3 view .LVU1001
 4179              		.loc 1 836 7 is_stmt 0 view .LVU1002
 4180 0012 FFF7FEFF 		bl	getCarTask
 4181              	.LVL593:
 4182              		.loc 1 836 6 view .LVU1003
 4183 0016 60B3     		cbz	r0, .L248
 4184              	.LBB40:
 837:Core/Src/main.c ****   {
 838:Core/Src/main.c ****     for (int i = 0; i < 8; i++)
 839:Core/Src/main.c ****     {
 840:Core/Src/main.c ****       dist = sq(x - Park[i].x) + sq(y - Park[i].y);
 841:Core/Src/main.c ****       if (dist < distMin)
 842:Core/Src/main.c ****       {
 843:Core/Src/main.c ****         distMin = dist;
 844:Core/Src/main.c ****         tmp = i;
 845:Core/Src/main.c ****       }
 846:Core/Src/main.c ****     }
 847:Core/Src/main.c ****   }
 848:Core/Src/main.c ****   else
 849:Core/Src/main.c ****   {
 850:Core/Src/main.c ****     for (int i = 0; i < 11; i++)
 4185              		.loc 1 850 14 view .LVU1004
 4186 0018 0024     		movs	r4, #0
 4187              	.LBE40:
 835:Core/Src/main.c ****   if (getCarTask() == 0)
 4188              		.loc 1 835 19 view .LVU1005
 4189 001a DFF8C890 		ldr	r9, .L252
 832:Core/Src/main.c ****   struct MYCOORD coord = userGetCarPos();
 4190              		.loc 1 832 12 view .LVU1006
 4191 001e A046     		mov	r8, r4
 4192 0020 2DE0     		b	.L240
 4193              	.LVL594:
 4194              	.L241:
 4195              	.LBB41:
 838:Core/Src/main.c ****     {
 4196              		.loc 1 838 28 is_stmt 1 discriminator 2 view .LVU1007
 838:Core/Src/main.c ****     {
 4197              		.loc 1 838 29 is_stmt 0 discriminator 2 view .LVU1008
 4198 0022 0134     		adds	r4, r4, #1
 4199              	.LVL595:
 4200              	.L239:
 838:Core/Src/main.c ****     {
 4201              		.loc 1 838 21 is_stmt 1 discriminator 1 view .LVU1009
 838:Core/Src/main.c ****     {
 4202              		.loc 1 838 5 is_stmt 0 discriminator 1 view .LVU1010
ARM GAS  C:\Users\86183\AppData\Local\Temp\ccaDF7Ye.s 			page 96


 4203 0024 072C     		cmp	r4, #7
 4204 0026 59DC     		bgt	.L244
 840:Core/Src/main.c ****       if (dist < distMin)
 4205              		.loc 1 840 7 is_stmt 1 view .LVU1011
 840:Core/Src/main.c ****       if (dist < distMin)
 4206              		.loc 1 840 14 is_stmt 0 view .LVU1012
 4207 0028 2F4B     		ldr	r3, .L252+4
 4208 002a 04EB4402 		add	r2, r4, r4, lsl #1
 4209 002e 03EB820A 		add	r10, r3, r2, lsl #2
 4210 0032 53F82210 		ldr	r1, [r3, r2, lsl #2]	@ float
 4211 0036 3046     		mov	r0, r6
 4212 0038 FFF7FEFF 		bl	__aeabi_fsub
 4213              	.LVL596:
 4214 003c 0146     		mov	r1, r0
 4215 003e FFF7FEFF 		bl	__aeabi_fmul
 4216              	.LVL597:
 4217 0042 0546     		mov	r5, r0
 840:Core/Src/main.c ****       if (dist < distMin)
 4218              		.loc 1 840 34 view .LVU1013
 4219 0044 DAF80410 		ldr	r1, [r10, #4]	@ float
 4220 0048 3846     		mov	r0, r7
 4221 004a FFF7FEFF 		bl	__aeabi_fsub
 4222              	.LVL598:
 4223 004e 0146     		mov	r1, r0
 4224 0050 FFF7FEFF 		bl	__aeabi_fmul
 4225              	.LVL599:
 4226 0054 0146     		mov	r1, r0
 840:Core/Src/main.c ****       if (dist < distMin)
 4227              		.loc 1 840 12 view .LVU1014
 4228 0056 2846     		mov	r0, r5
 4229 0058 FFF7FEFF 		bl	__aeabi_fadd
 4230              	.LVL600:
 4231 005c 0546     		mov	r5, r0
 4232              	.LVL601:
 841:Core/Src/main.c ****       {
 4233              		.loc 1 841 7 is_stmt 1 view .LVU1015
 841:Core/Src/main.c ****       {
 4234              		.loc 1 841 10 is_stmt 0 view .LVU1016
 4235 005e 0146     		mov	r1, r0
 4236 0060 4846     		mov	r0, r9
 4237              	.LVL602:
 841:Core/Src/main.c ****       {
 4238              		.loc 1 841 10 view .LVU1017
 4239 0062 FFF7FEFF 		bl	__aeabi_fcmpgt
 4240              	.LVL603:
 841:Core/Src/main.c ****       {
 4241              		.loc 1 841 10 view .LVU1018
 4242 0066 0028     		cmp	r0, #0
 4243 0068 DBD0     		beq	.L241
 843:Core/Src/main.c ****         tmp = i;
 4244              		.loc 1 843 9 is_stmt 1 view .LVU1019
 4245              	.LVL604:
 844:Core/Src/main.c ****       }
 4246              		.loc 1 844 9 view .LVU1020
 844:Core/Src/main.c ****       }
 4247              		.loc 1 844 13 is_stmt 0 view .LVU1021
 4248 006a 1FFA84F8 		uxth	r8, r4
ARM GAS  C:\Users\86183\AppData\Local\Temp\ccaDF7Ye.s 			page 97


 4249              	.LVL605:
 843:Core/Src/main.c ****         tmp = i;
 4250              		.loc 1 843 17 view .LVU1022
 4251 006e A946     		mov	r9, r5
 4252 0070 D7E7     		b	.L241
 4253              	.LVL606:
 4254              	.L248:
 843:Core/Src/main.c ****         tmp = i;
 4255              		.loc 1 843 17 view .LVU1023
 4256 0072 8046     		mov	r8, r0
 838:Core/Src/main.c ****     {
 4257              		.loc 1 838 14 view .LVU1024
 4258 0074 0024     		movs	r4, #0
 4259              	.LBE41:
 835:Core/Src/main.c ****   if (getCarTask() == 0)
 4260              		.loc 1 835 19 view .LVU1025
 4261 0076 DFF86C90 		ldr	r9, .L252
 4262 007a D3E7     		b	.L239
 4263              	.LVL607:
 4264              	.L245:
 4265              	.LBB42:
 4266              		.loc 1 850 29 is_stmt 1 discriminator 2 view .LVU1026
 4267              		.loc 1 850 30 is_stmt 0 discriminator 2 view .LVU1027
 4268 007c 0134     		adds	r4, r4, #1
 4269              	.LVL608:
 4270              	.L240:
 4271              		.loc 1 850 21 is_stmt 1 discriminator 1 view .LVU1028
 4272              		.loc 1 850 5 is_stmt 0 discriminator 1 view .LVU1029
 4273 007e 0A2C     		cmp	r4, #10
 4274 0080 2CDC     		bgt	.L244
 851:Core/Src/main.c ****     {
 852:Core/Src/main.c ****       if (Park[i].mineType == _mineType)
 4275              		.loc 1 852 7 is_stmt 1 view .LVU1030
 4276              		.loc 1 852 18 is_stmt 0 view .LVU1031
 4277 0082 04EB4403 		add	r3, r4, r4, lsl #1
 4278 0086 184A     		ldr	r2, .L252+4
 4279 0088 02EB8303 		add	r3, r2, r3, lsl #2
 4280 008c 1B89     		ldrh	r3, [r3, #8]
 4281              		.loc 1 852 10 view .LVU1032
 4282 008e AB42     		cmp	r3, r5
 4283 0090 F4D1     		bne	.L245
 853:Core/Src/main.c ****       {
 854:Core/Src/main.c ****         dist = sq(x - Park[i].x) + sq(y - Park[i].y);
 4284              		.loc 1 854 9 is_stmt 1 view .LVU1033
 4285              		.loc 1 854 16 is_stmt 0 view .LVU1034
 4286 0092 1346     		mov	r3, r2
 4287 0094 04EB4402 		add	r2, r4, r4, lsl #1
 4288 0098 03EB820B 		add	fp, r3, r2, lsl #2
 4289 009c 53F82210 		ldr	r1, [r3, r2, lsl #2]	@ float
 4290 00a0 3046     		mov	r0, r6
 4291 00a2 FFF7FEFF 		bl	__aeabi_fsub
 4292              	.LVL609:
 4293 00a6 0146     		mov	r1, r0
 4294 00a8 FFF7FEFF 		bl	__aeabi_fmul
 4295              	.LVL610:
 4296 00ac 8246     		mov	r10, r0
 4297              		.loc 1 854 36 view .LVU1035
ARM GAS  C:\Users\86183\AppData\Local\Temp\ccaDF7Ye.s 			page 98


 4298 00ae DBF80410 		ldr	r1, [fp, #4]	@ float
 4299 00b2 3846     		mov	r0, r7
 4300 00b4 FFF7FEFF 		bl	__aeabi_fsub
 4301              	.LVL611:
 4302 00b8 0146     		mov	r1, r0
 4303 00ba FFF7FEFF 		bl	__aeabi_fmul
 4304              	.LVL612:
 4305 00be 0146     		mov	r1, r0
 4306              		.loc 1 854 14 view .LVU1036
 4307 00c0 5046     		mov	r0, r10
 4308 00c2 FFF7FEFF 		bl	__aeabi_fadd
 4309              	.LVL613:
 4310 00c6 8246     		mov	r10, r0
 4311              	.LVL614:
 855:Core/Src/main.c ****         if (dist < distMin)
 4312              		.loc 1 855 9 is_stmt 1 view .LVU1037
 4313              		.loc 1 855 12 is_stmt 0 view .LVU1038
 4314 00c8 0146     		mov	r1, r0
 4315 00ca 4846     		mov	r0, r9
 4316              	.LVL615:
 4317              		.loc 1 855 12 view .LVU1039
 4318 00cc FFF7FEFF 		bl	__aeabi_fcmpgt
 4319              	.LVL616:
 4320              		.loc 1 855 12 view .LVU1040
 4321 00d0 0028     		cmp	r0, #0
 4322 00d2 D3D0     		beq	.L245
 856:Core/Src/main.c ****         {
 857:Core/Src/main.c ****           distMin = dist;
 4323              		.loc 1 857 11 is_stmt 1 view .LVU1041
 4324              	.LVL617:
 858:Core/Src/main.c ****           tmp = i;
 4325              		.loc 1 858 11 view .LVU1042
 4326              		.loc 1 858 15 is_stmt 0 view .LVU1043
 4327 00d4 1FFA84F8 		uxth	r8, r4
 4328              	.LVL618:
 857:Core/Src/main.c ****           tmp = i;
 4329              		.loc 1 857 19 view .LVU1044
 4330 00d8 D146     		mov	r9, r10
 4331 00da CFE7     		b	.L245
 4332              	.LVL619:
 4333              	.L244:
 857:Core/Src/main.c ****           tmp = i;
 4334              		.loc 1 857 19 view .LVU1045
 4335              	.LBE42:
 859:Core/Src/main.c ****         }
 860:Core/Src/main.c ****       }
 861:Core/Src/main.c ****     }
 862:Core/Src/main.c ****   }
 863:Core/Src/main.c ****   return tmp;
 4336              		.loc 1 863 3 is_stmt 1 view .LVU1046
 864:Core/Src/main.c **** }
 4337              		.loc 1 864 1 is_stmt 0 view .LVU1047
 4338 00dc 4046     		mov	r0, r8
 4339 00de 05B0     		add	sp, sp, #20
 4340              	.LCFI26:
 4341              		.cfi_def_cfa_offset 36
 4342              		@ sp needed
ARM GAS  C:\Users\86183\AppData\Local\Temp\ccaDF7Ye.s 			page 99


 4343 00e0 BDE8F08F 		pop	{r4, r5, r6, r7, r8, r9, r10, fp, pc}
 4344              	.LVL620:
 4345              	.L253:
 4346              		.loc 1 864 1 view .LVU1048
 4347              		.align	2
 4348              	.L252:
 4349 00e4 286B6E4E 		.word	1315859240
 4350 00e8 00000000 		.word	.LANCHOR17
 4351              		.cfi_endproc
 4352              	.LFE85:
 4354              		.section	.text.curMostMineType,"ax",%progbits
 4355              		.align	1
 4356              		.global	curMostMineType
 4357              		.syntax unified
 4358              		.thumb
 4359              		.thumb_func
 4360              		.fpu softvfp
 4362              	curMostMineType:
 4363              	.LFB87:
 865:Core/Src/main.c **** 
 866:Core/Src/main.c **** void getPackage()
 867:Core/Src/main.c **** {
 868:Core/Src/main.c ****   struct MYCOORD coord = userGetCarPos();
 869:Core/Src/main.c ****   if (!isPackageValid[0] && !isPackageValid[1])
 870:Core/Src/main.c ****   {
 871:Core/Src/main.c ****     SurveyTowards(atan2(127.5 - coord.x, 127.5 - coord.y) * 57.296 + absoluteAngle - GetYaw());
 872:Core/Src/main.c ****   }
 873:Core/Src/main.c ****   else if (isPackageValid[0] && isPackageValid[1])
 874:Core/Src/main.c ****   {
 875:Core/Src/main.c ****     float dist0 = sq(coord.x - packageX[0]) + sq(coord.y - packageY[0]);
 876:Core/Src/main.c ****     float dist1 = sq(coord.x - packageX[1]) + sq(coord.y - packageY[1]);
 877:Core/Src/main.c ****     if (dist0 < dist1)
 878:Core/Src/main.c ****     {
 879:Core/Src/main.c ****       MoveTo(packageX[0], packageY[0], 0);
 880:Core/Src/main.c ****       isPackageValid[0] = 0;
 881:Core/Src/main.c ****     }
 882:Core/Src/main.c ****     else
 883:Core/Src/main.c ****     {
 884:Core/Src/main.c ****       MoveTo(packageX[1], packageY[1], 0);
 885:Core/Src/main.c ****       isPackageValid[1] = 0;
 886:Core/Src/main.c ****     }
 887:Core/Src/main.c ****   }
 888:Core/Src/main.c ****   else
 889:Core/Src/main.c ****   {
 890:Core/Src/main.c ****     if (isPackageValid[0])
 891:Core/Src/main.c ****     {
 892:Core/Src/main.c ****       coord = userGetCarPos();
 893:Core/Src/main.c ****       SurveyTowards(atan2(packageX[0] - coord.x, packageY[0] - coord.y) * 57.296 + absoluteAngle - 
 894:Core/Src/main.c ****       if (sqrt(sq(packageX[1] - coord.x) + sq(packageY[1] - coord.y)) < sqrt(sq(packageX[0] - coord
 895:Core/Src/main.c ****       {
 896:Core/Src/main.c ****         MoveTo(packageX[1], packageY[1], 0);
 897:Core/Src/main.c ****         isPackageValid[1] = 0;
 898:Core/Src/main.c ****       }
 899:Core/Src/main.c ****       else
 900:Core/Src/main.c ****       {
 901:Core/Src/main.c ****         MoveTo(packageX[0], packageY[0], 0);
 902:Core/Src/main.c ****         isPackageValid[0] = 0;
ARM GAS  C:\Users\86183\AppData\Local\Temp\ccaDF7Ye.s 			page 100


 903:Core/Src/main.c ****       }
 904:Core/Src/main.c ****     }
 905:Core/Src/main.c ****     else
 906:Core/Src/main.c ****     {
 907:Core/Src/main.c ****       coord = userGetCarPos();
 908:Core/Src/main.c ****       SurveyTowards(atan2(packageX[1] - coord.x, packageY[1] - coord.y) * 57.296 + absoluteAngle - 
 909:Core/Src/main.c ****       if (sqrt(sq(packageX[0] - coord.x) + sq(packageY[0] - coord.y)) < sqrt(sq(packageX[1] - coord
 910:Core/Src/main.c ****       {
 911:Core/Src/main.c ****         MoveTo(packageX[0], packageY[0], 0);
 912:Core/Src/main.c ****         isPackageValid[0] = 0;
 913:Core/Src/main.c ****       }
 914:Core/Src/main.c ****       else
 915:Core/Src/main.c ****       {
 916:Core/Src/main.c ****         MoveTo(packageX[1], packageY[1], 0);
 917:Core/Src/main.c ****         isPackageValid[1] = 0;
 918:Core/Src/main.c ****       }
 919:Core/Src/main.c ****     }
 920:Core/Src/main.c ****   }
 921:Core/Src/main.c **** }
 922:Core/Src/main.c **** 
 923:Core/Src/main.c **** 
 924:Core/Src/main.c **** uint16_t curMostMineType()
 925:Core/Src/main.c **** {
 4364              		.loc 1 925 1 is_stmt 1 view -0
 4365              		.cfi_startproc
 4366              		@ args = 0, pretend = 0, frame = 8
 4367              		@ frame_needed = 0, uses_anonymous_args = 0
 4368 0000 00B5     		push	{lr}
 4369              	.LCFI27:
 4370              		.cfi_def_cfa_offset 4
 4371              		.cfi_offset 14, -4
 4372 0002 83B0     		sub	sp, sp, #12
 4373              	.LCFI28:
 4374              		.cfi_def_cfa_offset 16
 926:Core/Src/main.c ****   uint16_t tmp = 0, mineNum[4];
 4375              		.loc 1 926 3 view .LVU1050
 4376              	.LVL621:
 927:Core/Src/main.c ****   mineNum[0] = getCarMineANum();
 4377              		.loc 1 927 3 view .LVU1051
 4378              		.loc 1 927 16 is_stmt 0 view .LVU1052
 4379 0004 FFF7FEFF 		bl	getCarMineANum
 4380              	.LVL622:
 4381              		.loc 1 927 14 view .LVU1053
 4382 0008 ADF80000 		strh	r0, [sp]	@ movhi
 928:Core/Src/main.c ****   mineNum[1] = getCarMineBNum();
 4383              		.loc 1 928 3 is_stmt 1 view .LVU1054
 4384              		.loc 1 928 16 is_stmt 0 view .LVU1055
 4385 000c FFF7FEFF 		bl	getCarMineBNum
 4386              	.LVL623:
 4387              		.loc 1 928 14 view .LVU1056
 4388 0010 ADF80200 		strh	r0, [sp, #2]	@ movhi
 929:Core/Src/main.c ****   mineNum[2] = getCarMineCNum();
 4389              		.loc 1 929 3 is_stmt 1 view .LVU1057
 4390              		.loc 1 929 16 is_stmt 0 view .LVU1058
 4391 0014 FFF7FEFF 		bl	getCarMineCNum
 4392              	.LVL624:
 4393              		.loc 1 929 14 view .LVU1059
ARM GAS  C:\Users\86183\AppData\Local\Temp\ccaDF7Ye.s 			page 101


 4394 0018 ADF80400 		strh	r0, [sp, #4]	@ movhi
 930:Core/Src/main.c ****   mineNum[3] = getCarMineDNum();
 4395              		.loc 1 930 3 is_stmt 1 view .LVU1060
 4396              		.loc 1 930 16 is_stmt 0 view .LVU1061
 4397 001c FFF7FEFF 		bl	getCarMineDNum
 4398              	.LVL625:
 4399              		.loc 1 930 14 view .LVU1062
 4400 0020 ADF80600 		strh	r0, [sp, #6]	@ movhi
 931:Core/Src/main.c ****   for (int i = 0; i < 4; i++)
 4401              		.loc 1 931 3 is_stmt 1 view .LVU1063
 4402              	.LBB43:
 4403              		.loc 1 931 8 view .LVU1064
 4404              	.LVL626:
 4405              		.loc 1 931 12 is_stmt 0 view .LVU1065
 4406 0024 0023     		movs	r3, #0
 4407              	.LBE43:
 926:Core/Src/main.c ****   mineNum[0] = getCarMineANum();
 4408              		.loc 1 926 12 view .LVU1066
 4409 0026 1846     		mov	r0, r3
 4410              	.LBB44:
 4411              		.loc 1 931 3 view .LVU1067
 4412 0028 00E0     		b	.L255
 4413              	.LVL627:
 4414              	.L256:
 4415              		.loc 1 931 26 is_stmt 1 discriminator 2 view .LVU1068
 4416              		.loc 1 931 27 is_stmt 0 discriminator 2 view .LVU1069
 4417 002a 0133     		adds	r3, r3, #1
 4418              	.LVL628:
 4419              	.L255:
 4420              		.loc 1 931 19 is_stmt 1 discriminator 1 view .LVU1070
 4421              		.loc 1 931 3 is_stmt 0 discriminator 1 view .LVU1071
 4422 002c 032B     		cmp	r3, #3
 4423 002e 0DDC     		bgt	.L259
 932:Core/Src/main.c ****   {
 933:Core/Src/main.c ****     if (mineNum[i] > mineNum[tmp])
 4424              		.loc 1 933 5 is_stmt 1 view .LVU1072
 4425              		.loc 1 933 16 is_stmt 0 view .LVU1073
 4426 0030 02AA     		add	r2, sp, #8
 4427 0032 02EB4302 		add	r2, r2, r3, lsl #1
 4428 0036 32F8081C 		ldrh	r1, [r2, #-8]
 4429              		.loc 1 933 29 view .LVU1074
 4430 003a 02AA     		add	r2, sp, #8
 4431 003c 02EB4002 		add	r2, r2, r0, lsl #1
 4432 0040 32F8082C 		ldrh	r2, [r2, #-8]
 4433              		.loc 1 933 8 view .LVU1075
 4434 0044 9142     		cmp	r1, r2
 4435 0046 F0D9     		bls	.L256
 934:Core/Src/main.c ****       tmp = i;
 4436              		.loc 1 934 7 is_stmt 1 view .LVU1076
 4437              		.loc 1 934 11 is_stmt 0 view .LVU1077
 4438 0048 98B2     		uxth	r0, r3
 4439              	.LVL629:
 4440              		.loc 1 934 11 view .LVU1078
 4441 004a EEE7     		b	.L256
 4442              	.L259:
 4443              		.loc 1 934 11 view .LVU1079
 4444              	.LBE44:
ARM GAS  C:\Users\86183\AppData\Local\Temp\ccaDF7Ye.s 			page 102


 935:Core/Src/main.c ****   }
 936:Core/Src/main.c ****   return tmp;
 4445              		.loc 1 936 3 is_stmt 1 view .LVU1080
 937:Core/Src/main.c **** }
 4446              		.loc 1 937 1 is_stmt 0 view .LVU1081
 4447 004c 03B0     		add	sp, sp, #12
 4448              	.LCFI29:
 4449              		.cfi_def_cfa_offset 4
 4450              		@ sp needed
 4451 004e 5DF804FB 		ldr	pc, [sp], #4
 4452              		.cfi_endproc
 4453              	.LFE87:
 4455              		.section	.text.initialParkMineType,"ax",%progbits
 4456              		.align	1
 4457              		.global	initialParkMineType
 4458              		.syntax unified
 4459              		.thumb
 4460              		.thumb_func
 4461              		.fpu softvfp
 4463              	initialParkMineType:
 4464              	.LFB88:
 938:Core/Src/main.c **** 
 939:Core/Src/main.c **** void initialParkMineType()
 940:Core/Src/main.c **** {
 4465              		.loc 1 940 1 is_stmt 1 view -0
 4466              		.cfi_startproc
 4467              		@ args = 0, pretend = 0, frame = 0
 4468              		@ frame_needed = 0, uses_anonymous_args = 0
 4469 0000 2DE9F041 		push	{r4, r5, r6, r7, r8, lr}
 4470              	.LCFI30:
 4471              		.cfi_def_cfa_offset 24
 4472              		.cfi_offset 4, -24
 4473              		.cfi_offset 5, -20
 4474              		.cfi_offset 6, -16
 4475              		.cfi_offset 7, -12
 4476              		.cfi_offset 8, -8
 4477              		.cfi_offset 14, -4
 941:Core/Src/main.c ****   for (int i = 0; i < 8; i++)
 4478              		.loc 1 941 3 view .LVU1083
 4479              	.LBB45:
 4480              		.loc 1 941 8 view .LVU1084
 4481              	.LVL630:
 4482              		.loc 1 941 12 is_stmt 0 view .LVU1085
 4483 0004 0024     		movs	r4, #0
 4484              		.loc 1 941 3 view .LVU1086
 4485 0006 09E0     		b	.L261
 4486              	.LVL631:
 4487              	.L262:
 942:Core/Src/main.c ****     Park[i].mineType = (uint16_t)getParkDotMineType(i);
 4488              		.loc 1 942 5 is_stmt 1 discriminator 3 view .LVU1087
 4489              		.loc 1 942 34 is_stmt 0 discriminator 3 view .LVU1088
 4490 0008 2046     		mov	r0, r4
 4491 000a FFF7FEFF 		bl	getParkDotMineType
 4492              	.LVL632:
 4493              		.loc 1 942 22 discriminator 3 view .LVU1089
 4494 000e 04EB4402 		add	r2, r4, r4, lsl #1
 4495 0012 244B     		ldr	r3, .L268
ARM GAS  C:\Users\86183\AppData\Local\Temp\ccaDF7Ye.s 			page 103


 4496 0014 03EB8203 		add	r3, r3, r2, lsl #2
 4497 0018 1881     		strh	r0, [r3, #8]	@ movhi
 941:Core/Src/main.c ****   for (int i = 0; i < 8; i++)
 4498              		.loc 1 941 26 is_stmt 1 discriminator 3 view .LVU1090
 941:Core/Src/main.c ****   for (int i = 0; i < 8; i++)
 4499              		.loc 1 941 27 is_stmt 0 discriminator 3 view .LVU1091
 4500 001a 0134     		adds	r4, r4, #1
 4501              	.LVL633:
 4502              	.L261:
 941:Core/Src/main.c ****   for (int i = 0; i < 8; i++)
 4503              		.loc 1 941 19 is_stmt 1 discriminator 1 view .LVU1092
 941:Core/Src/main.c ****   for (int i = 0; i < 8; i++)
 4504              		.loc 1 941 3 is_stmt 0 discriminator 1 view .LVU1093
 4505 001c 072C     		cmp	r4, #7
 4506 001e F3DD     		ble	.L262
 4507              	.LBE45:
 4508              	.LBB46:
 943:Core/Src/main.c ****   for (int i = 0; i < 3; i++)
 4509              		.loc 1 943 12 view .LVU1094
 4510 0020 0024     		movs	r4, #0
 4511              	.LVL634:
 4512              		.loc 1 943 12 view .LVU1095
 4513 0022 00E0     		b	.L263
 4514              	.LVL635:
 4515              	.L264:
 4516              		.loc 1 943 26 is_stmt 1 discriminator 2 view .LVU1096
 4517              		.loc 1 943 27 is_stmt 0 discriminator 2 view .LVU1097
 4518 0024 0134     		adds	r4, r4, #1
 4519              	.LVL636:
 4520              	.L263:
 4521              		.loc 1 943 19 is_stmt 1 discriminator 1 view .LVU1098
 4522              		.loc 1 943 3 is_stmt 0 discriminator 1 view .LVU1099
 4523 0026 022C     		cmp	r4, #2
 4524 0028 39DC     		bgt	.L267
 944:Core/Src/main.c ****   {
 945:Core/Src/main.c ****     Park[i + 8].x = (float)getMyBeaconPosX(i);
 4525              		.loc 1 945 5 is_stmt 1 view .LVU1100
 4526              		.loc 1 945 28 is_stmt 0 view .LVU1101
 4527 002a 2046     		mov	r0, r4
 4528 002c FFF7FEFF 		bl	getMyBeaconPosX
 4529              	.LVL637:
 4530              		.loc 1 945 12 view .LVU1102
 4531 0030 04F10806 		add	r6, r4, #8
 4532              		.loc 1 945 21 view .LVU1103
 4533 0034 FFF7FEFF 		bl	__aeabi_ui2f
 4534              	.LVL638:
 4535              		.loc 1 945 19 view .LVU1104
 4536 0038 1A4D     		ldr	r5, .L268
 4537 003a 06EB4603 		add	r3, r6, r6, lsl #1
 4538 003e 05EB8308 		add	r8, r5, r3, lsl #2
 4539 0042 45F82300 		str	r0, [r5, r3, lsl #2]	@ float
 946:Core/Src/main.c ****     Park[i + 8].y = (float)getMyBeaconPosY(i);
 4540              		.loc 1 946 5 is_stmt 1 view .LVU1105
 4541              		.loc 1 946 28 is_stmt 0 view .LVU1106
 4542 0046 2046     		mov	r0, r4
 4543 0048 FFF7FEFF 		bl	getMyBeaconPosY
 4544              	.LVL639:
ARM GAS  C:\Users\86183\AppData\Local\Temp\ccaDF7Ye.s 			page 104


 4545              		.loc 1 946 21 view .LVU1107
 4546 004c FFF7FEFF 		bl	__aeabi_ui2f
 4547              	.LVL640:
 4548              		.loc 1 946 19 view .LVU1108
 4549 0050 C8F80400 		str	r0, [r8, #4]	@ float
 947:Core/Src/main.c ****     Park[i + 8].mineType = getMyBeaconMineType(i);
 4550              		.loc 1 947 5 is_stmt 1 view .LVU1109
 4551              		.loc 1 947 28 is_stmt 0 view .LVU1110
 4552 0054 2046     		mov	r0, r4
 4553 0056 FFF7FEFF 		bl	getMyBeaconMineType
 4554              	.LVL641:
 4555              		.loc 1 947 26 view .LVU1111
 4556 005a A8F80800 		strh	r0, [r8, #8]	@ movhi
 948:Core/Src/main.c ****     if (getIsDistanceOfRivalBeaconValid(i))
 4557              		.loc 1 948 5 is_stmt 1 view .LVU1112
 4558              		.loc 1 948 9 is_stmt 0 view .LVU1113
 4559 005e 2046     		mov	r0, r4
 4560 0060 FFF7FEFF 		bl	getIsDistanceOfRivalBeaconValid
 4561              	.LVL642:
 4562              		.loc 1 948 8 view .LVU1114
 4563 0064 0028     		cmp	r0, #0
 4564 0066 DDD0     		beq	.L264
 949:Core/Src/main.c ****     {
 950:Core/Src/main.c ****       RivalBeacon[RivalBeaconNum].x = (float)getRivalBeaconPosX(i);
 4565              		.loc 1 950 7 is_stmt 1 view .LVU1115
 4566              		.loc 1 950 46 is_stmt 0 view .LVU1116
 4567 0068 2046     		mov	r0, r4
 4568 006a FFF7FEFF 		bl	getRivalBeaconPosX
 4569              	.LVL643:
 4570              		.loc 1 950 34 view .LVU1117
 4571 006e 0E4F     		ldr	r7, .L268+4
 4572 0070 3D68     		ldr	r5, [r7]
 4573              		.loc 1 950 39 view .LVU1118
 4574 0072 FFF7FEFF 		bl	__aeabi_ui2f
 4575              	.LVL644:
 4576              		.loc 1 950 37 view .LVU1119
 4577 0076 0D4E     		ldr	r6, .L268+8
 4578 0078 05EB4505 		add	r5, r5, r5, lsl #1
 4579 007c 46F82500 		str	r0, [r6, r5, lsl #2]	@ float
 951:Core/Src/main.c ****       RivalBeacon[RivalBeaconNum].y = (float)getRivalBeaconPosY(i);
 4580              		.loc 1 951 7 is_stmt 1 view .LVU1120
 4581              		.loc 1 951 46 is_stmt 0 view .LVU1121
 4582 0080 2046     		mov	r0, r4
 4583 0082 FFF7FEFF 		bl	getRivalBeaconPosY
 4584              	.LVL645:
 4585              		.loc 1 951 34 view .LVU1122
 4586 0086 3D68     		ldr	r5, [r7]
 4587              		.loc 1 951 39 view .LVU1123
 4588 0088 FFF7FEFF 		bl	__aeabi_ui2f
 4589              	.LVL646:
 4590              		.loc 1 951 37 view .LVU1124
 4591 008c 05EB4503 		add	r3, r5, r5, lsl #1
 4592 0090 06EB8306 		add	r6, r6, r3, lsl #2
 4593 0094 7060     		str	r0, [r6, #4]	@ float
 952:Core/Src/main.c ****       RivalBeacon[RivalBeaconNum].id = i;
 4594              		.loc 1 952 7 is_stmt 1 view .LVU1125
 4595              		.loc 1 952 38 is_stmt 0 view .LVU1126
ARM GAS  C:\Users\86183\AppData\Local\Temp\ccaDF7Ye.s 			page 105


 4596 0096 B460     		str	r4, [r6, #8]
 953:Core/Src/main.c ****       RivalBeaconNum++;
 4597              		.loc 1 953 7 is_stmt 1 view .LVU1127
 4598              		.loc 1 953 21 is_stmt 0 view .LVU1128
 4599 0098 0135     		adds	r5, r5, #1
 4600 009a 3D60     		str	r5, [r7]
 4601 009c C2E7     		b	.L264
 4602              	.L267:
 4603              		.loc 1 953 21 view .LVU1129
 4604              	.LBE46:
 954:Core/Src/main.c ****     }
 955:Core/Src/main.c ****   }
 956:Core/Src/main.c **** }
 4605              		.loc 1 956 1 view .LVU1130
 4606 009e BDE8F081 		pop	{r4, r5, r6, r7, r8, pc}
 4607              	.LVL647:
 4608              	.L269:
 4609              		.loc 1 956 1 view .LVU1131
 4610 00a2 00BF     		.align	2
 4611              	.L268:
 4612 00a4 00000000 		.word	.LANCHOR17
 4613 00a8 00000000 		.word	.LANCHOR11
 4614 00ac 00000000 		.word	.LANCHOR10
 4615              		.cfi_endproc
 4616              	.LFE88:
 4618              		.section	.text.Set_LF_Direction,"ax",%progbits
 4619              		.align	1
 4620              		.global	Set_LF_Direction
 4621              		.syntax unified
 4622              		.thumb
 4623              		.thumb_func
 4624              		.fpu softvfp
 4626              	Set_LF_Direction:
 4627              	.LVL648:
 4628              	.LFB89:
 957:Core/Src/main.c **** 
 958:Core/Src/main.c **** void Set_LF_Direction(int direction)
 959:Core/Src/main.c **** {
 4629              		.loc 1 959 1 is_stmt 1 view -0
 4630              		.cfi_startproc
 4631              		@ args = 0, pretend = 0, frame = 0
 4632              		@ frame_needed = 0, uses_anonymous_args = 0
 4633              		.loc 1 959 1 is_stmt 0 view .LVU1133
 4634 0000 38B5     		push	{r3, r4, r5, lr}
 4635              	.LCFI31:
 4636              		.cfi_def_cfa_offset 16
 4637              		.cfi_offset 3, -16
 4638              		.cfi_offset 4, -12
 4639              		.cfi_offset 5, -8
 4640              		.cfi_offset 14, -4
 4641 0002 0446     		mov	r4, r0
 960:Core/Src/main.c ****   HAL_GPIO_WritePin(IN3A_GPIO_Port, IN3A_Pin, RESET);
 4642              		.loc 1 960 3 is_stmt 1 view .LVU1134
 4643 0004 2F4D     		ldr	r5, .L277
 4644 0006 0022     		movs	r2, #0
 4645 0008 4FF40051 		mov	r1, #8192
 4646 000c 2846     		mov	r0, r5
ARM GAS  C:\Users\86183\AppData\Local\Temp\ccaDF7Ye.s 			page 106


 4647              	.LVL649:
 4648              		.loc 1 960 3 is_stmt 0 view .LVU1135
 4649 000e FFF7FEFF 		bl	HAL_GPIO_WritePin
 4650              	.LVL650:
 961:Core/Src/main.c ****   HAL_GPIO_WritePin(IN3B_GPIO_Port, IN3B_Pin, RESET);
 4651              		.loc 1 961 3 is_stmt 1 view .LVU1136
 4652 0012 0022     		movs	r2, #0
 4653 0014 4FF48041 		mov	r1, #16384
 4654 0018 2846     		mov	r0, r5
 4655 001a FFF7FEFF 		bl	HAL_GPIO_WritePin
 4656              	.LVL651:
 962:Core/Src/main.c ****   HAL_GPIO_WritePin(IN1A_GPIO_Port, IN1A_Pin, RESET);
 4657              		.loc 1 962 3 view .LVU1137
 4658 001e 05F58065 		add	r5, r5, #1024
 4659 0022 0022     		movs	r2, #0
 4660 0024 4FF48051 		mov	r1, #4096
 4661 0028 2846     		mov	r0, r5
 4662 002a FFF7FEFF 		bl	HAL_GPIO_WritePin
 4663              	.LVL652:
 963:Core/Src/main.c ****   HAL_GPIO_WritePin(IN1B_GPIO_Port, IN1B_Pin, RESET);
 4664              		.loc 1 963 3 view .LVU1138
 4665 002e 0022     		movs	r2, #0
 4666 0030 4FF40061 		mov	r1, #2048
 4667 0034 2846     		mov	r0, r5
 4668 0036 FFF7FEFF 		bl	HAL_GPIO_WritePin
 4669              	.LVL653:
 964:Core/Src/main.c ****   if (direction == 1)
 4670              		.loc 1 964 3 view .LVU1139
 4671              		.loc 1 964 6 is_stmt 0 view .LVU1140
 4672 003a 012C     		cmp	r4, #1
 4673 003c 27D0     		beq	.L275
 965:Core/Src/main.c ****   {
 966:Core/Src/main.c ****     HAL_GPIO_WritePin(IN3A_GPIO_Port, IN3A_Pin, SET);
 967:Core/Src/main.c ****     HAL_GPIO_WritePin(IN1A_GPIO_Port, IN1A_Pin, SET);
 968:Core/Src/main.c ****   }
 969:Core/Src/main.c ****   else if (direction == -1)
 4674              		.loc 1 969 8 is_stmt 1 view .LVU1141
 4675              		.loc 1 969 11 is_stmt 0 view .LVU1142
 4676 003e B4F1FF3F 		cmp	r4, #-1
 4677 0042 31D0     		beq	.L276
 970:Core/Src/main.c ****   {
 971:Core/Src/main.c ****     HAL_GPIO_WritePin(IN3B_GPIO_Port, IN3B_Pin, SET);
 972:Core/Src/main.c ****     HAL_GPIO_WritePin(IN1B_GPIO_Port, IN1B_Pin, SET);
 973:Core/Src/main.c ****   }
 974:Core/Src/main.c ****   else
 975:Core/Src/main.c ****   {
 976:Core/Src/main.c ****     Set_Speed(0, 0);
 4678              		.loc 1 976 5 is_stmt 1 view .LVU1143
 4679 0044 0024     		movs	r4, #0
 4680              	.LVL654:
 4681              		.loc 1 976 5 is_stmt 0 view .LVU1144
 4682 0046 0021     		movs	r1, #0
 4683 0048 2046     		mov	r0, r4
 4684 004a FFF7FEFF 		bl	Set_Speed
 4685              	.LVL655:
 977:Core/Src/main.c ****     Set_Speed(0, 2);
 4686              		.loc 1 977 5 is_stmt 1 view .LVU1145
ARM GAS  C:\Users\86183\AppData\Local\Temp\ccaDF7Ye.s 			page 107


 4687 004e 0221     		movs	r1, #2
 4688 0050 2046     		mov	r0, r4
 4689 0052 FFF7FEFF 		bl	Set_Speed
 4690              	.LVL656:
 978:Core/Src/main.c ****     HAL_GPIO_WritePin(IN3A_GPIO_Port, IN3A_Pin, SET);
 4691              		.loc 1 978 5 view .LVU1146
 4692 0056 1B4C     		ldr	r4, .L277
 4693 0058 0122     		movs	r2, #1
 4694 005a 4FF40051 		mov	r1, #8192
 4695 005e 2046     		mov	r0, r4
 4696 0060 FFF7FEFF 		bl	HAL_GPIO_WritePin
 4697              	.LVL657:
 979:Core/Src/main.c ****     HAL_GPIO_WritePin(IN3B_GPIO_Port, IN3B_Pin, SET);
 4698              		.loc 1 979 5 view .LVU1147
 4699 0064 0122     		movs	r2, #1
 4700 0066 4FF48041 		mov	r1, #16384
 4701 006a 2046     		mov	r0, r4
 4702 006c FFF7FEFF 		bl	HAL_GPIO_WritePin
 4703              	.LVL658:
 980:Core/Src/main.c ****     HAL_GPIO_WritePin(IN1A_GPIO_Port, IN1A_Pin, SET);
 4704              		.loc 1 980 5 view .LVU1148
 4705 0070 04F58064 		add	r4, r4, #1024
 4706 0074 0122     		movs	r2, #1
 4707 0076 4FF48051 		mov	r1, #4096
 4708 007a 2046     		mov	r0, r4
 4709 007c FFF7FEFF 		bl	HAL_GPIO_WritePin
 4710              	.LVL659:
 981:Core/Src/main.c ****     HAL_GPIO_WritePin(IN1B_GPIO_Port, IN1B_Pin, SET);
 4711              		.loc 1 981 5 view .LVU1149
 4712 0080 0122     		movs	r2, #1
 4713 0082 4FF40061 		mov	r1, #2048
 4714 0086 2046     		mov	r0, r4
 4715 0088 FFF7FEFF 		bl	HAL_GPIO_WritePin
 4716              	.LVL660:
 4717              	.L270:
 982:Core/Src/main.c ****   }
 983:Core/Src/main.c **** }
 4718              		.loc 1 983 1 is_stmt 0 view .LVU1150
 4719 008c 38BD     		pop	{r3, r4, r5, pc}
 4720              	.LVL661:
 4721              	.L275:
 966:Core/Src/main.c ****     HAL_GPIO_WritePin(IN1A_GPIO_Port, IN1A_Pin, SET);
 4722              		.loc 1 966 5 is_stmt 1 view .LVU1151
 4723 008e 0122     		movs	r2, #1
 4724 0090 4FF40051 		mov	r1, #8192
 4725 0094 0B48     		ldr	r0, .L277
 4726 0096 FFF7FEFF 		bl	HAL_GPIO_WritePin
 4727              	.LVL662:
 967:Core/Src/main.c ****   }
 4728              		.loc 1 967 5 view .LVU1152
 4729 009a 0122     		movs	r2, #1
 4730 009c 4FF48051 		mov	r1, #4096
 4731 00a0 2846     		mov	r0, r5
 4732 00a2 FFF7FEFF 		bl	HAL_GPIO_WritePin
 4733              	.LVL663:
 4734 00a6 F1E7     		b	.L270
 4735              	.L276:
ARM GAS  C:\Users\86183\AppData\Local\Temp\ccaDF7Ye.s 			page 108


 971:Core/Src/main.c ****     HAL_GPIO_WritePin(IN1B_GPIO_Port, IN1B_Pin, SET);
 4736              		.loc 1 971 5 view .LVU1153
 4737 00a8 0122     		movs	r2, #1
 4738 00aa 4FF48041 		mov	r1, #16384
 4739 00ae 0548     		ldr	r0, .L277
 4740 00b0 FFF7FEFF 		bl	HAL_GPIO_WritePin
 4741              	.LVL664:
 972:Core/Src/main.c ****   }
 4742              		.loc 1 972 5 view .LVU1154
 4743 00b4 0122     		movs	r2, #1
 4744 00b6 4FF40061 		mov	r1, #2048
 4745 00ba 0348     		ldr	r0, .L277+4
 4746 00bc FFF7FEFF 		bl	HAL_GPIO_WritePin
 4747              	.LVL665:
 4748 00c0 E4E7     		b	.L270
 4749              	.L278:
 4750 00c2 00BF     		.align	2
 4751              	.L277:
 4752 00c4 000C0140 		.word	1073810432
 4753 00c8 00100140 		.word	1073811456
 4754              		.cfi_endproc
 4755              	.LFE89:
 4757              		.section	.text.Set_RF_Direction,"ax",%progbits
 4758              		.align	1
 4759              		.global	Set_RF_Direction
 4760              		.syntax unified
 4761              		.thumb
 4762              		.thumb_func
 4763              		.fpu softvfp
 4765              	Set_RF_Direction:
 4766              	.LVL666:
 4767              	.LFB90:
 984:Core/Src/main.c **** 
 985:Core/Src/main.c **** void Set_RF_Direction(int direction)
 986:Core/Src/main.c **** {
 4768              		.loc 1 986 1 view -0
 4769              		.cfi_startproc
 4770              		@ args = 0, pretend = 0, frame = 0
 4771              		@ frame_needed = 0, uses_anonymous_args = 0
 4772              		.loc 1 986 1 is_stmt 0 view .LVU1156
 4773 0000 38B5     		push	{r3, r4, r5, lr}
 4774              	.LCFI32:
 4775              		.cfi_def_cfa_offset 16
 4776              		.cfi_offset 3, -16
 4777              		.cfi_offset 4, -12
 4778              		.cfi_offset 5, -8
 4779              		.cfi_offset 14, -4
 4780 0002 0446     		mov	r4, r0
 987:Core/Src/main.c ****   HAL_GPIO_WritePin(IN2A_GPIO_Port, IN2A_Pin, RESET);
 4781              		.loc 1 987 3 is_stmt 1 view .LVU1157
 4782 0004 2A4D     		ldr	r5, .L286
 4783 0006 0022     		movs	r2, #0
 4784 0008 0121     		movs	r1, #1
 4785 000a 2846     		mov	r0, r5
 4786              	.LVL667:
 4787              		.loc 1 987 3 is_stmt 0 view .LVU1158
 4788 000c FFF7FEFF 		bl	HAL_GPIO_WritePin
ARM GAS  C:\Users\86183\AppData\Local\Temp\ccaDF7Ye.s 			page 109


 4789              	.LVL668:
 988:Core/Src/main.c ****   HAL_GPIO_WritePin(IN2B_GPIO_Port, IN2B_Pin, RESET);
 4790              		.loc 1 988 3 is_stmt 1 view .LVU1159
 4791 0010 0022     		movs	r2, #0
 4792 0012 0221     		movs	r1, #2
 4793 0014 2846     		mov	r0, r5
 4794 0016 FFF7FEFF 		bl	HAL_GPIO_WritePin
 4795              	.LVL669:
 989:Core/Src/main.c ****   HAL_GPIO_WritePin(IN4A_GPIO_Port, IN4A_Pin, RESET);
 4796              		.loc 1 989 3 view .LVU1160
 4797 001a 0022     		movs	r2, #0
 4798 001c 4FF48061 		mov	r1, #1024
 4799 0020 2448     		ldr	r0, .L286+4
 4800 0022 FFF7FEFF 		bl	HAL_GPIO_WritePin
 4801              	.LVL670:
 990:Core/Src/main.c ****   HAL_GPIO_WritePin(IN4B_GPIO_Port, IN4B_Pin, RESET);
 4802              		.loc 1 990 3 view .LVU1161
 4803 0026 0022     		movs	r2, #0
 4804 0028 4FF40041 		mov	r1, #32768
 4805 002c 2248     		ldr	r0, .L286+8
 4806 002e FFF7FEFF 		bl	HAL_GPIO_WritePin
 4807              	.LVL671:
 991:Core/Src/main.c ****   if (direction == 1)
 4808              		.loc 1 991 3 view .LVU1162
 4809              		.loc 1 991 6 is_stmt 0 view .LVU1163
 4810 0032 012C     		cmp	r4, #1
 4811 0034 23D0     		beq	.L284
 992:Core/Src/main.c ****   {
 993:Core/Src/main.c ****     HAL_GPIO_WritePin(IN2B_GPIO_Port, IN2B_Pin, SET);
 994:Core/Src/main.c ****     HAL_GPIO_WritePin(IN4B_GPIO_Port, IN4B_Pin, SET);
 995:Core/Src/main.c ****   }
 996:Core/Src/main.c ****   else if (direction == -1)
 4812              		.loc 1 996 8 is_stmt 1 view .LVU1164
 4813              		.loc 1 996 11 is_stmt 0 view .LVU1165
 4814 0036 B4F1FF3F 		cmp	r4, #-1
 4815 003a 2CD0     		beq	.L285
 997:Core/Src/main.c ****   {
 998:Core/Src/main.c ****     HAL_GPIO_WritePin(IN2A_GPIO_Port, IN2A_Pin, SET);
 999:Core/Src/main.c ****     HAL_GPIO_WritePin(IN4A_GPIO_Port, IN4A_Pin, SET);
1000:Core/Src/main.c ****   }
1001:Core/Src/main.c ****   else
1002:Core/Src/main.c ****   {
1003:Core/Src/main.c ****     Set_Speed(0, 1);
 4816              		.loc 1 1003 5 is_stmt 1 view .LVU1166
 4817 003c 0024     		movs	r4, #0
 4818              	.LVL672:
 4819              		.loc 1 1003 5 is_stmt 0 view .LVU1167
 4820 003e 0121     		movs	r1, #1
 4821 0040 2046     		mov	r0, r4
 4822 0042 FFF7FEFF 		bl	Set_Speed
 4823              	.LVL673:
1004:Core/Src/main.c ****     Set_Speed(0, 3);
 4824              		.loc 1 1004 5 is_stmt 1 view .LVU1168
 4825 0046 0321     		movs	r1, #3
 4826 0048 2046     		mov	r0, r4
 4827 004a FFF7FEFF 		bl	Set_Speed
 4828              	.LVL674:
ARM GAS  C:\Users\86183\AppData\Local\Temp\ccaDF7Ye.s 			page 110


1005:Core/Src/main.c ****     HAL_GPIO_WritePin(IN2A_GPIO_Port, IN2A_Pin, SET);
 4829              		.loc 1 1005 5 view .LVU1169
 4830 004e 184C     		ldr	r4, .L286
 4831 0050 0122     		movs	r2, #1
 4832 0052 1146     		mov	r1, r2
 4833 0054 2046     		mov	r0, r4
 4834 0056 FFF7FEFF 		bl	HAL_GPIO_WritePin
 4835              	.LVL675:
1006:Core/Src/main.c ****     HAL_GPIO_WritePin(IN2B_GPIO_Port, IN2B_Pin, SET);
 4836              		.loc 1 1006 5 view .LVU1170
 4837 005a 0122     		movs	r2, #1
 4838 005c 0221     		movs	r1, #2
 4839 005e 2046     		mov	r0, r4
 4840 0060 FFF7FEFF 		bl	HAL_GPIO_WritePin
 4841              	.LVL676:
1007:Core/Src/main.c ****     HAL_GPIO_WritePin(IN4A_GPIO_Port, IN4A_Pin, SET);
 4842              		.loc 1 1007 5 view .LVU1171
 4843 0064 0122     		movs	r2, #1
 4844 0066 4FF48061 		mov	r1, #1024
 4845 006a 1248     		ldr	r0, .L286+4
 4846 006c FFF7FEFF 		bl	HAL_GPIO_WritePin
 4847              	.LVL677:
1008:Core/Src/main.c ****     HAL_GPIO_WritePin(IN4B_GPIO_Port, IN4B_Pin, SET);
 4848              		.loc 1 1008 5 view .LVU1172
 4849 0070 0122     		movs	r2, #1
 4850 0072 4FF40041 		mov	r1, #32768
 4851 0076 1048     		ldr	r0, .L286+8
 4852 0078 FFF7FEFF 		bl	HAL_GPIO_WritePin
 4853              	.LVL678:
 4854              	.L279:
1009:Core/Src/main.c ****   }
1010:Core/Src/main.c **** }
 4855              		.loc 1 1010 1 is_stmt 0 view .LVU1173
 4856 007c 38BD     		pop	{r3, r4, r5, pc}
 4857              	.LVL679:
 4858              	.L284:
 993:Core/Src/main.c ****     HAL_GPIO_WritePin(IN4B_GPIO_Port, IN4B_Pin, SET);
 4859              		.loc 1 993 5 is_stmt 1 view .LVU1174
 4860 007e 0122     		movs	r2, #1
 4861 0080 0221     		movs	r1, #2
 4862 0082 2846     		mov	r0, r5
 4863 0084 FFF7FEFF 		bl	HAL_GPIO_WritePin
 4864              	.LVL680:
 994:Core/Src/main.c ****   }
 4865              		.loc 1 994 5 view .LVU1175
 4866 0088 0122     		movs	r2, #1
 4867 008a 4FF40041 		mov	r1, #32768
 4868 008e 0A48     		ldr	r0, .L286+8
 4869 0090 FFF7FEFF 		bl	HAL_GPIO_WritePin
 4870              	.LVL681:
 4871 0094 F2E7     		b	.L279
 4872              	.L285:
 998:Core/Src/main.c ****     HAL_GPIO_WritePin(IN4A_GPIO_Port, IN4A_Pin, SET);
 4873              		.loc 1 998 5 view .LVU1176
 4874 0096 0122     		movs	r2, #1
 4875 0098 1146     		mov	r1, r2
 4876 009a 0548     		ldr	r0, .L286
ARM GAS  C:\Users\86183\AppData\Local\Temp\ccaDF7Ye.s 			page 111


 4877 009c FFF7FEFF 		bl	HAL_GPIO_WritePin
 4878              	.LVL682:
 999:Core/Src/main.c ****   }
 4879              		.loc 1 999 5 view .LVU1177
 4880 00a0 0122     		movs	r2, #1
 4881 00a2 4FF48061 		mov	r1, #1024
 4882 00a6 0348     		ldr	r0, .L286+4
 4883 00a8 FFF7FEFF 		bl	HAL_GPIO_WritePin
 4884              	.LVL683:
 4885 00ac E6E7     		b	.L279
 4886              	.L287:
 4887 00ae 00BF     		.align	2
 4888              	.L286:
 4889 00b0 000C0140 		.word	1073810432
 4890 00b4 00100140 		.word	1073811456
 4891 00b8 00080140 		.word	1073809408
 4892              		.cfi_endproc
 4893              	.LFE90:
 4895              		.global	__aeabi_fcmpge
 4896              		.section	.text.Move,"ax",%progbits
 4897              		.align	1
 4898              		.global	Move
 4899              		.syntax unified
 4900              		.thumb
 4901              		.thumb_func
 4902              		.fpu softvfp
 4904              	Move:
 4905              	.LVL684:
 4906              	.LFB81:
 625:Core/Src/main.c ****   angle *= 2 * 3.14159 / 360;
 4907              		.loc 1 625 1 view -0
 4908              		.cfi_startproc
 4909              		@ args = 0, pretend = 0, frame = 0
 4910              		@ frame_needed = 0, uses_anonymous_args = 0
 625:Core/Src/main.c ****   angle *= 2 * 3.14159 / 360;
 4911              		.loc 1 625 1 is_stmt 0 view .LVU1179
 4912 0000 2DE9F843 		push	{r3, r4, r5, r6, r7, r8, r9, lr}
 4913              	.LCFI33:
 4914              		.cfi_def_cfa_offset 32
 4915              		.cfi_offset 3, -32
 4916              		.cfi_offset 4, -28
 4917              		.cfi_offset 5, -24
 4918              		.cfi_offset 6, -20
 4919              		.cfi_offset 7, -16
 4920              		.cfi_offset 8, -12
 4921              		.cfi_offset 9, -8
 4922              		.cfi_offset 14, -4
 4923 0004 0546     		mov	r5, r0
 626:Core/Src/main.c ****   angle += 0.785398;
 4924              		.loc 1 626 3 is_stmt 1 view .LVU1180
 626:Core/Src/main.c ****   angle += 0.785398;
 4925              		.loc 1 626 9 is_stmt 0 view .LVU1181
 4926 0006 0846     		mov	r0, r1
 4927              	.LVL685:
 626:Core/Src/main.c ****   angle += 0.785398;
 4928              		.loc 1 626 9 view .LVU1182
 4929 0008 FFF7FEFF 		bl	__aeabi_f2d
ARM GAS  C:\Users\86183\AppData\Local\Temp\ccaDF7Ye.s 			page 112


 4930              	.LVL686:
 626:Core/Src/main.c ****   angle += 0.785398;
 4931              		.loc 1 626 9 view .LVU1183
 4932 000c 3AA3     		adr	r3, .L300
 4933 000e D3E90023 		ldrd	r2, [r3]
 4934 0012 FFF7FEFF 		bl	__aeabi_dmul
 4935              	.LVL687:
 4936 0016 FFF7FEFF 		bl	__aeabi_d2f
 4937              	.LVL688:
 627:Core/Src/main.c ****   float v1, v2;
 4938              		.loc 1 627 3 is_stmt 1 view .LVU1184
 627:Core/Src/main.c ****   float v1, v2;
 4939              		.loc 1 627 9 is_stmt 0 view .LVU1185
 4940 001a FFF7FEFF 		bl	__aeabi_f2d
 4941              	.LVL689:
 627:Core/Src/main.c ****   float v1, v2;
 4942              		.loc 1 627 9 view .LVU1186
 4943 001e 38A3     		adr	r3, .L300+8
 4944 0020 D3E90023 		ldrd	r2, [r3]
 4945 0024 FFF7FEFF 		bl	__aeabi_dadd
 4946              	.LVL690:
 4947 0028 FFF7FEFF 		bl	__aeabi_d2f
 4948              	.LVL691:
 4949 002c 0446     		mov	r4, r0
 4950              	.LVL692:
 628:Core/Src/main.c ****   v1 = velocity * cos(angle);
 4951              		.loc 1 628 3 is_stmt 1 view .LVU1187
 629:Core/Src/main.c ****   v2 = velocity * sin(angle);
 4952              		.loc 1 629 3 view .LVU1188
 629:Core/Src/main.c ****   v2 = velocity * sin(angle);
 4953              		.loc 1 629 17 is_stmt 0 view .LVU1189
 4954 002e 2846     		mov	r0, r5
 4955              	.LVL693:
 629:Core/Src/main.c ****   v2 = velocity * sin(angle);
 4956              		.loc 1 629 17 view .LVU1190
 4957 0030 FFF7FEFF 		bl	__aeabi_f2d
 4958              	.LVL694:
 4959 0034 0646     		mov	r6, r0
 4960 0036 0F46     		mov	r7, r1
 629:Core/Src/main.c ****   v2 = velocity * sin(angle);
 4961              		.loc 1 629 19 view .LVU1191
 4962 0038 2046     		mov	r0, r4
 4963 003a FFF7FEFF 		bl	__aeabi_f2d
 4964              	.LVL695:
 4965 003e 8046     		mov	r8, r0
 4966 0040 8946     		mov	r9, r1
 4967 0042 FFF7FEFF 		bl	cos
 4968              	.LVL696:
 4969 0046 0246     		mov	r2, r0
 4970 0048 0B46     		mov	r3, r1
 629:Core/Src/main.c ****   v2 = velocity * sin(angle);
 4971              		.loc 1 629 17 view .LVU1192
 4972 004a 3046     		mov	r0, r6
 4973 004c 3946     		mov	r1, r7
 4974 004e FFF7FEFF 		bl	__aeabi_dmul
 4975              	.LVL697:
 629:Core/Src/main.c ****   v2 = velocity * sin(angle);
ARM GAS  C:\Users\86183\AppData\Local\Temp\ccaDF7Ye.s 			page 113


 4976              		.loc 1 629 6 view .LVU1193
 4977 0052 FFF7FEFF 		bl	__aeabi_d2f
 4978              	.LVL698:
 4979 0056 0546     		mov	r5, r0
 4980              	.LVL699:
 630:Core/Src/main.c ****   if (v1 >= 0)
 4981              		.loc 1 630 3 is_stmt 1 view .LVU1194
 630:Core/Src/main.c ****   if (v1 >= 0)
 4982              		.loc 1 630 19 is_stmt 0 view .LVU1195
 4983 0058 4046     		mov	r0, r8
 4984              	.LVL700:
 630:Core/Src/main.c ****   if (v1 >= 0)
 4985              		.loc 1 630 19 view .LVU1196
 4986 005a 4946     		mov	r1, r9
 4987 005c FFF7FEFF 		bl	sin
 4988              	.LVL701:
 4989 0060 0246     		mov	r2, r0
 4990 0062 0B46     		mov	r3, r1
 630:Core/Src/main.c ****   if (v1 >= 0)
 4991              		.loc 1 630 17 view .LVU1197
 4992 0064 3046     		mov	r0, r6
 4993 0066 3946     		mov	r1, r7
 4994 0068 FFF7FEFF 		bl	__aeabi_dmul
 4995              	.LVL702:
 630:Core/Src/main.c ****   if (v1 >= 0)
 4996              		.loc 1 630 6 view .LVU1198
 4997 006c FFF7FEFF 		bl	__aeabi_d2f
 4998              	.LVL703:
 4999 0070 0446     		mov	r4, r0
 5000              	.LVL704:
 631:Core/Src/main.c ****   {
 5001              		.loc 1 631 3 is_stmt 1 view .LVU1199
 631:Core/Src/main.c ****   {
 5002              		.loc 1 631 6 is_stmt 0 view .LVU1200
 5003 0072 0021     		movs	r1, #0
 5004 0074 2846     		mov	r0, r5
 5005              	.LVL705:
 631:Core/Src/main.c ****   {
 5006              		.loc 1 631 6 view .LVU1201
 5007 0076 FFF7FEFF 		bl	__aeabi_fcmpge
 5008              	.LVL706:
 5009 007a E0B1     		cbz	r0, .L297
 633:Core/Src/main.c ****     Set_Speed(v1, 0);
 5010              		.loc 1 633 5 is_stmt 1 view .LVU1202
 5011 007c 0120     		movs	r0, #1
 5012 007e FFF7FEFF 		bl	Set_LF_Direction
 5013              	.LVL707:
 634:Core/Src/main.c ****     Set_Speed(v1, 2);
 5014              		.loc 1 634 5 view .LVU1203
 5015 0082 0021     		movs	r1, #0
 5016 0084 2846     		mov	r0, r5
 5017 0086 FFF7FEFF 		bl	Set_Speed
 5018              	.LVL708:
 635:Core/Src/main.c ****   }
 5019              		.loc 1 635 5 view .LVU1204
 5020 008a 0221     		movs	r1, #2
 5021 008c 2846     		mov	r0, r5
ARM GAS  C:\Users\86183\AppData\Local\Temp\ccaDF7Ye.s 			page 114


 5022 008e FFF7FEFF 		bl	Set_Speed
 5023              	.LVL709:
 5024              	.L291:
 644:Core/Src/main.c ****   {
 5025              		.loc 1 644 3 view .LVU1205
 644:Core/Src/main.c ****   {
 5026              		.loc 1 644 6 is_stmt 0 view .LVU1206
 5027 0092 0021     		movs	r1, #0
 5028 0094 2046     		mov	r0, r4
 5029 0096 FFF7FEFF 		bl	__aeabi_fcmpge
 5030              	.LVL710:
 5031 009a D8B1     		cbz	r0, .L298
 646:Core/Src/main.c ****     Set_Speed(v2, 1);
 5032              		.loc 1 646 5 is_stmt 1 view .LVU1207
 5033 009c 0120     		movs	r0, #1
 5034 009e FFF7FEFF 		bl	Set_RF_Direction
 5035              	.LVL711:
 647:Core/Src/main.c ****     Set_Speed(v2, 3);
 5036              		.loc 1 647 5 view .LVU1208
 5037 00a2 0121     		movs	r1, #1
 5038 00a4 2046     		mov	r0, r4
 5039 00a6 FFF7FEFF 		bl	Set_Speed
 5040              	.LVL712:
 648:Core/Src/main.c ****   }
 5041              		.loc 1 648 5 view .LVU1209
 5042 00aa 0321     		movs	r1, #3
 5043 00ac 2046     		mov	r0, r4
 5044 00ae FFF7FEFF 		bl	Set_Speed
 5045              	.LVL713:
 5046              	.L288:
 656:Core/Src/main.c **** 
 5047              		.loc 1 656 1 is_stmt 0 view .LVU1210
 5048 00b2 BDE8F883 		pop	{r3, r4, r5, r6, r7, r8, r9, pc}
 5049              	.LVL714:
 5050              	.L297:
 639:Core/Src/main.c ****     Set_Speed(-v1, 0);
 5051              		.loc 1 639 5 is_stmt 1 view .LVU1211
 5052 00b6 4FF0FF30 		mov	r0, #-1
 5053 00ba FFF7FEFF 		bl	Set_LF_Direction
 5054              	.LVL715:
 640:Core/Src/main.c ****     Set_Speed(-v1, 2);
 5055              		.loc 1 640 5 view .LVU1212
 5056 00be 05F10045 		add	r5, r5, #-2147483648
 5057              	.LVL716:
 640:Core/Src/main.c ****     Set_Speed(-v1, 2);
 5058              		.loc 1 640 5 is_stmt 0 view .LVU1213
 5059 00c2 0021     		movs	r1, #0
 5060 00c4 2846     		mov	r0, r5
 5061 00c6 FFF7FEFF 		bl	Set_Speed
 5062              	.LVL717:
 641:Core/Src/main.c ****   }
 5063              		.loc 1 641 5 is_stmt 1 view .LVU1214
 5064 00ca 0221     		movs	r1, #2
 5065 00cc 2846     		mov	r0, r5
 5066 00ce FFF7FEFF 		bl	Set_Speed
 5067              	.LVL718:
 5068 00d2 DEE7     		b	.L291
ARM GAS  C:\Users\86183\AppData\Local\Temp\ccaDF7Ye.s 			page 115


 5069              	.L298:
 652:Core/Src/main.c ****     Set_Speed(-v2, 1);
 5070              		.loc 1 652 5 view .LVU1215
 5071 00d4 4FF0FF30 		mov	r0, #-1
 5072 00d8 FFF7FEFF 		bl	Set_RF_Direction
 5073              	.LVL719:
 653:Core/Src/main.c ****     Set_Speed(-v2, 3);
 5074              		.loc 1 653 5 view .LVU1216
 5075 00dc 04F10044 		add	r4, r4, #-2147483648
 5076              	.LVL720:
 653:Core/Src/main.c ****     Set_Speed(-v2, 3);
 5077              		.loc 1 653 5 is_stmt 0 view .LVU1217
 5078 00e0 0121     		movs	r1, #1
 5079 00e2 2046     		mov	r0, r4
 5080 00e4 FFF7FEFF 		bl	Set_Speed
 5081              	.LVL721:
 654:Core/Src/main.c ****   }
 5082              		.loc 1 654 5 is_stmt 1 view .LVU1218
 5083 00e8 0321     		movs	r1, #3
 5084 00ea 2046     		mov	r0, r4
 5085 00ec FFF7FEFF 		bl	Set_Speed
 5086              	.LVL722:
 656:Core/Src/main.c **** 
 5087              		.loc 1 656 1 is_stmt 0 view .LVU1219
 5088 00f0 DFE7     		b	.L288
 5089              	.L301:
 5090 00f2 00BFAFF3 		.align	3
 5090      0080
 5091              	.L300:
 5092 00f8 70E20DA5 		.word	-1525816720
 5093 00fc 45DF913F 		.word	1066524485
 5094 0100 7A008BFC 		.word	-57999238
 5095 0104 FA21E93F 		.word	1072243194
 5096              		.cfi_endproc
 5097              	.LFE81:
 5099              		.section	.text.SurveyTowards,"ax",%progbits
 5100              		.align	1
 5101              		.global	SurveyTowards
 5102              		.syntax unified
 5103              		.thumb
 5104              		.thumb_func
 5105              		.fpu softvfp
 5107              	SurveyTowards:
 5108              	.LVL723:
 5109              	.LFB82:
 659:Core/Src/main.c ****   HAL_GPIO_WritePin(LED_GPIO_Port, LED_Pin, SET);
 5110              		.loc 1 659 1 is_stmt 1 view -0
 5111              		.cfi_startproc
 5112              		@ args = 0, pretend = 0, frame = 0
 5113              		@ frame_needed = 0, uses_anonymous_args = 0
 659:Core/Src/main.c ****   HAL_GPIO_WritePin(LED_GPIO_Port, LED_Pin, SET);
 5114              		.loc 1 659 1 is_stmt 0 view .LVU1221
 5115 0000 70B5     		push	{r4, r5, r6, lr}
 5116              	.LCFI34:
 5117              		.cfi_def_cfa_offset 16
 5118              		.cfi_offset 4, -16
 5119              		.cfi_offset 5, -12
ARM GAS  C:\Users\86183\AppData\Local\Temp\ccaDF7Ye.s 			page 116


 5120              		.cfi_offset 6, -8
 5121              		.cfi_offset 14, -4
 5122 0002 0546     		mov	r5, r0
 660:Core/Src/main.c ****   if (isPackageValid[0] && isPackageValid[1])
 5123              		.loc 1 660 3 is_stmt 1 view .LVU1222
 5124 0004 0122     		movs	r2, #1
 5125 0006 0421     		movs	r1, #4
 5126 0008 2F48     		ldr	r0, .L315
 5127              	.LVL724:
 660:Core/Src/main.c ****   if (isPackageValid[0] && isPackageValid[1])
 5128              		.loc 1 660 3 is_stmt 0 view .LVU1223
 5129 000a FFF7FEFF 		bl	HAL_GPIO_WritePin
 5130              	.LVL725:
 661:Core/Src/main.c ****   {
 5131              		.loc 1 661 3 is_stmt 1 view .LVU1224
 661:Core/Src/main.c ****   {
 5132              		.loc 1 661 21 is_stmt 0 view .LVU1225
 5133 000e 2F4B     		ldr	r3, .L315+4
 5134 0010 1B68     		ldr	r3, [r3]
 661:Core/Src/main.c ****   {
 5135              		.loc 1 661 6 view .LVU1226
 5136 0012 13B1     		cbz	r3, .L303
 661:Core/Src/main.c ****   {
 5137              		.loc 1 661 42 discriminator 1 view .LVU1227
 5138 0014 2D4A     		ldr	r2, .L315+4
 5139 0016 5268     		ldr	r2, [r2, #4]
 661:Core/Src/main.c ****   {
 5140              		.loc 1 661 25 discriminator 1 view .LVU1228
 5141 0018 92B9     		cbnz	r2, .L314
 5142              	.L303:
 666:Core/Src/main.c ****     surveyDataCount[0] = 0;
 5143              		.loc 1 666 3 is_stmt 1 view .LVU1229
 666:Core/Src/main.c ****     surveyDataCount[0] = 0;
 5144              		.loc 1 666 6 is_stmt 0 view .LVU1230
 5145 001a 13B9     		cbnz	r3, .L305
 667:Core/Src/main.c ****   if (!isPackageValid[1])
 5146              		.loc 1 667 5 is_stmt 1 view .LVU1231
 667:Core/Src/main.c ****   if (!isPackageValid[1])
 5147              		.loc 1 667 24 is_stmt 0 view .LVU1232
 5148 001c 2C4B     		ldr	r3, .L315+8
 5149 001e 0022     		movs	r2, #0
 5150 0020 1A60     		str	r2, [r3]
 5151              	.L305:
 668:Core/Src/main.c ****     surveyDataCount[1] = 0;
 5152              		.loc 1 668 3 is_stmt 1 view .LVU1233
 668:Core/Src/main.c ****     surveyDataCount[1] = 0;
 5153              		.loc 1 668 22 is_stmt 0 view .LVU1234
 5154 0022 2A4B     		ldr	r3, .L315+4
 5155 0024 5B68     		ldr	r3, [r3, #4]
 668:Core/Src/main.c ****     surveyDataCount[1] = 0;
 5156              		.loc 1 668 6 view .LVU1235
 5157 0026 13B9     		cbnz	r3, .L306
 669:Core/Src/main.c ****   Move(10, targetAngle);
 5158              		.loc 1 669 5 is_stmt 1 view .LVU1236
 669:Core/Src/main.c ****   Move(10, targetAngle);
 5159              		.loc 1 669 24 is_stmt 0 view .LVU1237
 5160 0028 294B     		ldr	r3, .L315+8
ARM GAS  C:\Users\86183\AppData\Local\Temp\ccaDF7Ye.s 			page 117


 5161 002a 0022     		movs	r2, #0
 5162 002c 5A60     		str	r2, [r3, #4]
 5163              	.L306:
 670:Core/Src/main.c ****   int temp = surveyDataCount[0] + surveyDataCount[1];
 5164              		.loc 1 670 3 is_stmt 1 view .LVU1238
 5165 002e 2946     		mov	r1, r5
 5166 0030 2848     		ldr	r0, .L315+12
 5167 0032 FFF7FEFF 		bl	Move
 5168              	.LVL726:
 671:Core/Src/main.c ****   while (surveyDataCount[0] + surveyDataCount[1] == temp)
 5169              		.loc 1 671 3 view .LVU1239
 671:Core/Src/main.c ****   while (surveyDataCount[0] + surveyDataCount[1] == temp)
 5170              		.loc 1 671 29 is_stmt 0 view .LVU1240
 5171 0036 264B     		ldr	r3, .L315+8
 5172 0038 1C68     		ldr	r4, [r3]
 671:Core/Src/main.c ****   while (surveyDataCount[0] + surveyDataCount[1] == temp)
 5173              		.loc 1 671 50 view .LVU1241
 5174 003a 5B68     		ldr	r3, [r3, #4]
 671:Core/Src/main.c ****   while (surveyDataCount[0] + surveyDataCount[1] == temp)
 5175              		.loc 1 671 7 view .LVU1242
 5176 003c 1C44     		add	r4, r4, r3
 5177              	.LVL727:
 672:Core/Src/main.c ****   {
 5178              		.loc 1 672 3 is_stmt 1 view .LVU1243
 672:Core/Src/main.c ****   {
 5179              		.loc 1 672 9 is_stmt 0 view .LVU1244
 5180 003e 0AE0     		b	.L307
 5181              	.LVL728:
 5182              	.L314:
 663:Core/Src/main.c ****     return;
 5183              		.loc 1 663 5 is_stmt 1 view .LVU1245
 5184 0040 0022     		movs	r2, #0
 5185 0042 0421     		movs	r1, #4
 5186 0044 2048     		ldr	r0, .L315
 5187 0046 FFF7FEFF 		bl	HAL_GPIO_WritePin
 5188              	.LVL729:
 664:Core/Src/main.c ****   }
 5189              		.loc 1 664 5 view .LVU1246
 5190 004a 3BE0     		b	.L302
 5191              	.LVL730:
 5192              	.L308:
 674:Core/Src/main.c ****     survey();
 5193              		.loc 1 674 5 view .LVU1247
 5194 004c 1420     		movs	r0, #20
 5195 004e FFF7FEFF 		bl	HAL_Delay
 5196              	.LVL731:
 675:Core/Src/main.c ****   }
 5197              		.loc 1 675 5 view .LVU1248
 5198 0052 FFF7FEFF 		bl	survey
 5199              	.LVL732:
 5200              	.L307:
 672:Core/Src/main.c ****   {
 5201              		.loc 1 672 9 view .LVU1249
 672:Core/Src/main.c ****   {
 5202              		.loc 1 672 25 is_stmt 0 view .LVU1250
 5203 0056 1E4A     		ldr	r2, .L315+8
 5204 0058 1368     		ldr	r3, [r2]
ARM GAS  C:\Users\86183\AppData\Local\Temp\ccaDF7Ye.s 			page 118


 672:Core/Src/main.c ****   {
 5205              		.loc 1 672 46 view .LVU1251
 5206 005a 5268     		ldr	r2, [r2, #4]
 672:Core/Src/main.c ****   {
 5207              		.loc 1 672 29 view .LVU1252
 5208 005c 1344     		add	r3, r3, r2
 672:Core/Src/main.c ****   {
 5209              		.loc 1 672 9 view .LVU1253
 5210 005e A342     		cmp	r3, r4
 5211 0060 F4D0     		beq	.L308
 677:Core/Src/main.c ****   temp = surveyDataCount[0] + surveyDataCount[1];
 5212              		.loc 1 677 3 is_stmt 1 view .LVU1254
 5213 0062 1D49     		ldr	r1, .L315+16
 5214 0064 2846     		mov	r0, r5
 5215 0066 FFF7FEFF 		bl	__aeabi_fsub
 5216              	.LVL733:
 5217 006a 0146     		mov	r1, r0
 5218 006c 1948     		ldr	r0, .L315+12
 5219 006e FFF7FEFF 		bl	Move
 5220              	.LVL734:
 678:Core/Src/main.c ****   while (surveyDataCount[0] + surveyDataCount[1] == temp)
 5221              		.loc 1 678 3 view .LVU1255
 678:Core/Src/main.c ****   while (surveyDataCount[0] + surveyDataCount[1] == temp)
 5222              		.loc 1 678 25 is_stmt 0 view .LVU1256
 5223 0072 174B     		ldr	r3, .L315+8
 5224 0074 1E68     		ldr	r6, [r3]
 678:Core/Src/main.c ****   while (surveyDataCount[0] + surveyDataCount[1] == temp)
 5225              		.loc 1 678 46 view .LVU1257
 5226 0076 5B68     		ldr	r3, [r3, #4]
 678:Core/Src/main.c ****   while (surveyDataCount[0] + surveyDataCount[1] == temp)
 5227              		.loc 1 678 8 view .LVU1258
 5228 0078 1E44     		add	r6, r6, r3
 5229              	.LVL735:
 679:Core/Src/main.c ****   {
 5230              		.loc 1 679 3 is_stmt 1 view .LVU1259
 679:Core/Src/main.c ****   {
 5231              		.loc 1 679 9 is_stmt 0 view .LVU1260
 5232 007a 04E0     		b	.L309
 5233              	.L310:
 681:Core/Src/main.c ****     survey();
 5234              		.loc 1 681 5 is_stmt 1 view .LVU1261
 5235 007c 1420     		movs	r0, #20
 5236 007e FFF7FEFF 		bl	HAL_Delay
 5237              	.LVL736:
 682:Core/Src/main.c ****   }
 5238              		.loc 1 682 5 view .LVU1262
 5239 0082 FFF7FEFF 		bl	survey
 5240              	.LVL737:
 5241              	.L309:
 679:Core/Src/main.c ****   {
 5242              		.loc 1 679 9 view .LVU1263
 679:Core/Src/main.c ****   {
 5243              		.loc 1 679 25 is_stmt 0 view .LVU1264
 5244 0086 124B     		ldr	r3, .L315+8
 5245 0088 1C68     		ldr	r4, [r3]
 679:Core/Src/main.c ****   {
 5246              		.loc 1 679 46 view .LVU1265
ARM GAS  C:\Users\86183\AppData\Local\Temp\ccaDF7Ye.s 			page 119


 5247 008a 5B68     		ldr	r3, [r3, #4]
 679:Core/Src/main.c ****   {
 5248              		.loc 1 679 29 view .LVU1266
 5249 008c 1C44     		add	r4, r4, r3
 679:Core/Src/main.c ****   {
 5250              		.loc 1 679 9 view .LVU1267
 5251 008e B442     		cmp	r4, r6
 5252 0090 F4D0     		beq	.L310
 684:Core/Src/main.c ****   Move(10, targetAngle + 30);
 5253              		.loc 1 684 3 is_stmt 1 view .LVU1268
 5254              	.LVL738:
 685:Core/Src/main.c ****   while (surveyDataCount[0] + surveyDataCount[1] == temp)
 5255              		.loc 1 685 3 view .LVU1269
 5256 0092 1149     		ldr	r1, .L315+16
 5257 0094 2846     		mov	r0, r5
 5258 0096 FFF7FEFF 		bl	__aeabi_fadd
 5259              	.LVL739:
 5260 009a 0146     		mov	r1, r0
 5261 009c 0D48     		ldr	r0, .L315+12
 5262 009e FFF7FEFF 		bl	Move
 5263              	.LVL740:
 686:Core/Src/main.c ****   {
 5264              		.loc 1 686 3 view .LVU1270
 686:Core/Src/main.c ****   {
 5265              		.loc 1 686 9 is_stmt 0 view .LVU1271
 5266 00a2 04E0     		b	.L311
 5267              	.L312:
 688:Core/Src/main.c ****     survey();
 5268              		.loc 1 688 5 is_stmt 1 view .LVU1272
 5269 00a4 1420     		movs	r0, #20
 5270 00a6 FFF7FEFF 		bl	HAL_Delay
 5271              	.LVL741:
 689:Core/Src/main.c ****   }
 5272              		.loc 1 689 5 view .LVU1273
 5273 00aa FFF7FEFF 		bl	survey
 5274              	.LVL742:
 5275              	.L311:
 686:Core/Src/main.c ****   {
 5276              		.loc 1 686 9 view .LVU1274
 686:Core/Src/main.c ****   {
 5277              		.loc 1 686 25 is_stmt 0 view .LVU1275
 5278 00ae 084A     		ldr	r2, .L315+8
 5279 00b0 1368     		ldr	r3, [r2]
 686:Core/Src/main.c ****   {
 5280              		.loc 1 686 46 view .LVU1276
 5281 00b2 5268     		ldr	r2, [r2, #4]
 686:Core/Src/main.c ****   {
 5282              		.loc 1 686 29 view .LVU1277
 5283 00b4 1344     		add	r3, r3, r2
 686:Core/Src/main.c ****   {
 5284              		.loc 1 686 9 view .LVU1278
 5285 00b6 9C42     		cmp	r4, r3
 5286 00b8 F4D0     		beq	.L312
 691:Core/Src/main.c **** }
 5287              		.loc 1 691 3 is_stmt 1 view .LVU1279
 5288 00ba 0022     		movs	r2, #0
 5289 00bc 0421     		movs	r1, #4
ARM GAS  C:\Users\86183\AppData\Local\Temp\ccaDF7Ye.s 			page 120


 5290 00be 0248     		ldr	r0, .L315
 5291 00c0 FFF7FEFF 		bl	HAL_GPIO_WritePin
 5292              	.LVL743:
 5293              	.L302:
 692:Core/Src/main.c **** 
 5294              		.loc 1 692 1 is_stmt 0 view .LVU1280
 5295 00c4 70BD     		pop	{r4, r5, r6, pc}
 5296              	.LVL744:
 5297              	.L316:
 692:Core/Src/main.c **** 
 5298              		.loc 1 692 1 view .LVU1281
 5299 00c6 00BF     		.align	2
 5300              	.L315:
 5301 00c8 00140140 		.word	1073812480
 5302 00cc 00000000 		.word	.LANCHOR15
 5303 00d0 00000000 		.word	.LANCHOR16
 5304 00d4 00002041 		.word	1092616192
 5305 00d8 0000F041 		.word	1106247680
 5306              		.cfi_endproc
 5307              	.LFE82:
 5309              		.global	__aeabi_dsub
 5310              		.global	__aeabi_dcmplt
 5311              		.section	.text.MoveTo,"ax",%progbits
 5312              		.align	1
 5313              		.global	MoveTo
 5314              		.syntax unified
 5315              		.thumb
 5316              		.thumb_func
 5317              		.fpu softvfp
 5319              	MoveTo:
 5320              	.LVL745:
 5321              	.LFB83:
 695:Core/Src/main.c ****   if (x < 7 || x > 248 || y < 7 || y > 248)
 5322              		.loc 1 695 1 is_stmt 1 view -0
 5323              		.cfi_startproc
 5324              		@ args = 0, pretend = 0, frame = 40
 5325              		@ frame_needed = 0, uses_anonymous_args = 0
 695:Core/Src/main.c ****   if (x < 7 || x > 248 || y < 7 || y > 248)
 5326              		.loc 1 695 1 is_stmt 0 view .LVU1283
 5327 0000 2DE9F04F 		push	{r4, r5, r6, r7, r8, r9, r10, fp, lr}
 5328              	.LCFI35:
 5329              		.cfi_def_cfa_offset 36
 5330              		.cfi_offset 4, -36
 5331              		.cfi_offset 5, -32
 5332              		.cfi_offset 6, -28
 5333              		.cfi_offset 7, -24
 5334              		.cfi_offset 8, -20
 5335              		.cfi_offset 9, -16
 5336              		.cfi_offset 10, -12
 5337              		.cfi_offset 11, -8
 5338              		.cfi_offset 14, -4
 5339 0004 8BB0     		sub	sp, sp, #44
 5340              	.LCFI36:
 5341              		.cfi_def_cfa_offset 80
 5342 0006 8046     		mov	r8, r0
 5343 0008 0F46     		mov	r7, r1
 696:Core/Src/main.c ****     return;
ARM GAS  C:\Users\86183\AppData\Local\Temp\ccaDF7Ye.s 			page 121


 5344              		.loc 1 696 3 is_stmt 1 view .LVU1284
 696:Core/Src/main.c ****     return;
 5345              		.loc 1 696 6 is_stmt 0 view .LVU1285
 5346 000a 6349     		ldr	r1, .L358+8
 5347              	.LVL746:
 696:Core/Src/main.c ****     return;
 5348              		.loc 1 696 6 view .LVU1286
 5349 000c FFF7FEFF 		bl	__aeabi_fcmplt
 5350              	.LVL747:
 696:Core/Src/main.c ****     return;
 5351              		.loc 1 696 6 view .LVU1287
 5352 0010 70B9     		cbnz	r0, .L317
 696:Core/Src/main.c ****     return;
 5353              		.loc 1 696 13 discriminator 1 view .LVU1288
 5354 0012 6249     		ldr	r1, .L358+12
 5355 0014 4046     		mov	r0, r8
 5356 0016 FFF7FEFF 		bl	__aeabi_fcmpgt
 5357              	.LVL748:
 5358 001a 48B9     		cbnz	r0, .L317
 696:Core/Src/main.c ****     return;
 5359              		.loc 1 696 24 discriminator 2 view .LVU1289
 5360 001c 5E49     		ldr	r1, .L358+8
 5361 001e 3846     		mov	r0, r7
 5362 0020 FFF7FEFF 		bl	__aeabi_fcmplt
 5363              	.LVL749:
 5364 0024 20B9     		cbnz	r0, .L317
 696:Core/Src/main.c ****     return;
 5365              		.loc 1 696 33 discriminator 3 view .LVU1290
 5366 0026 5D49     		ldr	r1, .L358+12
 5367 0028 3846     		mov	r0, r7
 5368 002a FFF7FEFF 		bl	__aeabi_fcmpgt
 5369              	.LVL750:
 5370 002e 10B1     		cbz	r0, .L350
 5371              	.L317:
 766:Core/Src/main.c **** 
 5372              		.loc 1 766 1 view .LVU1291
 5373 0030 0BB0     		add	sp, sp, #44
 5374              	.LCFI37:
 5375              		.cfi_remember_state
 5376              		.cfi_def_cfa_offset 36
 5377              		@ sp needed
 5378 0032 BDE8F08F 		pop	{r4, r5, r6, r7, r8, r9, r10, fp, pc}
 5379              	.LVL751:
 5380              	.L350:
 5381              	.LCFI38:
 5382              		.cfi_restore_state
 698:Core/Src/main.c ****   struct MYCOORD coord = userGetCarPos();
 5383              		.loc 1 698 3 is_stmt 1 discriminator 3 view .LVU1292
 699:Core/Src/main.c ****   float errX = x - coord.x;
 5384              		.loc 1 699 3 discriminator 3 view .LVU1293
 699:Core/Src/main.c ****   float errX = x - coord.x;
 5385              		.loc 1 699 26 is_stmt 0 discriminator 3 view .LVU1294
 5386 0036 07A8     		add	r0, sp, #28
 5387 0038 FFF7FEFF 		bl	userGetCarPos
 5388              	.LVL752:
 700:Core/Src/main.c ****   float errY = y - coord.y;
 5389              		.loc 1 700 3 is_stmt 1 discriminator 3 view .LVU1295
ARM GAS  C:\Users\86183\AppData\Local\Temp\ccaDF7Ye.s 			page 122


 700:Core/Src/main.c ****   float errY = y - coord.y;
 5390              		.loc 1 700 9 is_stmt 0 discriminator 3 view .LVU1296
 5391 003c 0799     		ldr	r1, [sp, #28]	@ float
 5392 003e 4046     		mov	r0, r8
 5393 0040 FFF7FEFF 		bl	__aeabi_fsub
 5394              	.LVL753:
 5395 0044 0546     		mov	r5, r0
 5396              	.LVL754:
 701:Core/Src/main.c ****   float targetAngle = 0, difference = sqrt(errX * errX + errY * errY);
 5397              		.loc 1 701 3 is_stmt 1 discriminator 3 view .LVU1297
 701:Core/Src/main.c ****   float targetAngle = 0, difference = sqrt(errX * errX + errY * errY);
 5398              		.loc 1 701 9 is_stmt 0 discriminator 3 view .LVU1298
 5399 0046 0899     		ldr	r1, [sp, #32]	@ float
 5400 0048 3846     		mov	r0, r7
 5401              	.LVL755:
 701:Core/Src/main.c ****   float targetAngle = 0, difference = sqrt(errX * errX + errY * errY);
 5402              		.loc 1 701 9 discriminator 3 view .LVU1299
 5403 004a FFF7FEFF 		bl	__aeabi_fsub
 5404              	.LVL756:
 5405 004e 0446     		mov	r4, r0
 5406              	.LVL757:
 702:Core/Src/main.c ****   clearDistance();
 5407              		.loc 1 702 3 is_stmt 1 discriminator 3 view .LVU1300
 702:Core/Src/main.c ****   clearDistance();
 5408              		.loc 1 702 49 is_stmt 0 discriminator 3 view .LVU1301
 5409 0050 2946     		mov	r1, r5
 5410 0052 2846     		mov	r0, r5
 5411              	.LVL758:
 702:Core/Src/main.c ****   clearDistance();
 5412              		.loc 1 702 49 discriminator 3 view .LVU1302
 5413 0054 FFF7FEFF 		bl	__aeabi_fmul
 5414              	.LVL759:
 5415 0058 0646     		mov	r6, r0
 702:Core/Src/main.c ****   clearDistance();
 5416              		.loc 1 702 63 discriminator 3 view .LVU1303
 5417 005a 2146     		mov	r1, r4
 5418 005c 2046     		mov	r0, r4
 5419 005e FFF7FEFF 		bl	__aeabi_fmul
 5420              	.LVL760:
 5421 0062 0146     		mov	r1, r0
 702:Core/Src/main.c ****   clearDistance();
 5422              		.loc 1 702 56 discriminator 3 view .LVU1304
 5423 0064 3046     		mov	r0, r6
 5424 0066 FFF7FEFF 		bl	__aeabi_fadd
 5425              	.LVL761:
 702:Core/Src/main.c ****   clearDistance();
 5426              		.loc 1 702 39 discriminator 3 view .LVU1305
 5427 006a FFF7FEFF 		bl	__aeabi_f2d
 5428              	.LVL762:
 5429 006e FFF7FEFF 		bl	sqrt
 5430              	.LVL763:
 702:Core/Src/main.c ****   clearDistance();
 5431              		.loc 1 702 26 discriminator 3 view .LVU1306
 5432 0072 FFF7FEFF 		bl	__aeabi_d2f
 5433              	.LVL764:
 5434 0076 0646     		mov	r6, r0
 5435              	.LVL765:
ARM GAS  C:\Users\86183\AppData\Local\Temp\ccaDF7Ye.s 			page 123


 703:Core/Src/main.c ****   int flag = 0;
 5436              		.loc 1 703 3 is_stmt 1 discriminator 3 view .LVU1307
 5437 0078 FFF7FEFF 		bl	clearDistance
 5438              	.LVL766:
 704:Core/Src/main.c ****   targetAngle = atan2(errX, errY) * 57.296 + absoluteAngle - GetYaw();
 5439              		.loc 1 704 3 discriminator 3 view .LVU1308
 705:Core/Src/main.c ****   if (STATE == (uint8_t)GET_PACKAGE)
 5440              		.loc 1 705 3 discriminator 3 view .LVU1309
 705:Core/Src/main.c ****   if (STATE == (uint8_t)GET_PACKAGE)
 5441              		.loc 1 705 17 is_stmt 0 discriminator 3 view .LVU1310
 5442 007c 2846     		mov	r0, r5
 5443 007e FFF7FEFF 		bl	__aeabi_f2d
 5444              	.LVL767:
 5445 0082 8246     		mov	r10, r0
 5446 0084 8B46     		mov	fp, r1
 5447 0086 2046     		mov	r0, r4
 5448 0088 FFF7FEFF 		bl	__aeabi_f2d
 5449              	.LVL768:
 5450 008c 0446     		mov	r4, r0
 5451              	.LVL769:
 705:Core/Src/main.c ****   if (STATE == (uint8_t)GET_PACKAGE)
 5452              		.loc 1 705 17 discriminator 3 view .LVU1311
 5453 008e 0D46     		mov	r5, r1
 5454              	.LVL770:
 705:Core/Src/main.c ****   if (STATE == (uint8_t)GET_PACKAGE)
 5455              		.loc 1 705 17 discriminator 3 view .LVU1312
 5456 0090 0246     		mov	r2, r0
 5457 0092 0B46     		mov	r3, r1
 5458 0094 5046     		mov	r0, r10
 5459 0096 5946     		mov	r1, fp
 5460 0098 FFF7FEFF 		bl	atan2
 5461              	.LVL771:
 705:Core/Src/main.c ****   if (STATE == (uint8_t)GET_PACKAGE)
 5462              		.loc 1 705 35 discriminator 3 view .LVU1313
 5463 009c 3CA3     		adr	r3, .L358
 5464 009e D3E90023 		ldrd	r2, [r3]
 5465 00a2 FFF7FEFF 		bl	__aeabi_dmul
 5466              	.LVL772:
 5467 00a6 CDE90001 		strd	r0, [sp]
 705:Core/Src/main.c ****   if (STATE == (uint8_t)GET_PACKAGE)
 5468              		.loc 1 705 44 discriminator 3 view .LVU1314
 5469 00aa 3D4B     		ldr	r3, .L358+16
 5470 00ac 1868     		ldr	r0, [r3]	@ float
 5471 00ae FFF7FEFF 		bl	__aeabi_f2d
 5472              	.LVL773:
 5473 00b2 DDE90023 		ldrd	r2, [sp]
 5474 00b6 FFF7FEFF 		bl	__aeabi_dadd
 5475              	.LVL774:
 5476 00ba CDE90001 		strd	r0, [sp]
 705:Core/Src/main.c ****   if (STATE == (uint8_t)GET_PACKAGE)
 5477              		.loc 1 705 62 discriminator 3 view .LVU1315
 5478 00be FFF7FEFF 		bl	GetYaw
 5479              	.LVL775:
 5480 00c2 FFF7FEFF 		bl	__aeabi_f2d
 5481              	.LVL776:
 5482 00c6 0246     		mov	r2, r0
 5483 00c8 0B46     		mov	r3, r1
ARM GAS  C:\Users\86183\AppData\Local\Temp\ccaDF7Ye.s 			page 124


 705:Core/Src/main.c ****   if (STATE == (uint8_t)GET_PACKAGE)
 5484              		.loc 1 705 60 discriminator 3 view .LVU1316
 5485 00ca DDE90001 		ldrd	r0, [sp]
 5486 00ce FFF7FEFF 		bl	__aeabi_dsub
 5487              	.LVL777:
 705:Core/Src/main.c ****   if (STATE == (uint8_t)GET_PACKAGE)
 5488              		.loc 1 705 15 discriminator 3 view .LVU1317
 5489 00d2 FFF7FEFF 		bl	__aeabi_d2f
 5490              	.LVL778:
 5491 00d6 0090     		str	r0, [sp]	@ float
 5492              	.LVL779:
 706:Core/Src/main.c ****     flag = getCarMineSumNum();
 5493              		.loc 1 706 3 is_stmt 1 discriminator 3 view .LVU1318
 706:Core/Src/main.c ****     flag = getCarMineSumNum();
 5494              		.loc 1 706 13 is_stmt 0 discriminator 3 view .LVU1319
 5495 00d8 324B     		ldr	r3, .L358+20
 5496 00da 1B78     		ldrb	r3, [r3]	@ zero_extendqisi2
 706:Core/Src/main.c ****     flag = getCarMineSumNum();
 5497              		.loc 1 706 6 discriminator 3 view .LVU1320
 5498 00dc 53B3     		cbz	r3, .L351
 704:Core/Src/main.c ****   targetAngle = atan2(errX, errY) * 57.296 + absoluteAngle - GetYaw();
 5499              		.loc 1 704 7 view .LVU1321
 5500 00de 4FF00009 		mov	r9, #0
 5501              	.LVL780:
 5502              	.L322:
 708:Core/Src/main.c ****     SurveyTowards(targetAngle);
 5503              		.loc 1 708 3 is_stmt 1 view .LVU1322
 708:Core/Src/main.c ****     SurveyTowards(targetAngle);
 5504              		.loc 1 708 13 is_stmt 0 view .LVU1323
 5505 00e2 304B     		ldr	r3, .L358+20
 5506 00e4 1B78     		ldrb	r3, [r3]	@ zero_extendqisi2
 708:Core/Src/main.c ****     SurveyTowards(targetAngle);
 5507              		.loc 1 708 6 view .LVU1324
 5508 00e6 022B     		cmp	r3, #2
 5509 00e8 28D1     		bne	.L352
 5510              	.L323:
 710:Core/Src/main.c ****   while (difference > 5)
 5511              		.loc 1 710 3 is_stmt 1 view .LVU1325
 710:Core/Src/main.c ****   while (difference > 5)
 5512              		.loc 1 710 17 is_stmt 0 view .LVU1326
 5513 00ea 2246     		mov	r2, r4
 5514 00ec 2B46     		mov	r3, r5
 5515 00ee 5046     		mov	r0, r10
 5516 00f0 5946     		mov	r1, fp
 5517 00f2 FFF7FEFF 		bl	atan2
 5518              	.LVL781:
 710:Core/Src/main.c ****   while (difference > 5)
 5519              		.loc 1 710 35 view .LVU1327
 5520 00f6 26A3     		adr	r3, .L358
 5521 00f8 D3E90023 		ldrd	r2, [r3]
 5522 00fc FFF7FEFF 		bl	__aeabi_dmul
 5523              	.LVL782:
 5524 0100 0446     		mov	r4, r0
 5525 0102 0D46     		mov	r5, r1
 710:Core/Src/main.c ****   while (difference > 5)
 5526              		.loc 1 710 44 view .LVU1328
 5527 0104 264B     		ldr	r3, .L358+16
ARM GAS  C:\Users\86183\AppData\Local\Temp\ccaDF7Ye.s 			page 125


 5528 0106 1868     		ldr	r0, [r3]	@ float
 5529 0108 FFF7FEFF 		bl	__aeabi_f2d
 5530              	.LVL783:
 5531 010c 2246     		mov	r2, r4
 5532 010e 2B46     		mov	r3, r5
 5533 0110 FFF7FEFF 		bl	__aeabi_dadd
 5534              	.LVL784:
 5535 0114 0446     		mov	r4, r0
 5536 0116 0D46     		mov	r5, r1
 710:Core/Src/main.c ****   while (difference > 5)
 5537              		.loc 1 710 62 view .LVU1329
 5538 0118 FFF7FEFF 		bl	GetYaw
 5539              	.LVL785:
 5540 011c FFF7FEFF 		bl	__aeabi_f2d
 5541              	.LVL786:
 5542 0120 0246     		mov	r2, r0
 5543 0122 0B46     		mov	r3, r1
 710:Core/Src/main.c ****   while (difference > 5)
 5544              		.loc 1 710 60 view .LVU1330
 5545 0124 2046     		mov	r0, r4
 5546 0126 2946     		mov	r1, r5
 5547 0128 FFF7FEFF 		bl	__aeabi_dsub
 5548              	.LVL787:
 710:Core/Src/main.c ****   while (difference > 5)
 5549              		.loc 1 710 15 view .LVU1331
 5550 012c FFF7FEFF 		bl	__aeabi_d2f
 5551              	.LVL788:
 5552 0130 0446     		mov	r4, r0
 5553              	.LVL789:
 711:Core/Src/main.c ****   {
 5554              		.loc 1 711 3 is_stmt 1 view .LVU1332
 711:Core/Src/main.c ****   {
 5555              		.loc 1 711 9 is_stmt 0 view .LVU1333
 5556 0132 C6E0     		b	.L324
 5557              	.LVL790:
 5558              	.L351:
 707:Core/Src/main.c ****   if (STATE != SET_BEACON && getCarTask() != 0)
 5559              		.loc 1 707 5 is_stmt 1 view .LVU1334
 707:Core/Src/main.c ****   if (STATE != SET_BEACON && getCarTask() != 0)
 5560              		.loc 1 707 12 is_stmt 0 view .LVU1335
 5561 0134 FFF7FEFF 		bl	getCarMineSumNum
 5562              	.LVL791:
 707:Core/Src/main.c ****   if (STATE != SET_BEACON && getCarTask() != 0)
 5563              		.loc 1 707 10 view .LVU1336
 5564 0138 8146     		mov	r9, r0
 5565              	.LVL792:
 707:Core/Src/main.c ****   if (STATE != SET_BEACON && getCarTask() != 0)
 5566              		.loc 1 707 10 view .LVU1337
 5567 013a D2E7     		b	.L322
 5568              	.LVL793:
 5569              	.L352:
 708:Core/Src/main.c ****     SurveyTowards(targetAngle);
 5570              		.loc 1 708 30 discriminator 1 view .LVU1338
 5571 013c FFF7FEFF 		bl	getCarTask
 5572              	.LVL794:
 708:Core/Src/main.c ****     SurveyTowards(targetAngle);
 5573              		.loc 1 708 27 discriminator 1 view .LVU1339
ARM GAS  C:\Users\86183\AppData\Local\Temp\ccaDF7Ye.s 			page 126


 5574 0140 0028     		cmp	r0, #0
 5575 0142 D2D0     		beq	.L323
 709:Core/Src/main.c ****   targetAngle = atan2(errX, errY) * 57.296 + absoluteAngle - GetYaw();
 5576              		.loc 1 709 5 is_stmt 1 view .LVU1340
 5577 0144 0098     		ldr	r0, [sp]	@ float
 5578 0146 FFF7FEFF 		bl	SurveyTowards
 5579              	.LVL795:
 5580 014a CEE7     		b	.L323
 5581              	.LVL796:
 5582              	.L355:
 714:Core/Src/main.c ****       break;
 5583              		.loc 1 714 49 is_stmt 0 discriminator 1 view .LVU1341
 5584 014c FFF7FEFF 		bl	getCarMineSumNum
 5585              	.LVL797:
 714:Core/Src/main.c ****       break;
 5586              		.loc 1 714 39 discriminator 1 view .LVU1342
 5587 0150 4845     		cmp	r0, r9
 5588 0152 40F3C480 		ble	.L325
 5589 0156 6BE7     		b	.L317
 5590              	.L356:
 716:Core/Src/main.c ****       break;
 5591              		.loc 1 716 43 discriminator 1 view .LVU1343
 5592 0158 1349     		ldr	r1, .L358+24
 5593 015a 3046     		mov	r0, r6
 5594 015c FFF7FEFF 		bl	__aeabi_fcmplt
 5595              	.LVL798:
 5596 0160 0028     		cmp	r0, #0
 5597 0162 00F0C180 		beq	.L327
 716:Core/Src/main.c ****       break;
 5598              		.loc 1 716 43 discriminator 1 view .LVU1344
 5599 0166 63E7     		b	.L317
 5600              	.L357:
 727:Core/Src/main.c ****       else
 5601              		.loc 1 727 18 view .LVU1345
 5602 0168 1048     		ldr	r0, .L358+28
 5603 016a 2CE0     		b	.L328
 5604              	.L347:
 731:Core/Src/main.c ****     {
 5605              		.loc 1 731 10 is_stmt 1 view .LVU1346
 731:Core/Src/main.c ****     {
 5606              		.loc 1 731 13 is_stmt 0 view .LVU1347
 5607 016c 1049     		ldr	r1, .L358+32
 5608 016e 3046     		mov	r0, r6
 5609 0170 FFF7FEFF 		bl	__aeabi_fcmplt
 5610              	.LVL799:
 5611 0174 28B1     		cbz	r0, .L348
 733:Core/Src/main.c ****         velocity = 17;
 5612              		.loc 1 733 7 is_stmt 1 view .LVU1348
 733:Core/Src/main.c ****         velocity = 17;
 5613              		.loc 1 733 10 is_stmt 0 view .LVU1349
 5614 0176 012D     		cmp	r5, #1
 5615 0178 01D0     		beq	.L353
 736:Core/Src/main.c ****     }
 5616              		.loc 1 736 18 view .LVU1350
 5617 017a 0E48     		ldr	r0, .L358+36
 5618 017c 23E0     		b	.L328
 5619              	.L353:
ARM GAS  C:\Users\86183\AppData\Local\Temp\ccaDF7Ye.s 			page 127


 734:Core/Src/main.c ****       else
 5620              		.loc 1 734 18 view .LVU1351
 5621 017e 0E48     		ldr	r0, .L358+40
 5622 0180 21E0     		b	.L328
 5623              	.L348:
 740:Core/Src/main.c ****         velocity = 20;
 5624              		.loc 1 740 7 is_stmt 1 view .LVU1352
 740:Core/Src/main.c ****         velocity = 20;
 5625              		.loc 1 740 10 is_stmt 0 view .LVU1353
 5626 0182 012D     		cmp	r5, #1
 5627 0184 01D0     		beq	.L354
 743:Core/Src/main.c ****     }
 5628              		.loc 1 743 18 view .LVU1354
 5629 0186 0D48     		ldr	r0, .L358+44
 5630 0188 1DE0     		b	.L328
 5631              	.L354:
 741:Core/Src/main.c ****       else
 5632              		.loc 1 741 18 view .LVU1355
 5633 018a 0D48     		ldr	r0, .L358+48
 5634 018c 1BE0     		b	.L328
 5635              	.L359:
 5636 018e 00BF     		.align	3
 5637              	.L358:
 5638 0190 D9CEF753 		.word	1408749273
 5639 0194 E3A54C40 		.word	1078765027
 5640 0198 0000E040 		.word	1088421888
 5641 019c 00007843 		.word	1131937792
 5642 01a0 00000000 		.word	.LANCHOR8
 5643 01a4 00000000 		.word	.LANCHOR18
 5644 01a8 00007041 		.word	1097859072
 5645 01ac 00005041 		.word	1095761920
 5646 01b0 0000C842 		.word	1120403456
 5647 01b4 0000B841 		.word	1102577664
 5648 01b8 00008841 		.word	1099431936
 5649 01bc 0000D841 		.word	1104674816
 5650 01c0 0000A041 		.word	1101004800
 5651              	.L339:
 719:Core/Src/main.c ****     else if (difference < 20)
 5652              		.loc 1 719 16 view .LVU1356
 5653 01c4 5E48     		ldr	r0, .L360+16
 5654              	.L328:
 5655              	.LVL800:
 746:Core/Src/main.c **** 
 5656              		.loc 1 746 5 is_stmt 1 view .LVU1357
 5657 01c6 2146     		mov	r1, r4
 5658 01c8 FFF7FEFF 		bl	Move
 5659              	.LVL801:
 748:Core/Src/main.c ****     {
 5660              		.loc 1 748 5 view .LVU1358
 5661              	.L334:
 748:Core/Src/main.c ****     {
 5662              		.loc 1 748 11 view .LVU1359
 748:Core/Src/main.c ****     {
 5663              		.loc 1 748 12 is_stmt 0 view .LVU1360
 5664 01cc FFF7FEFF 		bl	getDistance
 5665              	.LVL802:
 5666 01d0 FFF7FEFF 		bl	__aeabi_f2d
ARM GAS  C:\Users\86183\AppData\Local\Temp\ccaDF7Ye.s 			page 128


 5667              	.LVL803:
 5668 01d4 0446     		mov	r4, r0
 5669 01d6 0D46     		mov	r5, r1
 748:Core/Src/main.c ****     {
 5670              		.loc 1 748 32 view .LVU1361
 5671 01d8 3046     		mov	r0, r6
 5672 01da FFF7FEFF 		bl	__aeabi_f2d
 5673              	.LVL804:
 5674 01de 54A3     		adr	r3, .L360
 5675 01e0 D3E90023 		ldrd	r2, [r3]
 5676 01e4 FFF7FEFF 		bl	__aeabi_dmul
 5677              	.LVL805:
 5678 01e8 0246     		mov	r2, r0
 5679 01ea 0B46     		mov	r3, r1
 748:Core/Src/main.c ****     {
 5680              		.loc 1 748 11 view .LVU1362
 5681 01ec 2046     		mov	r0, r4
 5682 01ee 2946     		mov	r1, r5
 5683 01f0 FFF7FEFF 		bl	__aeabi_dcmplt
 5684              	.LVL806:
 5685 01f4 50B1     		cbz	r0, .L335
 750:Core/Src/main.c ****       if (STATE == (uint8_t)GET_PACKAGE && flag < getCarMineSumNum())
 5686              		.loc 1 750 7 is_stmt 1 view .LVU1363
 5687 01f6 1420     		movs	r0, #20
 5688 01f8 FFF7FEFF 		bl	HAL_Delay
 5689              	.LVL807:
 751:Core/Src/main.c ****         break;
 5690              		.loc 1 751 7 view .LVU1364
 751:Core/Src/main.c ****         break;
 5691              		.loc 1 751 17 is_stmt 0 view .LVU1365
 5692 01fc 514B     		ldr	r3, .L360+20
 5693 01fe 1B78     		ldrb	r3, [r3]	@ zero_extendqisi2
 751:Core/Src/main.c ****         break;
 5694              		.loc 1 751 10 view .LVU1366
 5695 0200 002B     		cmp	r3, #0
 5696 0202 E3D1     		bne	.L334
 751:Core/Src/main.c ****         break;
 5697              		.loc 1 751 51 discriminator 1 view .LVU1367
 5698 0204 FFF7FEFF 		bl	getCarMineSumNum
 5699              	.LVL808:
 751:Core/Src/main.c ****         break;
 5700              		.loc 1 751 41 discriminator 1 view .LVU1368
 5701 0208 4845     		cmp	r0, r9
 5702 020a DFDD     		ble	.L334
 5703              	.L335:
 755:Core/Src/main.c ****     Set_RF_Direction(0);
 5704              		.loc 1 755 5 is_stmt 1 view .LVU1369
 5705 020c 0020     		movs	r0, #0
 5706 020e FFF7FEFF 		bl	Set_LF_Direction
 5707              	.LVL809:
 756:Core/Src/main.c ****     HAL_Delay(400);
 5708              		.loc 1 756 5 view .LVU1370
 5709 0212 0020     		movs	r0, #0
 5710 0214 FFF7FEFF 		bl	Set_RF_Direction
 5711              	.LVL810:
 757:Core/Src/main.c ****     // while (STATE == (uint8_t)PUT_PACKAGE && userGetMineNum(_mineType) != 0)
 5712              		.loc 1 757 5 view .LVU1371
ARM GAS  C:\Users\86183\AppData\Local\Temp\ccaDF7Ye.s 			page 129


 5713 0218 4FF4C870 		mov	r0, #400
 5714 021c FFF7FEFF 		bl	HAL_Delay
 5715              	.LVL811:
 760:Core/Src/main.c ****     errX = x - coord.x;
 5716              		.loc 1 760 5 view .LVU1372
 760:Core/Src/main.c ****     errX = x - coord.x;
 5717              		.loc 1 760 13 is_stmt 0 view .LVU1373
 5718 0220 02AC     		add	r4, sp, #8
 5719 0222 2046     		mov	r0, r4
 5720 0224 FFF7FEFF 		bl	userGetCarPos
 5721              	.LVL812:
 5722 0228 94E80700 		ldm	r4, {r0, r1, r2}
 5723 022c 0AAB     		add	r3, sp, #40
 5724 022e 03E90700 		stmdb	r3, {r0, r1, r2}
 761:Core/Src/main.c ****     errY = y - coord.y;
 5725              		.loc 1 761 5 is_stmt 1 view .LVU1374
 761:Core/Src/main.c ****     errY = y - coord.y;
 5726              		.loc 1 761 10 is_stmt 0 view .LVU1375
 5727 0232 0799     		ldr	r1, [sp, #28]	@ float
 5728 0234 4046     		mov	r0, r8
 5729 0236 FFF7FEFF 		bl	__aeabi_fsub
 5730              	.LVL813:
 5731 023a 8246     		mov	r10, r0
 5732              	.LVL814:
 762:Core/Src/main.c ****     difference = sqrt(errX * errX + errY * errY);
 5733              		.loc 1 762 5 is_stmt 1 view .LVU1376
 762:Core/Src/main.c ****     difference = sqrt(errX * errX + errY * errY);
 5734              		.loc 1 762 10 is_stmt 0 view .LVU1377
 5735 023c 0899     		ldr	r1, [sp, #32]	@ float
 5736 023e 3846     		mov	r0, r7
 5737              	.LVL815:
 762:Core/Src/main.c ****     difference = sqrt(errX * errX + errY * errY);
 5738              		.loc 1 762 10 view .LVU1378
 5739 0240 FFF7FEFF 		bl	__aeabi_fsub
 5740              	.LVL816:
 5741 0244 0446     		mov	r4, r0
 5742              	.LVL817:
 763:Core/Src/main.c ****     targetAngle = atan2(errX, errY) * 57.296 + absoluteAngle - GetYaw();
 5743              		.loc 1 763 5 is_stmt 1 view .LVU1379
 763:Core/Src/main.c ****     targetAngle = atan2(errX, errY) * 57.296 + absoluteAngle - GetYaw();
 5744              		.loc 1 763 28 is_stmt 0 view .LVU1380
 5745 0246 5146     		mov	r1, r10
 5746 0248 5046     		mov	r0, r10
 5747              	.LVL818:
 763:Core/Src/main.c ****     targetAngle = atan2(errX, errY) * 57.296 + absoluteAngle - GetYaw();
 5748              		.loc 1 763 28 view .LVU1381
 5749 024a FFF7FEFF 		bl	__aeabi_fmul
 5750              	.LVL819:
 5751 024e 0546     		mov	r5, r0
 763:Core/Src/main.c ****     targetAngle = atan2(errX, errY) * 57.296 + absoluteAngle - GetYaw();
 5752              		.loc 1 763 42 view .LVU1382
 5753 0250 2146     		mov	r1, r4
 5754 0252 2046     		mov	r0, r4
 5755 0254 FFF7FEFF 		bl	__aeabi_fmul
 5756              	.LVL820:
 5757 0258 0146     		mov	r1, r0
 763:Core/Src/main.c ****     targetAngle = atan2(errX, errY) * 57.296 + absoluteAngle - GetYaw();
ARM GAS  C:\Users\86183\AppData\Local\Temp\ccaDF7Ye.s 			page 130


 5758              		.loc 1 763 35 view .LVU1383
 5759 025a 2846     		mov	r0, r5
 5760 025c FFF7FEFF 		bl	__aeabi_fadd
 5761              	.LVL821:
 763:Core/Src/main.c ****     targetAngle = atan2(errX, errY) * 57.296 + absoluteAngle - GetYaw();
 5762              		.loc 1 763 18 view .LVU1384
 5763 0260 FFF7FEFF 		bl	__aeabi_f2d
 5764              	.LVL822:
 5765 0264 FFF7FEFF 		bl	sqrt
 5766              	.LVL823:
 763:Core/Src/main.c ****     targetAngle = atan2(errX, errY) * 57.296 + absoluteAngle - GetYaw();
 5767              		.loc 1 763 16 view .LVU1385
 5768 0268 FFF7FEFF 		bl	__aeabi_d2f
 5769              	.LVL824:
 5770 026c 0646     		mov	r6, r0
 5771              	.LVL825:
 764:Core/Src/main.c ****   }
 5772              		.loc 1 764 5 is_stmt 1 view .LVU1386
 764:Core/Src/main.c ****   }
 5773              		.loc 1 764 19 is_stmt 0 view .LVU1387
 5774 026e 2046     		mov	r0, r4
 5775              	.LVL826:
 764:Core/Src/main.c ****   }
 5776              		.loc 1 764 19 view .LVU1388
 5777 0270 FFF7FEFF 		bl	__aeabi_f2d
 5778              	.LVL827:
 5779 0274 0446     		mov	r4, r0
 5780              	.LVL828:
 764:Core/Src/main.c ****   }
 5781              		.loc 1 764 19 view .LVU1389
 5782 0276 0D46     		mov	r5, r1
 5783 0278 5046     		mov	r0, r10
 5784 027a FFF7FEFF 		bl	__aeabi_f2d
 5785              	.LVL829:
 5786 027e 2246     		mov	r2, r4
 5787 0280 2B46     		mov	r3, r5
 5788 0282 FFF7FEFF 		bl	atan2
 5789              	.LVL830:
 764:Core/Src/main.c ****   }
 5790              		.loc 1 764 37 view .LVU1390
 5791 0286 2CA3     		adr	r3, .L360+8
 5792 0288 D3E90023 		ldrd	r2, [r3]
 5793 028c FFF7FEFF 		bl	__aeabi_dmul
 5794              	.LVL831:
 5795 0290 0446     		mov	r4, r0
 5796 0292 0D46     		mov	r5, r1
 764:Core/Src/main.c ****   }
 5797              		.loc 1 764 46 view .LVU1391
 5798 0294 2C4B     		ldr	r3, .L360+24
 5799 0296 1868     		ldr	r0, [r3]	@ float
 5800 0298 FFF7FEFF 		bl	__aeabi_f2d
 5801              	.LVL832:
 5802 029c 2246     		mov	r2, r4
 5803 029e 2B46     		mov	r3, r5
 5804 02a0 FFF7FEFF 		bl	__aeabi_dadd
 5805              	.LVL833:
 5806 02a4 0446     		mov	r4, r0
ARM GAS  C:\Users\86183\AppData\Local\Temp\ccaDF7Ye.s 			page 131


 5807 02a6 0D46     		mov	r5, r1
 764:Core/Src/main.c ****   }
 5808              		.loc 1 764 64 view .LVU1392
 5809 02a8 FFF7FEFF 		bl	GetYaw
 5810              	.LVL834:
 5811 02ac FFF7FEFF 		bl	__aeabi_f2d
 5812              	.LVL835:
 5813 02b0 0246     		mov	r2, r0
 5814 02b2 0B46     		mov	r3, r1
 764:Core/Src/main.c ****   }
 5815              		.loc 1 764 62 view .LVU1393
 5816 02b4 2046     		mov	r0, r4
 5817 02b6 2946     		mov	r1, r5
 5818 02b8 FFF7FEFF 		bl	__aeabi_dsub
 5819              	.LVL836:
 764:Core/Src/main.c ****   }
 5820              		.loc 1 764 17 view .LVU1394
 5821 02bc FFF7FEFF 		bl	__aeabi_d2f
 5822              	.LVL837:
 5823 02c0 0446     		mov	r4, r0
 5824              	.LVL838:
 5825              	.L324:
 711:Core/Src/main.c ****   {
 5826              		.loc 1 711 9 is_stmt 1 view .LVU1395
 5827 02c2 2249     		ldr	r1, .L360+28
 5828 02c4 3046     		mov	r0, r6
 5829              	.LVL839:
 711:Core/Src/main.c ****   {
 5830              		.loc 1 711 9 is_stmt 0 view .LVU1396
 5831 02c6 FFF7FEFF 		bl	__aeabi_fcmpgt
 5832              	.LVL840:
 5833 02ca 0028     		cmp	r0, #0
 5834 02cc 3FF4B0AE 		beq	.L317
 713:Core/Src/main.c ****     if (STATE == (uint8_t)GET_PACKAGE && flag < getCarMineSumNum())
 5835              		.loc 1 713 5 is_stmt 1 view .LVU1397
 5836 02d0 FFF7FEFF 		bl	clearDistance
 5837              	.LVL841:
 714:Core/Src/main.c ****       break;
 5838              		.loc 1 714 5 view .LVU1398
 714:Core/Src/main.c ****       break;
 5839              		.loc 1 714 15 is_stmt 0 view .LVU1399
 5840 02d4 1B4B     		ldr	r3, .L360+20
 5841 02d6 1B78     		ldrb	r3, [r3]	@ zero_extendqisi2
 714:Core/Src/main.c ****       break;
 5842              		.loc 1 714 8 view .LVU1400
 5843 02d8 002B     		cmp	r3, #0
 5844 02da 3FF437AF 		beq	.L355
 5845              	.L325:
 716:Core/Src/main.c ****       break;
 5846              		.loc 1 716 10 is_stmt 1 view .LVU1401
 716:Core/Src/main.c ****       break;
 5847              		.loc 1 716 20 is_stmt 0 view .LVU1402
 5848 02de 194B     		ldr	r3, .L360+20
 5849 02e0 1D78     		ldrb	r5, [r3]	@ zero_extendqisi2
 716:Core/Src/main.c ****       break;
 5850              		.loc 1 716 13 view .LVU1403
 5851 02e2 022D     		cmp	r5, #2
ARM GAS  C:\Users\86183\AppData\Local\Temp\ccaDF7Ye.s 			page 132


 5852 02e4 3FF438AF 		beq	.L356
 5853              	.L327:
 718:Core/Src/main.c ****       velocity = 3;
 5854              		.loc 1 718 5 is_stmt 1 view .LVU1404
 718:Core/Src/main.c ****       velocity = 3;
 5855              		.loc 1 718 8 is_stmt 0 view .LVU1405
 5856 02e8 1949     		ldr	r1, .L360+32
 5857 02ea 3046     		mov	r0, r6
 5858 02ec FFF7FEFF 		bl	__aeabi_fcmplt
 5859              	.LVL842:
 5860 02f0 0028     		cmp	r0, #0
 5861 02f2 7FF467AF 		bne	.L339
 720:Core/Src/main.c ****       velocity = 7;
 5862              		.loc 1 720 10 is_stmt 1 view .LVU1406
 720:Core/Src/main.c ****       velocity = 7;
 5863              		.loc 1 720 13 is_stmt 0 view .LVU1407
 5864 02f6 1749     		ldr	r1, .L360+36
 5865 02f8 3046     		mov	r0, r6
 5866 02fa FFF7FEFF 		bl	__aeabi_fcmplt
 5867              	.LVL843:
 5868 02fe 80B9     		cbnz	r0, .L340
 722:Core/Src/main.c ****       velocity = 10;
 5869              		.loc 1 722 10 is_stmt 1 view .LVU1408
 722:Core/Src/main.c ****       velocity = 10;
 5870              		.loc 1 722 13 is_stmt 0 view .LVU1409
 5871 0300 1549     		ldr	r1, .L360+40
 5872 0302 3046     		mov	r0, r6
 5873 0304 FFF7FEFF 		bl	__aeabi_fcmplt
 5874              	.LVL844:
 5875 0308 68B9     		cbnz	r0, .L341
 724:Core/Src/main.c ****     {
 5876              		.loc 1 724 10 is_stmt 1 view .LVU1410
 724:Core/Src/main.c ****     {
 5877              		.loc 1 724 13 is_stmt 0 view .LVU1411
 5878 030a 1449     		ldr	r1, .L360+44
 5879 030c 3046     		mov	r0, r6
 5880 030e FFF7FEFF 		bl	__aeabi_fcmplt
 5881              	.LVL845:
 5882 0312 0028     		cmp	r0, #0
 5883 0314 3FF42AAF 		beq	.L347
 726:Core/Src/main.c ****         velocity = 13;
 5884              		.loc 1 726 7 is_stmt 1 view .LVU1412
 726:Core/Src/main.c ****         velocity = 13;
 5885              		.loc 1 726 10 is_stmt 0 view .LVU1413
 5886 0318 012D     		cmp	r5, #1
 5887 031a 3FF425AF 		beq	.L357
 729:Core/Src/main.c ****     }
 5888              		.loc 1 729 18 view .LVU1414
 5889 031e 1048     		ldr	r0, .L360+48
 5890 0320 51E7     		b	.L328
 5891              	.L340:
 721:Core/Src/main.c ****     else if (difference < 30)
 5892              		.loc 1 721 16 view .LVU1415
 5893 0322 1048     		ldr	r0, .L360+52
 5894 0324 4FE7     		b	.L328
 5895              	.L341:
 723:Core/Src/main.c ****     else if (difference < 50)
ARM GAS  C:\Users\86183\AppData\Local\Temp\ccaDF7Ye.s 			page 133


 5896              		.loc 1 723 16 view .LVU1416
 5897 0326 0A48     		ldr	r0, .L360+32
 5898 0328 4DE7     		b	.L328
 5899              	.L361:
 5900 032a 00BFAFF3 		.align	3
 5900      0080
 5901              	.L360:
 5902 0330 66666666 		.word	1717986918
 5903 0334 6666E63F 		.word	1072064102
 5904 0338 D9CEF753 		.word	1408749273
 5905 033c E3A54C40 		.word	1078765027
 5906 0340 00004040 		.word	1077936128
 5907 0344 00000000 		.word	.LANCHOR18
 5908 0348 00000000 		.word	.LANCHOR8
 5909 034c 0000A040 		.word	1084227584
 5910 0350 00002041 		.word	1092616192
 5911 0354 0000A041 		.word	1101004800
 5912 0358 0000F041 		.word	1106247680
 5913 035c 00004842 		.word	1112014848
 5914 0360 00008841 		.word	1099431936
 5915 0364 0000E040 		.word	1088421888
 5916              		.cfi_endproc
 5917              	.LFE83:
 5919              		.section	.text.getPackage,"ax",%progbits
 5920              		.align	1
 5921              		.global	getPackage
 5922              		.syntax unified
 5923              		.thumb
 5924              		.thumb_func
 5925              		.fpu softvfp
 5927              	getPackage:
 5928              	.LFB86:
 867:Core/Src/main.c ****   struct MYCOORD coord = userGetCarPos();
 5929              		.loc 1 867 1 is_stmt 1 view -0
 5930              		.cfi_startproc
 5931              		@ args = 0, pretend = 0, frame = 32
 5932              		@ frame_needed = 0, uses_anonymous_args = 0
 5933 0000 2DE9F047 		push	{r4, r5, r6, r7, r8, r9, r10, lr}
 5934              	.LCFI39:
 5935              		.cfi_def_cfa_offset 32
 5936              		.cfi_offset 4, -32
 5937              		.cfi_offset 5, -28
 5938              		.cfi_offset 6, -24
 5939              		.cfi_offset 7, -20
 5940              		.cfi_offset 8, -16
 5941              		.cfi_offset 9, -12
 5942              		.cfi_offset 10, -8
 5943              		.cfi_offset 14, -4
 5944 0004 88B0     		sub	sp, sp, #32
 5945              	.LCFI40:
 5946              		.cfi_def_cfa_offset 64
 868:Core/Src/main.c ****   if (!isPackageValid[0] && !isPackageValid[1])
 5947              		.loc 1 868 3 view .LVU1418
 868:Core/Src/main.c ****   if (!isPackageValid[0] && !isPackageValid[1])
 5948              		.loc 1 868 26 is_stmt 0 view .LVU1419
 5949 0006 05A8     		add	r0, sp, #20
 5950 0008 FFF7FEFF 		bl	userGetCarPos
ARM GAS  C:\Users\86183\AppData\Local\Temp\ccaDF7Ye.s 			page 134


 5951              	.LVL846:
 869:Core/Src/main.c ****   {
 5952              		.loc 1 869 3 is_stmt 1 view .LVU1420
 869:Core/Src/main.c ****   {
 5953              		.loc 1 869 22 is_stmt 0 view .LVU1421
 5954 000c 9C4B     		ldr	r3, .L381+16
 5955 000e 1B68     		ldr	r3, [r3]
 869:Core/Src/main.c ****   {
 5956              		.loc 1 869 6 view .LVU1422
 5957 0010 1BB9     		cbnz	r3, .L363
 869:Core/Src/main.c ****   {
 5958              		.loc 1 869 44 discriminator 1 view .LVU1423
 5959 0012 9B4A     		ldr	r2, .L381+16
 5960 0014 5268     		ldr	r2, [r2, #4]
 869:Core/Src/main.c ****   {
 5961              		.loc 1 869 26 discriminator 1 view .LVU1424
 5962 0016 002A     		cmp	r2, #0
 5963 0018 49D0     		beq	.L380
 5964              	.L363:
 873:Core/Src/main.c ****   {
 5965              		.loc 1 873 8 is_stmt 1 view .LVU1425
 873:Core/Src/main.c ****   {
 5966              		.loc 1 873 11 is_stmt 0 view .LVU1426
 5967 001a 002B     		cmp	r3, #0
 5968 001c 00F08E80 		beq	.L365
 873:Core/Src/main.c ****   {
 5969              		.loc 1 873 47 discriminator 1 view .LVU1427
 5970 0020 974A     		ldr	r2, .L381+16
 5971 0022 5268     		ldr	r2, [r2, #4]
 873:Core/Src/main.c ****   {
 5972              		.loc 1 873 30 discriminator 1 view .LVU1428
 5973 0024 002A     		cmp	r2, #0
 5974 0026 00F08980 		beq	.L365
 5975              	.LBB47:
 875:Core/Src/main.c ****     float dist1 = sq(coord.x - packageX[1]) + sq(coord.y - packageY[1]);
 5976              		.loc 1 875 5 is_stmt 1 view .LVU1429
 875:Core/Src/main.c ****     float dist1 = sq(coord.x - packageX[1]) + sq(coord.y - packageY[1]);
 5977              		.loc 1 875 19 is_stmt 0 view .LVU1430
 5978 002a 059D     		ldr	r5, [sp, #20]	@ float
 5979 002c DFF854A2 		ldr	r10, .L381+20
 5980 0030 DAF80080 		ldr	r8, [r10]	@ float
 5981 0034 4146     		mov	r1, r8
 5982 0036 2846     		mov	r0, r5
 5983 0038 FFF7FEFF 		bl	__aeabi_fsub
 5984              	.LVL847:
 5985 003c 0146     		mov	r1, r0
 5986 003e FFF7FEFF 		bl	__aeabi_fmul
 5987              	.LVL848:
 5988 0042 0446     		mov	r4, r0
 875:Core/Src/main.c ****     float dist1 = sq(coord.x - packageX[1]) + sq(coord.y - packageY[1]);
 5989              		.loc 1 875 47 view .LVU1431
 5990 0044 069E     		ldr	r6, [sp, #24]	@ float
 5991 0046 904F     		ldr	r7, .L381+24
 5992 0048 D7F80090 		ldr	r9, [r7]	@ float
 5993 004c 4946     		mov	r1, r9
 5994 004e 3046     		mov	r0, r6
 5995 0050 FFF7FEFF 		bl	__aeabi_fsub
ARM GAS  C:\Users\86183\AppData\Local\Temp\ccaDF7Ye.s 			page 135


 5996              	.LVL849:
 5997 0054 0146     		mov	r1, r0
 5998 0056 FFF7FEFF 		bl	__aeabi_fmul
 5999              	.LVL850:
 6000 005a 0146     		mov	r1, r0
 875:Core/Src/main.c ****     float dist1 = sq(coord.x - packageX[1]) + sq(coord.y - packageY[1]);
 6001              		.loc 1 875 11 view .LVU1432
 6002 005c 2046     		mov	r0, r4
 6003 005e FFF7FEFF 		bl	__aeabi_fadd
 6004              	.LVL851:
 6005 0062 0446     		mov	r4, r0
 6006              	.LVL852:
 876:Core/Src/main.c ****     if (dist0 < dist1)
 6007              		.loc 1 876 5 is_stmt 1 view .LVU1433
 876:Core/Src/main.c ****     if (dist0 < dist1)
 6008              		.loc 1 876 19 is_stmt 0 view .LVU1434
 6009 0064 DAF804A0 		ldr	r10, [r10, #4]	@ float
 6010 0068 5146     		mov	r1, r10
 6011 006a 2846     		mov	r0, r5
 6012              	.LVL853:
 876:Core/Src/main.c ****     if (dist0 < dist1)
 6013              		.loc 1 876 19 view .LVU1435
 6014 006c FFF7FEFF 		bl	__aeabi_fsub
 6015              	.LVL854:
 6016 0070 0146     		mov	r1, r0
 6017 0072 FFF7FEFF 		bl	__aeabi_fmul
 6018              	.LVL855:
 6019 0076 0546     		mov	r5, r0
 876:Core/Src/main.c ****     if (dist0 < dist1)
 6020              		.loc 1 876 47 view .LVU1436
 6021 0078 7F68     		ldr	r7, [r7, #4]	@ float
 6022 007a 3946     		mov	r1, r7
 6023 007c 3046     		mov	r0, r6
 6024 007e FFF7FEFF 		bl	__aeabi_fsub
 6025              	.LVL856:
 6026 0082 0146     		mov	r1, r0
 6027 0084 FFF7FEFF 		bl	__aeabi_fmul
 6028              	.LVL857:
 6029 0088 0146     		mov	r1, r0
 876:Core/Src/main.c ****     if (dist0 < dist1)
 6030              		.loc 1 876 11 view .LVU1437
 6031 008a 2846     		mov	r0, r5
 6032 008c FFF7FEFF 		bl	__aeabi_fadd
 6033              	.LVL858:
 6034 0090 0146     		mov	r1, r0
 6035              	.LVL859:
 877:Core/Src/main.c ****     {
 6036              		.loc 1 877 5 is_stmt 1 view .LVU1438
 877:Core/Src/main.c ****     {
 6037              		.loc 1 877 8 is_stmt 0 view .LVU1439
 6038 0092 2046     		mov	r0, r4
 6039              	.LVL860:
 877:Core/Src/main.c ****     {
 6040              		.loc 1 877 8 view .LVU1440
 6041 0094 FFF7FEFF 		bl	__aeabi_fcmplt
 6042              	.LVL861:
 877:Core/Src/main.c ****     {
ARM GAS  C:\Users\86183\AppData\Local\Temp\ccaDF7Ye.s 			page 136


 6043              		.loc 1 877 8 view .LVU1441
 6044 0098 0028     		cmp	r0, #0
 6045 009a 46D0     		beq	.L376
 879:Core/Src/main.c ****       isPackageValid[0] = 0;
 6046              		.loc 1 879 7 is_stmt 1 view .LVU1442
 6047 009c 0022     		movs	r2, #0
 6048 009e 4946     		mov	r1, r9
 6049 00a0 4046     		mov	r0, r8
 6050 00a2 FFF7FEFF 		bl	MoveTo
 6051              	.LVL862:
 880:Core/Src/main.c ****     }
 6052              		.loc 1 880 7 view .LVU1443
 880:Core/Src/main.c ****     }
 6053              		.loc 1 880 25 is_stmt 0 view .LVU1444
 6054 00a6 764B     		ldr	r3, .L381+16
 6055 00a8 0022     		movs	r2, #0
 6056 00aa 1A60     		str	r2, [r3]
 6057 00ac 3AE0     		b	.L362
 6058              	.LVL863:
 6059              	.L380:
 880:Core/Src/main.c ****     }
 6060              		.loc 1 880 25 view .LVU1445
 6061              	.LBE47:
 871:Core/Src/main.c ****   }
 6062              		.loc 1 871 5 is_stmt 1 view .LVU1446
 871:Core/Src/main.c ****   }
 6063              		.loc 1 871 38 is_stmt 0 view .LVU1447
 6064 00ae 0598     		ldr	r0, [sp, #20]	@ float
 6065 00b0 FFF7FEFF 		bl	__aeabi_f2d
 6066              	.LVL864:
 6067 00b4 0646     		mov	r6, r0
 6068 00b6 0F46     		mov	r7, r1
 871:Core/Src/main.c ****   }
 6069              		.loc 1 871 55 view .LVU1448
 6070 00b8 0698     		ldr	r0, [sp, #24]	@ float
 6071 00ba FFF7FEFF 		bl	__aeabi_f2d
 6072              	.LVL865:
 6073 00be 0246     		mov	r2, r0
 6074 00c0 0B46     		mov	r3, r1
 871:Core/Src/main.c ****   }
 6075              		.loc 1 871 19 view .LVU1449
 6076 00c2 6BA1     		adr	r1, .L381
 6077 00c4 D1E90001 		ldrd	r0, [r1]
 6078 00c8 FFF7FEFF 		bl	__aeabi_dsub
 6079              	.LVL866:
 6080 00cc 0446     		mov	r4, r0
 6081 00ce 0D46     		mov	r5, r1
 6082 00d0 3246     		mov	r2, r6
 6083 00d2 3B46     		mov	r3, r7
 6084 00d4 66A1     		adr	r1, .L381
 6085 00d6 D1E90001 		ldrd	r0, [r1]
 6086 00da FFF7FEFF 		bl	__aeabi_dsub
 6087              	.LVL867:
 6088 00de 2246     		mov	r2, r4
 6089 00e0 2B46     		mov	r3, r5
 6090 00e2 FFF7FEFF 		bl	atan2
 6091              	.LVL868:
ARM GAS  C:\Users\86183\AppData\Local\Temp\ccaDF7Ye.s 			page 137


 871:Core/Src/main.c ****   }
 6092              		.loc 1 871 59 view .LVU1450
 6093 00e6 64A3     		adr	r3, .L381+8
 6094 00e8 D3E90023 		ldrd	r2, [r3]
 6095 00ec FFF7FEFF 		bl	__aeabi_dmul
 6096              	.LVL869:
 6097 00f0 0446     		mov	r4, r0
 6098 00f2 0D46     		mov	r5, r1
 871:Core/Src/main.c ****   }
 6099              		.loc 1 871 68 view .LVU1451
 6100 00f4 654B     		ldr	r3, .L381+28
 6101 00f6 1868     		ldr	r0, [r3]	@ float
 6102 00f8 FFF7FEFF 		bl	__aeabi_f2d
 6103              	.LVL870:
 6104 00fc 2246     		mov	r2, r4
 6105 00fe 2B46     		mov	r3, r5
 6106 0100 FFF7FEFF 		bl	__aeabi_dadd
 6107              	.LVL871:
 6108 0104 0446     		mov	r4, r0
 6109 0106 0D46     		mov	r5, r1
 871:Core/Src/main.c ****   }
 6110              		.loc 1 871 86 view .LVU1452
 6111 0108 FFF7FEFF 		bl	GetYaw
 6112              	.LVL872:
 6113 010c FFF7FEFF 		bl	__aeabi_f2d
 6114              	.LVL873:
 6115 0110 0246     		mov	r2, r0
 6116 0112 0B46     		mov	r3, r1
 871:Core/Src/main.c ****   }
 6117              		.loc 1 871 84 view .LVU1453
 6118 0114 2046     		mov	r0, r4
 6119 0116 2946     		mov	r1, r5
 6120 0118 FFF7FEFF 		bl	__aeabi_dsub
 6121              	.LVL874:
 871:Core/Src/main.c ****   }
 6122              		.loc 1 871 5 view .LVU1454
 6123 011c FFF7FEFF 		bl	__aeabi_d2f
 6124              	.LVL875:
 6125 0120 FFF7FEFF 		bl	SurveyTowards
 6126              	.LVL876:
 6127              	.L362:
 921:Core/Src/main.c **** 
 6128              		.loc 1 921 1 view .LVU1455
 6129 0124 08B0     		add	sp, sp, #32
 6130              	.LCFI41:
 6131              		.cfi_remember_state
 6132              		.cfi_def_cfa_offset 32
 6133              		@ sp needed
 6134 0126 BDE8F087 		pop	{r4, r5, r6, r7, r8, r9, r10, pc}
 6135              	.LVL877:
 6136              	.L376:
 6137              	.LCFI42:
 6138              		.cfi_restore_state
 6139              	.LBB48:
 884:Core/Src/main.c ****       isPackageValid[1] = 0;
 6140              		.loc 1 884 7 is_stmt 1 view .LVU1456
 6141 012a 0022     		movs	r2, #0
ARM GAS  C:\Users\86183\AppData\Local\Temp\ccaDF7Ye.s 			page 138


 6142 012c 3946     		mov	r1, r7
 6143 012e 5046     		mov	r0, r10
 6144 0130 FFF7FEFF 		bl	MoveTo
 6145              	.LVL878:
 885:Core/Src/main.c ****     }
 6146              		.loc 1 885 7 view .LVU1457
 885:Core/Src/main.c ****     }
 6147              		.loc 1 885 25 is_stmt 0 view .LVU1458
 6148 0134 524B     		ldr	r3, .L381+16
 6149 0136 0022     		movs	r2, #0
 6150 0138 5A60     		str	r2, [r3, #4]
 6151 013a F3E7     		b	.L362
 6152              	.LVL879:
 6153              	.L365:
 885:Core/Src/main.c ****     }
 6154              		.loc 1 885 25 view .LVU1459
 6155              	.LBE48:
 890:Core/Src/main.c ****     {
 6156              		.loc 1 890 5 is_stmt 1 view .LVU1460
 890:Core/Src/main.c ****     {
 6157              		.loc 1 890 8 is_stmt 0 view .LVU1461
 6158 013c 002B     		cmp	r3, #0
 6159 013e 00F0A980 		beq	.L368
 892:Core/Src/main.c ****       SurveyTowards(atan2(packageX[0] - coord.x, packageY[0] - coord.y) * 57.296 + absoluteAngle - 
 6160              		.loc 1 892 7 is_stmt 1 view .LVU1462
 892:Core/Src/main.c ****       SurveyTowards(atan2(packageX[0] - coord.x, packageY[0] - coord.y) * 57.296 + absoluteAngle - 
 6161              		.loc 1 892 15 is_stmt 0 view .LVU1463
 6162 0142 6C46     		mov	r4, sp
 6163 0144 2046     		mov	r0, r4
 6164 0146 FFF7FEFF 		bl	userGetCarPos
 6165              	.LVL880:
 6166 014a 94E80700 		ldm	r4, {r0, r1, r2}
 6167 014e 08AB     		add	r3, sp, #32
 6168 0150 03E90700 		stmdb	r3, {r0, r1, r2}
 893:Core/Src/main.c ****       if (sqrt(sq(packageX[1] - coord.x) + sq(packageY[1] - coord.y)) < sqrt(sq(packageX[0] - coord
 6169              		.loc 1 893 7 is_stmt 1 view .LVU1464
 893:Core/Src/main.c ****       if (sqrt(sq(packageX[1] - coord.x) + sq(packageY[1] - coord.y)) < sqrt(sq(packageX[0] - coord
 6170              		.loc 1 893 35 is_stmt 0 view .LVU1465
 6171 0154 DFF82C81 		ldr	r8, .L381+20
 893:Core/Src/main.c ****       if (sqrt(sq(packageX[1] - coord.x) + sq(packageY[1] - coord.y)) < sqrt(sq(packageX[0] - coord
 6172              		.loc 1 893 46 view .LVU1466
 6173 0158 DDF81490 		ldr	r9, [sp, #20]	@ float
 893:Core/Src/main.c ****       if (sqrt(sq(packageX[1] - coord.x) + sq(packageY[1] - coord.y)) < sqrt(sq(packageX[0] - coord
 6174              		.loc 1 893 39 view .LVU1467
 6175 015c 4946     		mov	r1, r9
 6176 015e D8F80000 		ldr	r0, [r8]	@ float
 6177 0162 FFF7FEFF 		bl	__aeabi_fsub
 6178              	.LVL881:
 6179 0166 8246     		mov	r10, r0
 893:Core/Src/main.c ****       if (sqrt(sq(packageX[1] - coord.x) + sq(packageY[1] - coord.y)) < sqrt(sq(packageX[0] - coord
 6180              		.loc 1 893 58 view .LVU1468
 6181 0168 474E     		ldr	r6, .L381+24
 893:Core/Src/main.c ****       if (sqrt(sq(packageX[1] - coord.x) + sq(packageY[1] - coord.y)) < sqrt(sq(packageX[0] - coord
 6182              		.loc 1 893 69 view .LVU1469
 6183 016a 069F     		ldr	r7, [sp, #24]	@ float
 893:Core/Src/main.c ****       if (sqrt(sq(packageX[1] - coord.x) + sq(packageY[1] - coord.y)) < sqrt(sq(packageX[0] - coord
 6184              		.loc 1 893 62 view .LVU1470
ARM GAS  C:\Users\86183\AppData\Local\Temp\ccaDF7Ye.s 			page 139


 6185 016c 3946     		mov	r1, r7
 6186 016e 3068     		ldr	r0, [r6]	@ float
 6187 0170 FFF7FEFF 		bl	__aeabi_fsub
 6188              	.LVL882:
 893:Core/Src/main.c ****       if (sqrt(sq(packageX[1] - coord.x) + sq(packageY[1] - coord.y)) < sqrt(sq(packageX[0] - coord
 6189              		.loc 1 893 21 view .LVU1471
 6190 0174 FFF7FEFF 		bl	__aeabi_f2d
 6191              	.LVL883:
 6192 0178 0446     		mov	r4, r0
 6193 017a 0D46     		mov	r5, r1
 6194 017c 5046     		mov	r0, r10
 6195 017e FFF7FEFF 		bl	__aeabi_f2d
 6196              	.LVL884:
 6197 0182 2246     		mov	r2, r4
 6198 0184 2B46     		mov	r3, r5
 6199 0186 FFF7FEFF 		bl	atan2
 6200              	.LVL885:
 893:Core/Src/main.c ****       if (sqrt(sq(packageX[1] - coord.x) + sq(packageY[1] - coord.y)) < sqrt(sq(packageX[0] - coord
 6201              		.loc 1 893 73 view .LVU1472
 6202 018a 3BA3     		adr	r3, .L381+8
 6203 018c D3E90023 		ldrd	r2, [r3]
 6204 0190 FFF7FEFF 		bl	__aeabi_dmul
 6205              	.LVL886:
 6206 0194 0446     		mov	r4, r0
 6207 0196 0D46     		mov	r5, r1
 893:Core/Src/main.c ****       if (sqrt(sq(packageX[1] - coord.x) + sq(packageY[1] - coord.y)) < sqrt(sq(packageX[0] - coord
 6208              		.loc 1 893 82 view .LVU1473
 6209 0198 3C4B     		ldr	r3, .L381+28
 6210 019a 1868     		ldr	r0, [r3]	@ float
 6211 019c FFF7FEFF 		bl	__aeabi_f2d
 6212              	.LVL887:
 6213 01a0 2246     		mov	r2, r4
 6214 01a2 2B46     		mov	r3, r5
 6215 01a4 FFF7FEFF 		bl	__aeabi_dadd
 6216              	.LVL888:
 6217 01a8 0446     		mov	r4, r0
 6218 01aa 0D46     		mov	r5, r1
 893:Core/Src/main.c ****       if (sqrt(sq(packageX[1] - coord.x) + sq(packageY[1] - coord.y)) < sqrt(sq(packageX[0] - coord
 6219              		.loc 1 893 100 view .LVU1474
 6220 01ac FFF7FEFF 		bl	GetYaw
 6221              	.LVL889:
 6222 01b0 FFF7FEFF 		bl	__aeabi_f2d
 6223              	.LVL890:
 6224 01b4 0246     		mov	r2, r0
 6225 01b6 0B46     		mov	r3, r1
 893:Core/Src/main.c ****       if (sqrt(sq(packageX[1] - coord.x) + sq(packageY[1] - coord.y)) < sqrt(sq(packageX[0] - coord
 6226              		.loc 1 893 98 view .LVU1475
 6227 01b8 2046     		mov	r0, r4
 6228 01ba 2946     		mov	r1, r5
 6229 01bc FFF7FEFF 		bl	__aeabi_dsub
 6230              	.LVL891:
 893:Core/Src/main.c ****       if (sqrt(sq(packageX[1] - coord.x) + sq(packageY[1] - coord.y)) < sqrt(sq(packageX[0] - coord
 6231              		.loc 1 893 7 view .LVU1476
 6232 01c0 FFF7FEFF 		bl	__aeabi_d2f
 6233              	.LVL892:
 6234 01c4 FFF7FEFF 		bl	SurveyTowards
 6235              	.LVL893:
ARM GAS  C:\Users\86183\AppData\Local\Temp\ccaDF7Ye.s 			page 140


 894:Core/Src/main.c ****       {
 6236              		.loc 1 894 7 is_stmt 1 view .LVU1477
 894:Core/Src/main.c ****       {
 6237              		.loc 1 894 16 is_stmt 0 view .LVU1478
 6238 01c8 4946     		mov	r1, r9
 6239 01ca D8F80400 		ldr	r0, [r8, #4]	@ float
 6240 01ce FFF7FEFF 		bl	__aeabi_fsub
 6241              	.LVL894:
 6242 01d2 0146     		mov	r1, r0
 6243 01d4 FFF7FEFF 		bl	__aeabi_fmul
 6244              	.LVL895:
 6245 01d8 0446     		mov	r4, r0
 894:Core/Src/main.c ****       {
 6246              		.loc 1 894 44 view .LVU1479
 6247 01da 3946     		mov	r1, r7
 6248 01dc 7068     		ldr	r0, [r6, #4]	@ float
 6249 01de FFF7FEFF 		bl	__aeabi_fsub
 6250              	.LVL896:
 6251 01e2 0146     		mov	r1, r0
 6252 01e4 FFF7FEFF 		bl	__aeabi_fmul
 6253              	.LVL897:
 6254 01e8 0146     		mov	r1, r0
 894:Core/Src/main.c ****       {
 6255              		.loc 1 894 42 view .LVU1480
 6256 01ea 2046     		mov	r0, r4
 6257 01ec FFF7FEFF 		bl	__aeabi_fadd
 6258              	.LVL898:
 894:Core/Src/main.c ****       {
 6259              		.loc 1 894 11 view .LVU1481
 6260 01f0 FFF7FEFF 		bl	__aeabi_f2d
 6261              	.LVL899:
 6262 01f4 FFF7FEFF 		bl	sqrt
 6263              	.LVL900:
 6264 01f8 0446     		mov	r4, r0
 6265 01fa 0D46     		mov	r5, r1
 894:Core/Src/main.c ****       {
 6266              		.loc 1 894 78 view .LVU1482
 6267 01fc 4946     		mov	r1, r9
 6268 01fe D8F80000 		ldr	r0, [r8]	@ float
 6269 0202 FFF7FEFF 		bl	__aeabi_fsub
 6270              	.LVL901:
 6271 0206 0146     		mov	r1, r0
 6272 0208 FFF7FEFF 		bl	__aeabi_fmul
 6273              	.LVL902:
 6274 020c 8046     		mov	r8, r0
 894:Core/Src/main.c ****       {
 6275              		.loc 1 894 106 view .LVU1483
 6276 020e 3946     		mov	r1, r7
 6277 0210 3068     		ldr	r0, [r6]	@ float
 6278 0212 FFF7FEFF 		bl	__aeabi_fsub
 6279              	.LVL903:
 6280 0216 0146     		mov	r1, r0
 6281 0218 FFF7FEFF 		bl	__aeabi_fmul
 6282              	.LVL904:
 6283 021c 0146     		mov	r1, r0
 894:Core/Src/main.c ****       {
 6284              		.loc 1 894 104 view .LVU1484
ARM GAS  C:\Users\86183\AppData\Local\Temp\ccaDF7Ye.s 			page 141


 6285 021e 4046     		mov	r0, r8
 6286 0220 FFF7FEFF 		bl	__aeabi_fadd
 6287              	.LVL905:
 894:Core/Src/main.c ****       {
 6288              		.loc 1 894 73 view .LVU1485
 6289 0224 FFF7FEFF 		bl	__aeabi_f2d
 6290              	.LVL906:
 6291 0228 FFF7FEFF 		bl	sqrt
 6292              	.LVL907:
 894:Core/Src/main.c ****       {
 6293              		.loc 1 894 133 view .LVU1486
 6294 022c 0022     		movs	r2, #0
 6295 022e 184B     		ldr	r3, .L381+32
 6296 0230 FFF7FEFF 		bl	__aeabi_dsub
 6297              	.LVL908:
 6298 0234 0246     		mov	r2, r0
 6299 0236 0B46     		mov	r3, r1
 894:Core/Src/main.c ****       {
 6300              		.loc 1 894 10 view .LVU1487
 6301 0238 2046     		mov	r0, r4
 6302 023a 2946     		mov	r1, r5
 6303 023c FFF7FEFF 		bl	__aeabi_dcmplt
 6304              	.LVL909:
 6305 0240 48B1     		cbz	r0, .L377
 896:Core/Src/main.c ****         isPackageValid[1] = 0;
 6306              		.loc 1 896 9 is_stmt 1 view .LVU1488
 6307 0242 0022     		movs	r2, #0
 6308 0244 7168     		ldr	r1, [r6, #4]	@ float
 6309 0246 0F4B     		ldr	r3, .L381+20
 6310 0248 5868     		ldr	r0, [r3, #4]	@ float
 6311 024a FFF7FEFF 		bl	MoveTo
 6312              	.LVL910:
 897:Core/Src/main.c ****       }
 6313              		.loc 1 897 9 view .LVU1489
 897:Core/Src/main.c ****       }
 6314              		.loc 1 897 27 is_stmt 0 view .LVU1490
 6315 024e 0C4B     		ldr	r3, .L381+16
 6316 0250 0022     		movs	r2, #0
 6317 0252 5A60     		str	r2, [r3, #4]
 6318 0254 66E7     		b	.L362
 6319              	.L377:
 901:Core/Src/main.c ****         isPackageValid[0] = 0;
 6320              		.loc 1 901 9 is_stmt 1 view .LVU1491
 6321 0256 0022     		movs	r2, #0
 6322 0258 0B4B     		ldr	r3, .L381+24
 6323 025a 1968     		ldr	r1, [r3]	@ float
 6324 025c 094B     		ldr	r3, .L381+20
 6325 025e 1868     		ldr	r0, [r3]	@ float
 6326 0260 FFF7FEFF 		bl	MoveTo
 6327              	.LVL911:
 902:Core/Src/main.c ****       }
 6328              		.loc 1 902 9 view .LVU1492
 902:Core/Src/main.c ****       }
 6329              		.loc 1 902 27 is_stmt 0 view .LVU1493
 6330 0264 064B     		ldr	r3, .L381+16
 6331 0266 0022     		movs	r2, #0
 6332 0268 1A60     		str	r2, [r3]
ARM GAS  C:\Users\86183\AppData\Local\Temp\ccaDF7Ye.s 			page 142


 6333 026a 5BE7     		b	.L362
 6334              	.L382:
 6335 026c AFF30080 		.align	3
 6336              	.L381:
 6337 0270 00000000 		.word	0
 6338 0274 00E05F40 		.word	1080025088
 6339 0278 D9CEF753 		.word	1408749273
 6340 027c E3A54C40 		.word	1078765027
 6341 0280 00000000 		.word	.LANCHOR15
 6342 0284 00000000 		.word	.LANCHOR13
 6343 0288 00000000 		.word	.LANCHOR14
 6344 028c 00000000 		.word	.LANCHOR8
 6345 0290 00002440 		.word	1076101120
 6346              	.L368:
 907:Core/Src/main.c ****       SurveyTowards(atan2(packageX[1] - coord.x, packageY[1] - coord.y) * 57.296 + absoluteAngle - 
 6347              		.loc 1 907 7 is_stmt 1 view .LVU1494
 907:Core/Src/main.c ****       SurveyTowards(atan2(packageX[1] - coord.x, packageY[1] - coord.y) * 57.296 + absoluteAngle - 
 6348              		.loc 1 907 15 is_stmt 0 view .LVU1495
 6349 0294 6C46     		mov	r4, sp
 6350 0296 2046     		mov	r0, r4
 6351 0298 FFF7FEFF 		bl	userGetCarPos
 6352              	.LVL912:
 6353 029c 94E80700 		ldm	r4, {r0, r1, r2}
 6354 02a0 08AB     		add	r3, sp, #32
 6355 02a2 03E90700 		stmdb	r3, {r0, r1, r2}
 908:Core/Src/main.c ****       if (sqrt(sq(packageX[0] - coord.x) + sq(packageY[0] - coord.y)) < sqrt(sq(packageX[1] - coord
 6356              		.loc 1 908 7 is_stmt 1 view .LVU1496
 908:Core/Src/main.c ****       if (sqrt(sq(packageX[0] - coord.x) + sq(packageY[0] - coord.y)) < sqrt(sq(packageX[1] - coord
 6357              		.loc 1 908 35 is_stmt 0 view .LVU1497
 6358 02a6 DFF82081 		ldr	r8, .L383+8
 908:Core/Src/main.c ****       if (sqrt(sq(packageX[0] - coord.x) + sq(packageY[0] - coord.y)) < sqrt(sq(packageX[1] - coord
 6359              		.loc 1 908 46 view .LVU1498
 6360 02aa DDF81490 		ldr	r9, [sp, #20]	@ float
 908:Core/Src/main.c ****       if (sqrt(sq(packageX[0] - coord.x) + sq(packageY[0] - coord.y)) < sqrt(sq(packageX[1] - coord
 6361              		.loc 1 908 39 view .LVU1499
 6362 02ae 4946     		mov	r1, r9
 6363 02b0 D8F80400 		ldr	r0, [r8, #4]	@ float
 6364 02b4 FFF7FEFF 		bl	__aeabi_fsub
 6365              	.LVL913:
 6366 02b8 8246     		mov	r10, r0
 908:Core/Src/main.c ****       if (sqrt(sq(packageX[0] - coord.x) + sq(packageY[0] - coord.y)) < sqrt(sq(packageX[1] - coord
 6367              		.loc 1 908 58 view .LVU1500
 6368 02ba 444E     		ldr	r6, .L383+12
 908:Core/Src/main.c ****       if (sqrt(sq(packageX[0] - coord.x) + sq(packageY[0] - coord.y)) < sqrt(sq(packageX[1] - coord
 6369              		.loc 1 908 69 view .LVU1501
 6370 02bc 069F     		ldr	r7, [sp, #24]	@ float
 908:Core/Src/main.c ****       if (sqrt(sq(packageX[0] - coord.x) + sq(packageY[0] - coord.y)) < sqrt(sq(packageX[1] - coord
 6371              		.loc 1 908 62 view .LVU1502
 6372 02be 3946     		mov	r1, r7
 6373 02c0 7068     		ldr	r0, [r6, #4]	@ float
 6374 02c2 FFF7FEFF 		bl	__aeabi_fsub
 6375              	.LVL914:
 908:Core/Src/main.c ****       if (sqrt(sq(packageX[0] - coord.x) + sq(packageY[0] - coord.y)) < sqrt(sq(packageX[1] - coord
 6376              		.loc 1 908 21 view .LVU1503
 6377 02c6 FFF7FEFF 		bl	__aeabi_f2d
 6378              	.LVL915:
 6379 02ca 0446     		mov	r4, r0
ARM GAS  C:\Users\86183\AppData\Local\Temp\ccaDF7Ye.s 			page 143


 6380 02cc 0D46     		mov	r5, r1
 6381 02ce 5046     		mov	r0, r10
 6382 02d0 FFF7FEFF 		bl	__aeabi_f2d
 6383              	.LVL916:
 6384 02d4 2246     		mov	r2, r4
 6385 02d6 2B46     		mov	r3, r5
 6386 02d8 FFF7FEFF 		bl	atan2
 6387              	.LVL917:
 908:Core/Src/main.c ****       if (sqrt(sq(packageX[0] - coord.x) + sq(packageY[0] - coord.y)) < sqrt(sq(packageX[1] - coord
 6388              		.loc 1 908 73 view .LVU1504
 6389 02dc 38A3     		adr	r3, .L383
 6390 02de D3E90023 		ldrd	r2, [r3]
 6391 02e2 FFF7FEFF 		bl	__aeabi_dmul
 6392              	.LVL918:
 6393 02e6 0446     		mov	r4, r0
 6394 02e8 0D46     		mov	r5, r1
 908:Core/Src/main.c ****       if (sqrt(sq(packageX[0] - coord.x) + sq(packageY[0] - coord.y)) < sqrt(sq(packageX[1] - coord
 6395              		.loc 1 908 82 view .LVU1505
 6396 02ea 394B     		ldr	r3, .L383+16
 6397 02ec 1868     		ldr	r0, [r3]	@ float
 6398 02ee FFF7FEFF 		bl	__aeabi_f2d
 6399              	.LVL919:
 6400 02f2 2246     		mov	r2, r4
 6401 02f4 2B46     		mov	r3, r5
 6402 02f6 FFF7FEFF 		bl	__aeabi_dadd
 6403              	.LVL920:
 6404 02fa 0446     		mov	r4, r0
 6405 02fc 0D46     		mov	r5, r1
 908:Core/Src/main.c ****       if (sqrt(sq(packageX[0] - coord.x) + sq(packageY[0] - coord.y)) < sqrt(sq(packageX[1] - coord
 6406              		.loc 1 908 100 view .LVU1506
 6407 02fe FFF7FEFF 		bl	GetYaw
 6408              	.LVL921:
 6409 0302 FFF7FEFF 		bl	__aeabi_f2d
 6410              	.LVL922:
 6411 0306 0246     		mov	r2, r0
 6412 0308 0B46     		mov	r3, r1
 908:Core/Src/main.c ****       if (sqrt(sq(packageX[0] - coord.x) + sq(packageY[0] - coord.y)) < sqrt(sq(packageX[1] - coord
 6413              		.loc 1 908 98 view .LVU1507
 6414 030a 2046     		mov	r0, r4
 6415 030c 2946     		mov	r1, r5
 6416 030e FFF7FEFF 		bl	__aeabi_dsub
 6417              	.LVL923:
 908:Core/Src/main.c ****       if (sqrt(sq(packageX[0] - coord.x) + sq(packageY[0] - coord.y)) < sqrt(sq(packageX[1] - coord
 6418              		.loc 1 908 7 view .LVU1508
 6419 0312 FFF7FEFF 		bl	__aeabi_d2f
 6420              	.LVL924:
 6421 0316 FFF7FEFF 		bl	SurveyTowards
 6422              	.LVL925:
 909:Core/Src/main.c ****       {
 6423              		.loc 1 909 7 is_stmt 1 view .LVU1509
 909:Core/Src/main.c ****       {
 6424              		.loc 1 909 16 is_stmt 0 view .LVU1510
 6425 031a 4946     		mov	r1, r9
 6426 031c D8F80000 		ldr	r0, [r8]	@ float
 6427 0320 FFF7FEFF 		bl	__aeabi_fsub
 6428              	.LVL926:
 6429 0324 0146     		mov	r1, r0
ARM GAS  C:\Users\86183\AppData\Local\Temp\ccaDF7Ye.s 			page 144


 6430 0326 FFF7FEFF 		bl	__aeabi_fmul
 6431              	.LVL927:
 6432 032a 0446     		mov	r4, r0
 909:Core/Src/main.c ****       {
 6433              		.loc 1 909 44 view .LVU1511
 6434 032c 3946     		mov	r1, r7
 6435 032e 3068     		ldr	r0, [r6]	@ float
 6436 0330 FFF7FEFF 		bl	__aeabi_fsub
 6437              	.LVL928:
 6438 0334 0146     		mov	r1, r0
 6439 0336 FFF7FEFF 		bl	__aeabi_fmul
 6440              	.LVL929:
 6441 033a 0146     		mov	r1, r0
 909:Core/Src/main.c ****       {
 6442              		.loc 1 909 42 view .LVU1512
 6443 033c 2046     		mov	r0, r4
 6444 033e FFF7FEFF 		bl	__aeabi_fadd
 6445              	.LVL930:
 909:Core/Src/main.c ****       {
 6446              		.loc 1 909 11 view .LVU1513
 6447 0342 FFF7FEFF 		bl	__aeabi_f2d
 6448              	.LVL931:
 6449 0346 FFF7FEFF 		bl	sqrt
 6450              	.LVL932:
 6451 034a 0446     		mov	r4, r0
 6452 034c 0D46     		mov	r5, r1
 909:Core/Src/main.c ****       {
 6453              		.loc 1 909 78 view .LVU1514
 6454 034e 4946     		mov	r1, r9
 6455 0350 D8F80400 		ldr	r0, [r8, #4]	@ float
 6456 0354 FFF7FEFF 		bl	__aeabi_fsub
 6457              	.LVL933:
 6458 0358 0146     		mov	r1, r0
 6459 035a FFF7FEFF 		bl	__aeabi_fmul
 6460              	.LVL934:
 6461 035e 8046     		mov	r8, r0
 909:Core/Src/main.c ****       {
 6462              		.loc 1 909 106 view .LVU1515
 6463 0360 3946     		mov	r1, r7
 6464 0362 7068     		ldr	r0, [r6, #4]	@ float
 6465 0364 FFF7FEFF 		bl	__aeabi_fsub
 6466              	.LVL935:
 6467 0368 0146     		mov	r1, r0
 6468 036a FFF7FEFF 		bl	__aeabi_fmul
 6469              	.LVL936:
 6470 036e 0146     		mov	r1, r0
 909:Core/Src/main.c ****       {
 6471              		.loc 1 909 104 view .LVU1516
 6472 0370 4046     		mov	r0, r8
 6473 0372 FFF7FEFF 		bl	__aeabi_fadd
 6474              	.LVL937:
 909:Core/Src/main.c ****       {
 6475              		.loc 1 909 73 view .LVU1517
 6476 0376 FFF7FEFF 		bl	__aeabi_f2d
 6477              	.LVL938:
 6478 037a FFF7FEFF 		bl	sqrt
 6479              	.LVL939:
ARM GAS  C:\Users\86183\AppData\Local\Temp\ccaDF7Ye.s 			page 145


 909:Core/Src/main.c ****       {
 6480              		.loc 1 909 133 view .LVU1518
 6481 037e 0022     		movs	r2, #0
 6482 0380 144B     		ldr	r3, .L383+20
 6483 0382 FFF7FEFF 		bl	__aeabi_dsub
 6484              	.LVL940:
 6485 0386 0246     		mov	r2, r0
 6486 0388 0B46     		mov	r3, r1
 909:Core/Src/main.c ****       {
 6487              		.loc 1 909 10 view .LVU1519
 6488 038a 2046     		mov	r0, r4
 6489 038c 2946     		mov	r1, r5
 6490 038e FFF7FEFF 		bl	__aeabi_dcmplt
 6491              	.LVL941:
 6492 0392 48B1     		cbz	r0, .L378
 911:Core/Src/main.c ****         isPackageValid[0] = 0;
 6493              		.loc 1 911 9 is_stmt 1 view .LVU1520
 6494 0394 0022     		movs	r2, #0
 6495 0396 3168     		ldr	r1, [r6]	@ float
 6496 0398 0B4B     		ldr	r3, .L383+8
 6497 039a 1868     		ldr	r0, [r3]	@ float
 6498 039c FFF7FEFF 		bl	MoveTo
 6499              	.LVL942:
 912:Core/Src/main.c ****       }
 6500              		.loc 1 912 9 view .LVU1521
 912:Core/Src/main.c ****       }
 6501              		.loc 1 912 27 is_stmt 0 view .LVU1522
 6502 03a0 0D4B     		ldr	r3, .L383+24
 6503 03a2 0022     		movs	r2, #0
 6504 03a4 1A60     		str	r2, [r3]
 6505 03a6 BDE6     		b	.L362
 6506              	.L378:
 916:Core/Src/main.c ****         isPackageValid[1] = 0;
 6507              		.loc 1 916 9 is_stmt 1 view .LVU1523
 6508 03a8 0022     		movs	r2, #0
 6509 03aa 084B     		ldr	r3, .L383+12
 6510 03ac 5968     		ldr	r1, [r3, #4]	@ float
 6511 03ae 064B     		ldr	r3, .L383+8
 6512 03b0 5868     		ldr	r0, [r3, #4]	@ float
 6513 03b2 FFF7FEFF 		bl	MoveTo
 6514              	.LVL943:
 917:Core/Src/main.c ****       }
 6515              		.loc 1 917 9 view .LVU1524
 917:Core/Src/main.c ****       }
 6516              		.loc 1 917 27 is_stmt 0 view .LVU1525
 6517 03b6 084B     		ldr	r3, .L383+24
 6518 03b8 0022     		movs	r2, #0
 6519 03ba 5A60     		str	r2, [r3, #4]
 921:Core/Src/main.c **** 
 6520              		.loc 1 921 1 view .LVU1526
 6521 03bc B2E6     		b	.L362
 6522              	.L384:
 6523 03be 00BF     		.align	3
 6524              	.L383:
 6525 03c0 D9CEF753 		.word	1408749273
 6526 03c4 E3A54C40 		.word	1078765027
 6527 03c8 00000000 		.word	.LANCHOR13
ARM GAS  C:\Users\86183\AppData\Local\Temp\ccaDF7Ye.s 			page 146


 6528 03cc 00000000 		.word	.LANCHOR14
 6529 03d0 00000000 		.word	.LANCHOR8
 6530 03d4 00002440 		.word	1076101120
 6531 03d8 00000000 		.word	.LANCHOR15
 6532              		.cfi_endproc
 6533              	.LFE86:
 6535              		.section	.text.Set_Beacon,"ax",%progbits
 6536              		.align	1
 6537              		.global	Set_Beacon
 6538              		.syntax unified
 6539              		.thumb
 6540              		.thumb_func
 6541              		.fpu softvfp
 6543              	Set_Beacon:
 6544              	.LFB84:
 821:Core/Src/main.c ****   Set_LF_Direction(0);
 6545              		.loc 1 821 1 is_stmt 1 view -0
 6546              		.cfi_startproc
 6547              		@ args = 0, pretend = 0, frame = 0
 6548              		@ frame_needed = 0, uses_anonymous_args = 0
 6549 0000 10B5     		push	{r4, lr}
 6550              	.LCFI43:
 6551              		.cfi_def_cfa_offset 8
 6552              		.cfi_offset 4, -8
 6553              		.cfi_offset 14, -4
 822:Core/Src/main.c ****   Set_RF_Direction(0);
 6554              		.loc 1 822 3 view .LVU1528
 6555 0002 0020     		movs	r0, #0
 6556 0004 FFF7FEFF 		bl	Set_LF_Direction
 6557              	.LVL944:
 823:Core/Src/main.c ****   HAL_Delay(500);
 6558              		.loc 1 823 3 view .LVU1529
 6559 0008 0020     		movs	r0, #0
 6560 000a FFF7FEFF 		bl	Set_RF_Direction
 6561              	.LVL945:
 824:Core/Src/main.c ****   HAL_GPIO_WritePin(LED_GPIO_Port, LED_Pin, SET);
 6562              		.loc 1 824 3 view .LVU1530
 6563 000e 4FF4FA70 		mov	r0, #500
 6564 0012 FFF7FEFF 		bl	HAL_Delay
 6565              	.LVL946:
 825:Core/Src/main.c ****   HAL_Delay(1000);
 6566              		.loc 1 825 3 view .LVU1531
 6567 0016 084C     		ldr	r4, .L387
 6568 0018 0122     		movs	r2, #1
 6569 001a 0421     		movs	r1, #4
 6570 001c 2046     		mov	r0, r4
 6571 001e FFF7FEFF 		bl	HAL_GPIO_WritePin
 6572              	.LVL947:
 826:Core/Src/main.c ****   HAL_GPIO_WritePin(LED_GPIO_Port, LED_Pin, RESET);
 6573              		.loc 1 826 3 view .LVU1532
 6574 0022 4FF47A70 		mov	r0, #1000
 6575 0026 FFF7FEFF 		bl	HAL_Delay
 6576              	.LVL948:
 827:Core/Src/main.c **** }
 6577              		.loc 1 827 3 view .LVU1533
 6578 002a 0022     		movs	r2, #0
 6579 002c 0421     		movs	r1, #4
ARM GAS  C:\Users\86183\AppData\Local\Temp\ccaDF7Ye.s 			page 147


 6580 002e 2046     		mov	r0, r4
 6581 0030 FFF7FEFF 		bl	HAL_GPIO_WritePin
 6582              	.LVL949:
 828:Core/Src/main.c **** 
 6583              		.loc 1 828 1 is_stmt 0 view .LVU1534
 6584 0034 10BD     		pop	{r4, pc}
 6585              	.L388:
 6586 0036 00BF     		.align	2
 6587              	.L387:
 6588 0038 00140140 		.word	1073812480
 6589              		.cfi_endproc
 6590              	.LFE84:
 6592              		.section	.text.Round0,"ax",%progbits
 6593              		.align	1
 6594              		.global	Round0
 6595              		.syntax unified
 6596              		.thumb
 6597              		.thumb_func
 6598              		.fpu softvfp
 6600              	Round0:
 6601              	.LFB91:
1011:Core/Src/main.c **** 
1012:Core/Src/main.c **** void Round0()
1013:Core/Src/main.c **** {
 6602              		.loc 1 1013 1 is_stmt 1 view -0
 6603              		.cfi_startproc
 6604              		@ args = 0, pretend = 0, frame = 80
 6605              		@ frame_needed = 0, uses_anonymous_args = 0
 6606 0000 2DE9F041 		push	{r4, r5, r6, r7, r8, lr}
 6607              	.LCFI44:
 6608              		.cfi_def_cfa_offset 24
 6609              		.cfi_offset 4, -24
 6610              		.cfi_offset 5, -20
 6611              		.cfi_offset 6, -16
 6612              		.cfi_offset 7, -12
 6613              		.cfi_offset 8, -8
 6614              		.cfi_offset 14, -4
 6615 0004 94B0     		sub	sp, sp, #80
 6616              	.LCFI45:
 6617              		.cfi_def_cfa_offset 104
1014:Core/Src/main.c ****   int isComplete[4] = {0, 0, 0, 0};
 6618              		.loc 1 1014 3 view .LVU1536
 6619              		.loc 1 1014 7 is_stmt 0 view .LVU1537
 6620 0006 0027     		movs	r7, #0
 6621 0008 1097     		str	r7, [sp, #64]
 6622 000a 1197     		str	r7, [sp, #68]
 6623 000c 1297     		str	r7, [sp, #72]
 6624 000e 1397     		str	r7, [sp, #76]
1015:Core/Src/main.c ****   float destination[4][2] = {{205, 50}, {128, 205}, {0, 0}, {0, 0}};
 6625              		.loc 1 1015 3 is_stmt 1 view .LVU1538
 6626              		.loc 1 1015 9 is_stmt 0 view .LVU1539
 6627 0010 08AC     		add	r4, sp, #32
 6628 0012 364D     		ldr	r5, .L404
 6629 0014 0FCD     		ldmia	r5!, {r0, r1, r2, r3}
 6630 0016 0FC4     		stmia	r4!, {r0, r1, r2, r3}
 6631 0018 95E80F00 		ldm	r5, {r0, r1, r2, r3}
 6632 001c 84E80F00 		stm	r4, {r0, r1, r2, r3}
ARM GAS  C:\Users\86183\AppData\Local\Temp\ccaDF7Ye.s 			page 148


1016:Core/Src/main.c ****   float dist[4] = {0, 0, 0, 0};
 6633              		.loc 1 1016 3 is_stmt 1 view .LVU1540
 6634              		.loc 1 1016 9 is_stmt 0 view .LVU1541
 6635 0020 0497     		str	r7, [sp, #16]
 6636 0022 0597     		str	r7, [sp, #20]
 6637 0024 0697     		str	r7, [sp, #24]
 6638 0026 0797     		str	r7, [sp, #28]
1017:Core/Src/main.c ****   SurveyTowards(45);
 6639              		.loc 1 1017 3 is_stmt 1 view .LVU1542
 6640 0028 3148     		ldr	r0, .L404+4
 6641 002a FFF7FEFF 		bl	SurveyTowards
 6642              	.LVL950:
1018:Core/Src/main.c ****   destination[2][0] = packageX[0], destination[2][1] = packageY[0];
 6643              		.loc 1 1018 3 view .LVU1543
 6644              		.loc 1 1018 31 is_stmt 0 view .LVU1544
 6645 002e 314A     		ldr	r2, .L404+8
 6646 0030 1368     		ldr	r3, [r2]	@ float
 6647              		.loc 1 1018 21 view .LVU1545
 6648 0032 0C93     		str	r3, [sp, #48]	@ float
 6649              		.loc 1 1018 64 view .LVU1546
 6650 0034 304B     		ldr	r3, .L404+12
 6651 0036 1968     		ldr	r1, [r3]	@ float
 6652              		.loc 1 1018 54 view .LVU1547
 6653 0038 0D91     		str	r1, [sp, #52]	@ float
1019:Core/Src/main.c ****   destination[3][0] = packageX[1], destination[3][1] = packageY[1];
 6654              		.loc 1 1019 3 is_stmt 1 view .LVU1548
 6655              		.loc 1 1019 31 is_stmt 0 view .LVU1549
 6656 003a 5268     		ldr	r2, [r2, #4]	@ float
 6657              		.loc 1 1019 21 view .LVU1550
 6658 003c 0E92     		str	r2, [sp, #56]	@ float
 6659              		.loc 1 1019 64 view .LVU1551
 6660 003e 5B68     		ldr	r3, [r3, #4]	@ float
 6661              		.loc 1 1019 54 view .LVU1552
 6662 0040 0F93     		str	r3, [sp, #60]	@ float
1020:Core/Src/main.c ****   MoveTo(50, 50, 0);
 6663              		.loc 1 1020 3 is_stmt 1 view .LVU1553
 6664 0042 2E48     		ldr	r0, .L404+16
 6665 0044 3A46     		mov	r2, r7
 6666 0046 0146     		mov	r1, r0
 6667 0048 FFF7FEFF 		bl	MoveTo
 6668              	.LVL951:
1021:Core/Src/main.c ****   Set_Beacon();
 6669              		.loc 1 1021 3 view .LVU1554
 6670 004c FFF7FEFF 		bl	Set_Beacon
 6671              	.LVL952:
1022:Core/Src/main.c ****   struct MYCOORD coord = userGetCarPos();
 6672              		.loc 1 1022 3 view .LVU1555
 6673              		.loc 1 1022 26 is_stmt 0 view .LVU1556
 6674 0050 01A8     		add	r0, sp, #4
 6675 0052 FFF7FEFF 		bl	userGetCarPos
 6676              	.LVL953:
1023:Core/Src/main.c ****   int minD;
 6677              		.loc 1 1023 3 is_stmt 1 view .LVU1557
1024:Core/Src/main.c ****   float min;
 6678              		.loc 1 1024 3 view .LVU1558
1025:Core/Src/main.c ****   for (int i = 0; i < 4; i++)
 6679              		.loc 1 1025 3 view .LVU1559
ARM GAS  C:\Users\86183\AppData\Local\Temp\ccaDF7Ye.s 			page 149


 6680              	.LBB49:
 6681              		.loc 1 1025 8 view .LVU1560
 6682              		.loc 1 1025 3 is_stmt 0 view .LVU1561
 6683 0056 3EE0     		b	.L390
 6684              	.LVL954:
 6685              	.L391:
 6686              	.LBB50:
1026:Core/Src/main.c ****   {
1027:Core/Src/main.c ****     min = 1e9;
1028:Core/Src/main.c ****     for (int j = 0; j < 4; j++)
1029:Core/Src/main.c ****     {
1030:Core/Src/main.c ****       dist[j] = sq(destination[j][0] - coord.x) + sq(destination[j][1] - coord.y);
 6687              		.loc 1 1030 7 is_stmt 1 discriminator 3 view .LVU1562
 6688              		.loc 1 1030 17 is_stmt 0 discriminator 3 view .LVU1563
 6689 0058 14AB     		add	r3, sp, #80
 6690 005a 03EBC406 		add	r6, r3, r4, lsl #3
 6691 005e 0199     		ldr	r1, [sp, #4]	@ float
 6692 0060 56F8300C 		ldr	r0, [r6, #-48]	@ float
 6693 0064 FFF7FEFF 		bl	__aeabi_fsub
 6694              	.LVL955:
 6695 0068 0146     		mov	r1, r0
 6696 006a FFF7FEFF 		bl	__aeabi_fmul
 6697              	.LVL956:
 6698 006e 0546     		mov	r5, r0
 6699              		.loc 1 1030 51 discriminator 3 view .LVU1564
 6700 0070 0299     		ldr	r1, [sp, #8]	@ float
 6701 0072 56F82C0C 		ldr	r0, [r6, #-44]	@ float
 6702 0076 FFF7FEFF 		bl	__aeabi_fsub
 6703              	.LVL957:
 6704 007a 0146     		mov	r1, r0
 6705 007c FFF7FEFF 		bl	__aeabi_fmul
 6706              	.LVL958:
 6707 0080 0146     		mov	r1, r0
 6708              		.loc 1 1030 49 discriminator 3 view .LVU1565
 6709 0082 2846     		mov	r0, r5
 6710 0084 FFF7FEFF 		bl	__aeabi_fadd
 6711              	.LVL959:
 6712              		.loc 1 1030 15 discriminator 3 view .LVU1566
 6713 0088 14AB     		add	r3, sp, #80
 6714 008a 03EB8403 		add	r3, r3, r4, lsl #2
 6715 008e 43F8400C 		str	r0, [r3, #-64]	@ float
1028:Core/Src/main.c ****     {
 6716              		.loc 1 1028 28 is_stmt 1 discriminator 3 view .LVU1567
1028:Core/Src/main.c ****     {
 6717              		.loc 1 1028 29 is_stmt 0 discriminator 3 view .LVU1568
 6718 0092 0134     		adds	r4, r4, #1
 6719              	.LVL960:
 6720              	.L397:
1028:Core/Src/main.c ****     {
 6721              		.loc 1 1028 21 is_stmt 1 discriminator 1 view .LVU1569
1028:Core/Src/main.c ****     {
 6722              		.loc 1 1028 5 is_stmt 0 discriminator 1 view .LVU1570
 6723 0094 032C     		cmp	r4, #3
 6724 0096 DFDD     		ble	.L391
 6725              	.LBE50:
 6726              	.LBB51:
1031:Core/Src/main.c ****     }
ARM GAS  C:\Users\86183\AppData\Local\Temp\ccaDF7Ye.s 			page 150


1032:Core/Src/main.c ****     for (int j = 0; j < 4; j++)
 6727              		.loc 1 1032 14 view .LVU1571
 6728 0098 0024     		movs	r4, #0
 6729              	.LVL961:
 6730              		.loc 1 1032 14 view .LVU1572
 6731 009a 00E0     		b	.L392
 6732              	.LVL962:
 6733              	.L393:
 6734              		.loc 1 1032 28 is_stmt 1 discriminator 4 view .LVU1573
 6735              		.loc 1 1032 29 is_stmt 0 discriminator 4 view .LVU1574
 6736 009c 0134     		adds	r4, r4, #1
 6737              	.LVL963:
 6738              	.L392:
 6739              		.loc 1 1032 21 is_stmt 1 discriminator 1 view .LVU1575
 6740              		.loc 1 1032 5 is_stmt 0 discriminator 1 view .LVU1576
 6741 009e 032C     		cmp	r4, #3
 6742 00a0 0BDC     		bgt	.L401
1033:Core/Src/main.c ****     {
1034:Core/Src/main.c ****       if (isComplete[j])
 6743              		.loc 1 1034 7 is_stmt 1 view .LVU1577
1035:Core/Src/main.c ****         continue;
1036:Core/Src/main.c ****       minD = min > dist[j] ? j : minD;
 6744              		.loc 1 1036 7 view .LVU1578
 6745              		.loc 1 1036 32 is_stmt 0 view .LVU1579
 6746 00a2 1749     		ldr	r1, .L404+20
 6747 00a4 14AB     		add	r3, sp, #80
 6748 00a6 03EB8403 		add	r3, r3, r4, lsl #2
 6749 00aa 53F8400C 		ldr	r0, [r3, #-64]	@ float
 6750 00ae FFF7FEFF 		bl	__aeabi_fcmplt
 6751              	.LVL964:
 6752 00b2 0028     		cmp	r0, #0
 6753 00b4 F2D0     		beq	.L393
 6754 00b6 A046     		mov	r8, r4
 6755              	.LVL965:
 6756              		.loc 1 1036 32 view .LVU1580
 6757 00b8 F0E7     		b	.L393
 6758              	.LVL966:
 6759              	.L401:
 6760              		.loc 1 1036 32 view .LVU1581
 6761              	.LBE51:
1037:Core/Src/main.c ****     }
1038:Core/Src/main.c ****     MoveTo(destination[minD][0], destination[minD][1], 0);
 6762              		.loc 1 1038 5 is_stmt 1 view .LVU1582
 6763 00ba 0022     		movs	r2, #0
 6764 00bc 14AB     		add	r3, sp, #80
 6765 00be 03EBC803 		add	r3, r3, r8, lsl #3
 6766 00c2 53F82C1C 		ldr	r1, [r3, #-44]	@ float
 6767 00c6 53F8300C 		ldr	r0, [r3, #-48]	@ float
 6768 00ca FFF7FEFF 		bl	MoveTo
 6769              	.LVL967:
1039:Core/Src/main.c ****     if (minD < 2)
 6770              		.loc 1 1039 5 view .LVU1583
 6771              		.loc 1 1039 8 is_stmt 0 view .LVU1584
 6772 00ce B8F1010F 		cmp	r8, #1
 6773 00d2 04DD     		ble	.L402
 6774              	.L396:
1025:Core/Src/main.c ****   {
ARM GAS  C:\Users\86183\AppData\Local\Temp\ccaDF7Ye.s 			page 151


 6775              		.loc 1 1025 26 is_stmt 1 discriminator 2 view .LVU1585
1025:Core/Src/main.c ****   {
 6776              		.loc 1 1025 27 is_stmt 0 discriminator 2 view .LVU1586
 6777 00d4 0137     		adds	r7, r7, #1
 6778              	.LVL968:
 6779              	.L390:
1025:Core/Src/main.c ****   {
 6780              		.loc 1 1025 19 is_stmt 1 discriminator 1 view .LVU1587
1025:Core/Src/main.c ****   {
 6781              		.loc 1 1025 3 is_stmt 0 discriminator 1 view .LVU1588
 6782 00d6 032F     		cmp	r7, #3
 6783 00d8 04DC     		bgt	.L403
 6784              	.LBB52:
1028:Core/Src/main.c ****     {
 6785              		.loc 1 1028 14 view .LVU1589
 6786 00da 0024     		movs	r4, #0
 6787 00dc DAE7     		b	.L397
 6788              	.LVL969:
 6789              	.L402:
1028:Core/Src/main.c ****     {
 6790              		.loc 1 1028 14 view .LVU1590
 6791              	.LBE52:
1040:Core/Src/main.c ****       Set_Beacon();
 6792              		.loc 1 1040 7 is_stmt 1 view .LVU1591
 6793 00de FFF7FEFF 		bl	Set_Beacon
 6794              	.LVL970:
 6795 00e2 F7E7     		b	.L396
 6796              	.LVL971:
 6797              	.L403:
 6798              		.loc 1 1040 7 is_stmt 0 view .LVU1592
 6799              	.LBE49:
1041:Core/Src/main.c ****   }
1042:Core/Src/main.c **** }
 6800              		.loc 1 1042 1 view .LVU1593
 6801 00e4 14B0     		add	sp, sp, #80
 6802              	.LCFI46:
 6803              		.cfi_def_cfa_offset 24
 6804              		@ sp needed
 6805 00e6 BDE8F081 		pop	{r4, r5, r6, r7, r8, pc}
 6806              	.LVL972:
 6807              	.L405:
 6808              		.loc 1 1042 1 view .LVU1594
 6809 00ea 00BF     		.align	2
 6810              	.L404:
 6811 00ec 00000000 		.word	.LANCHOR19
 6812 00f0 00003442 		.word	1110704128
 6813 00f4 00000000 		.word	.LANCHOR13
 6814 00f8 00000000 		.word	.LANCHOR14
 6815 00fc 00004842 		.word	1112014848
 6816 0100 286B6E4E 		.word	1315859240
 6817              		.cfi_endproc
 6818              	.LFE91:
 6820              		.section	.text.Error_Handler,"ax",%progbits
 6821              		.align	1
 6822              		.global	Error_Handler
 6823              		.syntax unified
 6824              		.thumb
ARM GAS  C:\Users\86183\AppData\Local\Temp\ccaDF7Ye.s 			page 152


 6825              		.thumb_func
 6826              		.fpu softvfp
 6828              	Error_Handler:
 6829              	.LFB94:
1043:Core/Src/main.c **** 
1044:Core/Src/main.c **** /* USER CODE END 0 */
1045:Core/Src/main.c **** 
1046:Core/Src/main.c **** /**
1047:Core/Src/main.c ****  * @brief  The application entry point.
1048:Core/Src/main.c ****  * @retval int
1049:Core/Src/main.c ****  */
1050:Core/Src/main.c **** int main(void)
1051:Core/Src/main.c **** {
1052:Core/Src/main.c ****   /* USER CODE BEGIN 1 */
1053:Core/Src/main.c **** 
1054:Core/Src/main.c ****   /* USER CODE END 1 */
1055:Core/Src/main.c **** 
1056:Core/Src/main.c ****   /* MCU Configuration--------------------------------------------------------*/
1057:Core/Src/main.c **** 
1058:Core/Src/main.c ****   /* Reset of all peripherals, Initializes the Flash interface and the Systick. */
1059:Core/Src/main.c ****   HAL_Init();
1060:Core/Src/main.c **** 
1061:Core/Src/main.c ****   /* USER CODE BEGIN Init */
1062:Core/Src/main.c **** 
1063:Core/Src/main.c ****   /* USER CODE END Init */
1064:Core/Src/main.c **** 
1065:Core/Src/main.c ****   /* Configure the system clock */
1066:Core/Src/main.c ****   SystemClock_Config();
1067:Core/Src/main.c **** 
1068:Core/Src/main.c ****   /* USER CODE BEGIN SysInit */
1069:Core/Src/main.c **** 
1070:Core/Src/main.c ****   /* USER CODE END SysInit */
1071:Core/Src/main.c **** 
1072:Core/Src/main.c ****   /* Initialize all configured peripherals */
1073:Core/Src/main.c ****   MX_GPIO_Init();
1074:Core/Src/main.c ****   MX_TIM1_Init();
1075:Core/Src/main.c ****   MX_TIM2_Init();
1076:Core/Src/main.c ****   MX_TIM3_Init();
1077:Core/Src/main.c ****   MX_TIM4_Init();
1078:Core/Src/main.c ****   MX_TIM5_Init();
1079:Core/Src/main.c ****   MX_TIM8_Init();
1080:Core/Src/main.c ****   MX_DMA_Init();
1081:Core/Src/main.c ****   MX_USART3_UART_Init();
1082:Core/Src/main.c ****   MX_USART2_UART_Init();
1083:Core/Src/main.c ****   /* USER CODE BEGIN 2 */
1084:Core/Src/main.c ****   HAL_TIM_Base_Start_IT(&htim2);
1085:Core/Src/main.c ****   HAL_TIM_PWM_Start(&htim1, TIM_CHANNEL_1);
1086:Core/Src/main.c ****   HAL_TIM_PWM_Start(&htim1, TIM_CHANNEL_2);
1087:Core/Src/main.c ****   HAL_TIM_PWM_Start(&htim1, TIM_CHANNEL_3);
1088:Core/Src/main.c ****   HAL_TIM_PWM_Start(&htim1, TIM_CHANNEL_4);
1089:Core/Src/main.c ****   HAL_TIM_Encoder_Start(&htim3, TIM_CHANNEL_ALL);
1090:Core/Src/main.c ****   HAL_TIM_Encoder_Start(&htim4, TIM_CHANNEL_ALL);
1091:Core/Src/main.c ****   HAL_TIM_Encoder_Start(&htim5, TIM_CHANNEL_ALL);
1092:Core/Src/main.c ****   HAL_TIM_Encoder_Start(&htim8, TIM_CHANNEL_ALL);
1093:Core/Src/main.c ****   HAL_Delay(500);
1094:Core/Src/main.c ****   jy62_Init(&huart2);
1095:Core/Src/main.c ****   zigbee_Init(&huart3);
ARM GAS  C:\Users\86183\AppData\Local\Temp\ccaDF7Ye.s 			page 153


1096:Core/Src/main.c ****   Calibrate_Angle();
1097:Core/Src/main.c ****   /* USER CODE END 2 */
1098:Core/Src/main.c **** 
1099:Core/Src/main.c ****   /* Infinite loop */
1100:Core/Src/main.c ****   /* USER CODE BEGIN WHILE */
1101:Core/Src/main.c ****   while (1)
1102:Core/Src/main.c ****   {
1103:Core/Src/main.c ****     /* USER CODE END WHILE */
1104:Core/Src/main.c **** 
1105:Core/Src/main.c ****     /* USER CODE BEGIN 3 */
1106:Core/Src/main.c ****     /*********************主逻辑******************/
1107:Core/Src/main.c ****     uint8_t gameState = getGameState();
1108:Core/Src/main.c **** 
1109:Core/Src/main.c ****     if (gameState == 0 || gameState == 2 || gameState == 3)
1110:Core/Src/main.c ****     {
1111:Core/Src/main.c ****       Set_LF_Direction(0);
1112:Core/Src/main.c ****       Set_RF_Direction(0);
1113:Core/Src/main.c ****     }
1114:Core/Src/main.c **** 
1115:Core/Src/main.c ****     while (gameState == 1)
1116:Core/Src/main.c ****     {
1117:Core/Src/main.c ****       uint8_t ROUND = getCarTask();
1118:Core/Src/main.c ****       if (ROUND == 0)
1119:Core/Src/main.c ****       {
1120:Core/Src/main.c ****         Round0();
1121:Core/Src/main.c ****       }
1122:Core/Src/main.c **** 
1123:Core/Src/main.c ****       if (ROUND == 1)
1124:Core/Src/main.c ****       {
1125:Core/Src/main.c ****         int m;
1126:Core/Src/main.c ****         if (!isInitialMinePark)
1127:Core/Src/main.c ****         {
1128:Core/Src/main.c ****           initialParkMineType();
1129:Core/Src/main.c ****           isInitialMinePark = 1;
1130:Core/Src/main.c ****           STATE = (uint8_t)GET_PACKAGE;
1131:Core/Src/main.c ****         }
1132:Core/Src/main.c **** 
1133:Core/Src/main.c ****         if (getGameTime() > 950 && getCarMineSumNum() != 0)
1134:Core/Src/main.c ****           STATE = (uint8_t)PUT_PACKAGE;
1135:Core/Src/main.c **** 
1136:Core/Src/main.c ****         switch (STATE)
1137:Core/Src/main.c ****         {
1138:Core/Src/main.c ****         case GET_PACKAGE:
1139:Core/Src/main.c ****           getPackage();
1140:Core/Src/main.c ****           if (getCarMineSumNum() > 8)
1141:Core/Src/main.c ****             STATE = (uint8_t)PUT_PACKAGE;
1142:Core/Src/main.c ****           break;
1143:Core/Src/main.c **** 
1144:Core/Src/main.c ****         case PUT_PACKAGE:
1145:Core/Src/main.c ****           m = getNearestPark(curMostMineType());
1146:Core/Src/main.c ****           MoveTo(Park[m].x, Park[m].y, Park[m].mineType);
1147:Core/Src/main.c ****           STATE = (uint8_t)GET_PACKAGE;
1148:Core/Src/main.c ****           break;
1149:Core/Src/main.c **** 
1150:Core/Src/main.c ****         default:
1151:Core/Src/main.c ****           STATE = (uint8_t)GET_PACKAGE;
1152:Core/Src/main.c ****           break;
ARM GAS  C:\Users\86183\AppData\Local\Temp\ccaDF7Ye.s 			page 154


1153:Core/Src/main.c ****         }
1154:Core/Src/main.c ****       }
1155:Core/Src/main.c ****       gameState = getGameState();
1156:Core/Src/main.c ****     }
1157:Core/Src/main.c ****     /* USER CODE END 3 */
1158:Core/Src/main.c ****   }
1159:Core/Src/main.c **** }
1160:Core/Src/main.c **** 
1161:Core/Src/main.c **** /**
1162:Core/Src/main.c ****  * @brief System Clock Configuration
1163:Core/Src/main.c ****  * @retval None
1164:Core/Src/main.c ****  */
1165:Core/Src/main.c **** void SystemClock_Config(void)
1166:Core/Src/main.c **** {
1167:Core/Src/main.c ****   RCC_OscInitTypeDef RCC_OscInitStruct = {0};
1168:Core/Src/main.c ****   RCC_ClkInitTypeDef RCC_ClkInitStruct = {0};
1169:Core/Src/main.c **** 
1170:Core/Src/main.c ****   /** Initializes the RCC Oscillators according to the specified parameters
1171:Core/Src/main.c ****    * in the RCC_OscInitTypeDef structure.
1172:Core/Src/main.c ****    */
1173:Core/Src/main.c ****   RCC_OscInitStruct.OscillatorType = RCC_OSCILLATORTYPE_HSE;
1174:Core/Src/main.c ****   RCC_OscInitStruct.HSEState = RCC_HSE_ON;
1175:Core/Src/main.c ****   RCC_OscInitStruct.HSEPredivValue = RCC_HSE_PREDIV_DIV1;
1176:Core/Src/main.c ****   RCC_OscInitStruct.HSIState = RCC_HSI_ON;
1177:Core/Src/main.c ****   RCC_OscInitStruct.PLL.PLLState = RCC_PLL_ON;
1178:Core/Src/main.c ****   RCC_OscInitStruct.PLL.PLLSource = RCC_PLLSOURCE_HSE;
1179:Core/Src/main.c ****   RCC_OscInitStruct.PLL.PLLMUL = RCC_PLL_MUL9;
1180:Core/Src/main.c ****   if (HAL_RCC_OscConfig(&RCC_OscInitStruct) != HAL_OK)
1181:Core/Src/main.c ****   {
1182:Core/Src/main.c ****     Error_Handler();
1183:Core/Src/main.c ****   }
1184:Core/Src/main.c ****   /** Initializes the CPU, AHB and APB buses clocks
1185:Core/Src/main.c ****    */
1186:Core/Src/main.c ****   RCC_ClkInitStruct.ClockType = RCC_CLOCKTYPE_HCLK | RCC_CLOCKTYPE_SYSCLK | RCC_CLOCKTYPE_PCLK1 | R
1187:Core/Src/main.c ****   RCC_ClkInitStruct.SYSCLKSource = RCC_SYSCLKSOURCE_PLLCLK;
1188:Core/Src/main.c ****   RCC_ClkInitStruct.AHBCLKDivider = RCC_SYSCLK_DIV1;
1189:Core/Src/main.c ****   RCC_ClkInitStruct.APB1CLKDivider = RCC_HCLK_DIV2;
1190:Core/Src/main.c ****   RCC_ClkInitStruct.APB2CLKDivider = RCC_HCLK_DIV1;
1191:Core/Src/main.c **** 
1192:Core/Src/main.c ****   if (HAL_RCC_ClockConfig(&RCC_ClkInitStruct, FLASH_LATENCY_2) != HAL_OK)
1193:Core/Src/main.c ****   {
1194:Core/Src/main.c ****     Error_Handler();
1195:Core/Src/main.c ****   }
1196:Core/Src/main.c **** }
1197:Core/Src/main.c **** 
1198:Core/Src/main.c **** /* USER CODE BEGIN 4 */
1199:Core/Src/main.c **** 
1200:Core/Src/main.c **** /* USER CODE END 4 */
1201:Core/Src/main.c **** 
1202:Core/Src/main.c **** /**
1203:Core/Src/main.c ****  * @brief  This function is executed in case of error occurrence.
1204:Core/Src/main.c ****  * @retval None
1205:Core/Src/main.c ****  */
1206:Core/Src/main.c **** void Error_Handler(void)
1207:Core/Src/main.c **** {
 6830              		.loc 1 1207 1 is_stmt 1 view -0
 6831              		.cfi_startproc
ARM GAS  C:\Users\86183\AppData\Local\Temp\ccaDF7Ye.s 			page 155


 6832              		@ Volatile: function does not return.
 6833              		@ args = 0, pretend = 0, frame = 0
 6834              		@ frame_needed = 0, uses_anonymous_args = 0
 6835              		@ link register save eliminated.
1208:Core/Src/main.c ****   /* USER CODE BEGIN Error_Handler_Debug */
1209:Core/Src/main.c ****   /* User can add his own implementation to report the HAL error return state */
1210:Core/Src/main.c ****   __disable_irq();
 6836              		.loc 1 1210 3 view .LVU1596
 6837              	.LBB53:
 6838              	.LBI53:
 6839              		.file 2 "Drivers/CMSIS/Include/cmsis_gcc.h"
   1:Drivers/CMSIS/Include/cmsis_gcc.h **** /**************************************************************************//**
   2:Drivers/CMSIS/Include/cmsis_gcc.h ****  * @file     cmsis_gcc.h
   3:Drivers/CMSIS/Include/cmsis_gcc.h ****  * @brief    CMSIS compiler GCC header file
   4:Drivers/CMSIS/Include/cmsis_gcc.h ****  * @version  V5.0.4
   5:Drivers/CMSIS/Include/cmsis_gcc.h ****  * @date     09. April 2018
   6:Drivers/CMSIS/Include/cmsis_gcc.h ****  ******************************************************************************/
   7:Drivers/CMSIS/Include/cmsis_gcc.h **** /*
   8:Drivers/CMSIS/Include/cmsis_gcc.h ****  * Copyright (c) 2009-2018 Arm Limited. All rights reserved.
   9:Drivers/CMSIS/Include/cmsis_gcc.h ****  *
  10:Drivers/CMSIS/Include/cmsis_gcc.h ****  * SPDX-License-Identifier: Apache-2.0
  11:Drivers/CMSIS/Include/cmsis_gcc.h ****  *
  12:Drivers/CMSIS/Include/cmsis_gcc.h ****  * Licensed under the Apache License, Version 2.0 (the License); you may
  13:Drivers/CMSIS/Include/cmsis_gcc.h ****  * not use this file except in compliance with the License.
  14:Drivers/CMSIS/Include/cmsis_gcc.h ****  * You may obtain a copy of the License at
  15:Drivers/CMSIS/Include/cmsis_gcc.h ****  *
  16:Drivers/CMSIS/Include/cmsis_gcc.h ****  * www.apache.org/licenses/LICENSE-2.0
  17:Drivers/CMSIS/Include/cmsis_gcc.h ****  *
  18:Drivers/CMSIS/Include/cmsis_gcc.h ****  * Unless required by applicable law or agreed to in writing, software
  19:Drivers/CMSIS/Include/cmsis_gcc.h ****  * distributed under the License is distributed on an AS IS BASIS, WITHOUT
  20:Drivers/CMSIS/Include/cmsis_gcc.h ****  * WARRANTIES OR CONDITIONS OF ANY KIND, either express or implied.
  21:Drivers/CMSIS/Include/cmsis_gcc.h ****  * See the License for the specific language governing permissions and
  22:Drivers/CMSIS/Include/cmsis_gcc.h ****  * limitations under the License.
  23:Drivers/CMSIS/Include/cmsis_gcc.h ****  */
  24:Drivers/CMSIS/Include/cmsis_gcc.h **** 
  25:Drivers/CMSIS/Include/cmsis_gcc.h **** #ifndef __CMSIS_GCC_H
  26:Drivers/CMSIS/Include/cmsis_gcc.h **** #define __CMSIS_GCC_H
  27:Drivers/CMSIS/Include/cmsis_gcc.h **** 
  28:Drivers/CMSIS/Include/cmsis_gcc.h **** /* ignore some GCC warnings */
  29:Drivers/CMSIS/Include/cmsis_gcc.h **** #pragma GCC diagnostic push
  30:Drivers/CMSIS/Include/cmsis_gcc.h **** #pragma GCC diagnostic ignored "-Wsign-conversion"
  31:Drivers/CMSIS/Include/cmsis_gcc.h **** #pragma GCC diagnostic ignored "-Wconversion"
  32:Drivers/CMSIS/Include/cmsis_gcc.h **** #pragma GCC diagnostic ignored "-Wunused-parameter"
  33:Drivers/CMSIS/Include/cmsis_gcc.h **** 
  34:Drivers/CMSIS/Include/cmsis_gcc.h **** /* Fallback for __has_builtin */
  35:Drivers/CMSIS/Include/cmsis_gcc.h **** #ifndef __has_builtin
  36:Drivers/CMSIS/Include/cmsis_gcc.h ****   #define __has_builtin(x) (0)
  37:Drivers/CMSIS/Include/cmsis_gcc.h **** #endif
  38:Drivers/CMSIS/Include/cmsis_gcc.h **** 
  39:Drivers/CMSIS/Include/cmsis_gcc.h **** /* CMSIS compiler specific defines */
  40:Drivers/CMSIS/Include/cmsis_gcc.h **** #ifndef   __ASM
  41:Drivers/CMSIS/Include/cmsis_gcc.h ****   #define __ASM                                  __asm
  42:Drivers/CMSIS/Include/cmsis_gcc.h **** #endif
  43:Drivers/CMSIS/Include/cmsis_gcc.h **** #ifndef   __INLINE
  44:Drivers/CMSIS/Include/cmsis_gcc.h ****   #define __INLINE                               inline
  45:Drivers/CMSIS/Include/cmsis_gcc.h **** #endif
  46:Drivers/CMSIS/Include/cmsis_gcc.h **** #ifndef   __STATIC_INLINE
ARM GAS  C:\Users\86183\AppData\Local\Temp\ccaDF7Ye.s 			page 156


  47:Drivers/CMSIS/Include/cmsis_gcc.h ****   #define __STATIC_INLINE                        static inline
  48:Drivers/CMSIS/Include/cmsis_gcc.h **** #endif
  49:Drivers/CMSIS/Include/cmsis_gcc.h **** #ifndef   __STATIC_FORCEINLINE                 
  50:Drivers/CMSIS/Include/cmsis_gcc.h ****   #define __STATIC_FORCEINLINE                   __attribute__((always_inline)) static inline
  51:Drivers/CMSIS/Include/cmsis_gcc.h **** #endif                                           
  52:Drivers/CMSIS/Include/cmsis_gcc.h **** #ifndef   __NO_RETURN
  53:Drivers/CMSIS/Include/cmsis_gcc.h ****   #define __NO_RETURN                            __attribute__((__noreturn__))
  54:Drivers/CMSIS/Include/cmsis_gcc.h **** #endif
  55:Drivers/CMSIS/Include/cmsis_gcc.h **** #ifndef   __USED
  56:Drivers/CMSIS/Include/cmsis_gcc.h ****   #define __USED                                 __attribute__((used))
  57:Drivers/CMSIS/Include/cmsis_gcc.h **** #endif
  58:Drivers/CMSIS/Include/cmsis_gcc.h **** #ifndef   __WEAK
  59:Drivers/CMSIS/Include/cmsis_gcc.h ****   #define __WEAK                                 __attribute__((weak))
  60:Drivers/CMSIS/Include/cmsis_gcc.h **** #endif
  61:Drivers/CMSIS/Include/cmsis_gcc.h **** #ifndef   __PACKED
  62:Drivers/CMSIS/Include/cmsis_gcc.h ****   #define __PACKED                               __attribute__((packed, aligned(1)))
  63:Drivers/CMSIS/Include/cmsis_gcc.h **** #endif
  64:Drivers/CMSIS/Include/cmsis_gcc.h **** #ifndef   __PACKED_STRUCT
  65:Drivers/CMSIS/Include/cmsis_gcc.h ****   #define __PACKED_STRUCT                        struct __attribute__((packed, aligned(1)))
  66:Drivers/CMSIS/Include/cmsis_gcc.h **** #endif
  67:Drivers/CMSIS/Include/cmsis_gcc.h **** #ifndef   __PACKED_UNION
  68:Drivers/CMSIS/Include/cmsis_gcc.h ****   #define __PACKED_UNION                         union __attribute__((packed, aligned(1)))
  69:Drivers/CMSIS/Include/cmsis_gcc.h **** #endif
  70:Drivers/CMSIS/Include/cmsis_gcc.h **** #ifndef   __UNALIGNED_UINT32        /* deprecated */
  71:Drivers/CMSIS/Include/cmsis_gcc.h ****   #pragma GCC diagnostic push
  72:Drivers/CMSIS/Include/cmsis_gcc.h ****   #pragma GCC diagnostic ignored "-Wpacked"
  73:Drivers/CMSIS/Include/cmsis_gcc.h ****   #pragma GCC diagnostic ignored "-Wattributes"
  74:Drivers/CMSIS/Include/cmsis_gcc.h ****   struct __attribute__((packed)) T_UINT32 { uint32_t v; };
  75:Drivers/CMSIS/Include/cmsis_gcc.h ****   #pragma GCC diagnostic pop
  76:Drivers/CMSIS/Include/cmsis_gcc.h ****   #define __UNALIGNED_UINT32(x)                  (((struct T_UINT32 *)(x))->v)
  77:Drivers/CMSIS/Include/cmsis_gcc.h **** #endif
  78:Drivers/CMSIS/Include/cmsis_gcc.h **** #ifndef   __UNALIGNED_UINT16_WRITE
  79:Drivers/CMSIS/Include/cmsis_gcc.h ****   #pragma GCC diagnostic push
  80:Drivers/CMSIS/Include/cmsis_gcc.h ****   #pragma GCC diagnostic ignored "-Wpacked"
  81:Drivers/CMSIS/Include/cmsis_gcc.h ****   #pragma GCC diagnostic ignored "-Wattributes"
  82:Drivers/CMSIS/Include/cmsis_gcc.h ****   __PACKED_STRUCT T_UINT16_WRITE { uint16_t v; };
  83:Drivers/CMSIS/Include/cmsis_gcc.h ****   #pragma GCC diagnostic pop
  84:Drivers/CMSIS/Include/cmsis_gcc.h ****   #define __UNALIGNED_UINT16_WRITE(addr, val)    (void)((((struct T_UINT16_WRITE *)(void *)(addr))-
  85:Drivers/CMSIS/Include/cmsis_gcc.h **** #endif
  86:Drivers/CMSIS/Include/cmsis_gcc.h **** #ifndef   __UNALIGNED_UINT16_READ
  87:Drivers/CMSIS/Include/cmsis_gcc.h ****   #pragma GCC diagnostic push
  88:Drivers/CMSIS/Include/cmsis_gcc.h ****   #pragma GCC diagnostic ignored "-Wpacked"
  89:Drivers/CMSIS/Include/cmsis_gcc.h ****   #pragma GCC diagnostic ignored "-Wattributes"
  90:Drivers/CMSIS/Include/cmsis_gcc.h ****   __PACKED_STRUCT T_UINT16_READ { uint16_t v; };
  91:Drivers/CMSIS/Include/cmsis_gcc.h ****   #pragma GCC diagnostic pop
  92:Drivers/CMSIS/Include/cmsis_gcc.h ****   #define __UNALIGNED_UINT16_READ(addr)          (((const struct T_UINT16_READ *)(const void *)(add
  93:Drivers/CMSIS/Include/cmsis_gcc.h **** #endif
  94:Drivers/CMSIS/Include/cmsis_gcc.h **** #ifndef   __UNALIGNED_UINT32_WRITE
  95:Drivers/CMSIS/Include/cmsis_gcc.h ****   #pragma GCC diagnostic push
  96:Drivers/CMSIS/Include/cmsis_gcc.h ****   #pragma GCC diagnostic ignored "-Wpacked"
  97:Drivers/CMSIS/Include/cmsis_gcc.h ****   #pragma GCC diagnostic ignored "-Wattributes"
  98:Drivers/CMSIS/Include/cmsis_gcc.h ****   __PACKED_STRUCT T_UINT32_WRITE { uint32_t v; };
  99:Drivers/CMSIS/Include/cmsis_gcc.h ****   #pragma GCC diagnostic pop
 100:Drivers/CMSIS/Include/cmsis_gcc.h ****   #define __UNALIGNED_UINT32_WRITE(addr, val)    (void)((((struct T_UINT32_WRITE *)(void *)(addr))-
 101:Drivers/CMSIS/Include/cmsis_gcc.h **** #endif
 102:Drivers/CMSIS/Include/cmsis_gcc.h **** #ifndef   __UNALIGNED_UINT32_READ
 103:Drivers/CMSIS/Include/cmsis_gcc.h ****   #pragma GCC diagnostic push
ARM GAS  C:\Users\86183\AppData\Local\Temp\ccaDF7Ye.s 			page 157


 104:Drivers/CMSIS/Include/cmsis_gcc.h ****   #pragma GCC diagnostic ignored "-Wpacked"
 105:Drivers/CMSIS/Include/cmsis_gcc.h ****   #pragma GCC diagnostic ignored "-Wattributes"
 106:Drivers/CMSIS/Include/cmsis_gcc.h ****   __PACKED_STRUCT T_UINT32_READ { uint32_t v; };
 107:Drivers/CMSIS/Include/cmsis_gcc.h ****   #pragma GCC diagnostic pop
 108:Drivers/CMSIS/Include/cmsis_gcc.h ****   #define __UNALIGNED_UINT32_READ(addr)          (((const struct T_UINT32_READ *)(const void *)(add
 109:Drivers/CMSIS/Include/cmsis_gcc.h **** #endif
 110:Drivers/CMSIS/Include/cmsis_gcc.h **** #ifndef   __ALIGNED
 111:Drivers/CMSIS/Include/cmsis_gcc.h ****   #define __ALIGNED(x)                           __attribute__((aligned(x)))
 112:Drivers/CMSIS/Include/cmsis_gcc.h **** #endif
 113:Drivers/CMSIS/Include/cmsis_gcc.h **** #ifndef   __RESTRICT
 114:Drivers/CMSIS/Include/cmsis_gcc.h ****   #define __RESTRICT                             __restrict
 115:Drivers/CMSIS/Include/cmsis_gcc.h **** #endif
 116:Drivers/CMSIS/Include/cmsis_gcc.h **** 
 117:Drivers/CMSIS/Include/cmsis_gcc.h **** 
 118:Drivers/CMSIS/Include/cmsis_gcc.h **** /* ###########################  Core Function Access  ########################### */
 119:Drivers/CMSIS/Include/cmsis_gcc.h **** /** \ingroup  CMSIS_Core_FunctionInterface
 120:Drivers/CMSIS/Include/cmsis_gcc.h ****     \defgroup CMSIS_Core_RegAccFunctions CMSIS Core Register Access Functions
 121:Drivers/CMSIS/Include/cmsis_gcc.h ****   @{
 122:Drivers/CMSIS/Include/cmsis_gcc.h ****  */
 123:Drivers/CMSIS/Include/cmsis_gcc.h **** 
 124:Drivers/CMSIS/Include/cmsis_gcc.h **** /**
 125:Drivers/CMSIS/Include/cmsis_gcc.h ****   \brief   Enable IRQ Interrupts
 126:Drivers/CMSIS/Include/cmsis_gcc.h ****   \details Enables IRQ interrupts by clearing the I-bit in the CPSR.
 127:Drivers/CMSIS/Include/cmsis_gcc.h ****            Can only be executed in Privileged modes.
 128:Drivers/CMSIS/Include/cmsis_gcc.h ****  */
 129:Drivers/CMSIS/Include/cmsis_gcc.h **** __STATIC_FORCEINLINE void __enable_irq(void)
 130:Drivers/CMSIS/Include/cmsis_gcc.h **** {
 131:Drivers/CMSIS/Include/cmsis_gcc.h ****   __ASM volatile ("cpsie i" : : : "memory");
 132:Drivers/CMSIS/Include/cmsis_gcc.h **** }
 133:Drivers/CMSIS/Include/cmsis_gcc.h **** 
 134:Drivers/CMSIS/Include/cmsis_gcc.h **** 
 135:Drivers/CMSIS/Include/cmsis_gcc.h **** /**
 136:Drivers/CMSIS/Include/cmsis_gcc.h ****   \brief   Disable IRQ Interrupts
 137:Drivers/CMSIS/Include/cmsis_gcc.h ****   \details Disables IRQ interrupts by setting the I-bit in the CPSR.
 138:Drivers/CMSIS/Include/cmsis_gcc.h ****            Can only be executed in Privileged modes.
 139:Drivers/CMSIS/Include/cmsis_gcc.h ****  */
 140:Drivers/CMSIS/Include/cmsis_gcc.h **** __STATIC_FORCEINLINE void __disable_irq(void)
 6840              		.loc 2 140 27 view .LVU1597
 6841              	.LBB54:
 141:Drivers/CMSIS/Include/cmsis_gcc.h **** {
 142:Drivers/CMSIS/Include/cmsis_gcc.h ****   __ASM volatile ("cpsid i" : : : "memory");
 6842              		.loc 2 142 3 view .LVU1598
 6843              		.syntax unified
 6844              	@ 142 "Drivers/CMSIS/Include/cmsis_gcc.h" 1
 6845 0000 72B6     		cpsid i
 6846              	@ 0 "" 2
 6847              		.thumb
 6848              		.syntax unified
 6849              	.L407:
 6850              	.LBE54:
 6851              	.LBE53:
1211:Core/Src/main.c ****   while (1)
 6852              		.loc 1 1211 3 discriminator 1 view .LVU1599
1212:Core/Src/main.c ****   {
1213:Core/Src/main.c ****   }
 6853              		.loc 1 1213 3 discriminator 1 view .LVU1600
1211:Core/Src/main.c ****   while (1)
ARM GAS  C:\Users\86183\AppData\Local\Temp\ccaDF7Ye.s 			page 158


 6854              		.loc 1 1211 9 discriminator 1 view .LVU1601
 6855 0002 FEE7     		b	.L407
 6856              		.cfi_endproc
 6857              	.LFE94:
 6859              		.section	.text.SystemClock_Config,"ax",%progbits
 6860              		.align	1
 6861              		.global	SystemClock_Config
 6862              		.syntax unified
 6863              		.thumb
 6864              		.thumb_func
 6865              		.fpu softvfp
 6867              	SystemClock_Config:
 6868              	.LFB93:
1166:Core/Src/main.c ****   RCC_OscInitTypeDef RCC_OscInitStruct = {0};
 6869              		.loc 1 1166 1 view -0
 6870              		.cfi_startproc
 6871              		@ args = 0, pretend = 0, frame = 64
 6872              		@ frame_needed = 0, uses_anonymous_args = 0
 6873 0000 00B5     		push	{lr}
 6874              	.LCFI47:
 6875              		.cfi_def_cfa_offset 4
 6876              		.cfi_offset 14, -4
 6877 0002 91B0     		sub	sp, sp, #68
 6878              	.LCFI48:
 6879              		.cfi_def_cfa_offset 72
1167:Core/Src/main.c ****   RCC_ClkInitTypeDef RCC_ClkInitStruct = {0};
 6880              		.loc 1 1167 3 view .LVU1603
1167:Core/Src/main.c ****   RCC_ClkInitTypeDef RCC_ClkInitStruct = {0};
 6881              		.loc 1 1167 22 is_stmt 0 view .LVU1604
 6882 0004 2822     		movs	r2, #40
 6883 0006 0021     		movs	r1, #0
 6884 0008 06A8     		add	r0, sp, #24
 6885 000a FFF7FEFF 		bl	memset
 6886              	.LVL973:
1168:Core/Src/main.c **** 
 6887              		.loc 1 1168 3 is_stmt 1 view .LVU1605
1168:Core/Src/main.c **** 
 6888              		.loc 1 1168 22 is_stmt 0 view .LVU1606
 6889 000e 0023     		movs	r3, #0
 6890 0010 0193     		str	r3, [sp, #4]
 6891 0012 0293     		str	r3, [sp, #8]
 6892 0014 0393     		str	r3, [sp, #12]
 6893 0016 0493     		str	r3, [sp, #16]
 6894 0018 0593     		str	r3, [sp, #20]
1173:Core/Src/main.c ****   RCC_OscInitStruct.HSEState = RCC_HSE_ON;
 6895              		.loc 1 1173 3 is_stmt 1 view .LVU1607
1173:Core/Src/main.c ****   RCC_OscInitStruct.HSEState = RCC_HSE_ON;
 6896              		.loc 1 1173 36 is_stmt 0 view .LVU1608
 6897 001a 0122     		movs	r2, #1
 6898 001c 0692     		str	r2, [sp, #24]
1174:Core/Src/main.c ****   RCC_OscInitStruct.HSEPredivValue = RCC_HSE_PREDIV_DIV1;
 6899              		.loc 1 1174 3 is_stmt 1 view .LVU1609
1174:Core/Src/main.c ****   RCC_OscInitStruct.HSEPredivValue = RCC_HSE_PREDIV_DIV1;
 6900              		.loc 1 1174 30 is_stmt 0 view .LVU1610
 6901 001e 4FF48033 		mov	r3, #65536
 6902 0022 0793     		str	r3, [sp, #28]
1175:Core/Src/main.c ****   RCC_OscInitStruct.HSIState = RCC_HSI_ON;
ARM GAS  C:\Users\86183\AppData\Local\Temp\ccaDF7Ye.s 			page 159


 6903              		.loc 1 1175 3 is_stmt 1 view .LVU1611
1176:Core/Src/main.c ****   RCC_OscInitStruct.PLL.PLLState = RCC_PLL_ON;
 6904              		.loc 1 1176 3 view .LVU1612
1176:Core/Src/main.c ****   RCC_OscInitStruct.PLL.PLLState = RCC_PLL_ON;
 6905              		.loc 1 1176 30 is_stmt 0 view .LVU1613
 6906 0024 0A92     		str	r2, [sp, #40]
1177:Core/Src/main.c ****   RCC_OscInitStruct.PLL.PLLSource = RCC_PLLSOURCE_HSE;
 6907              		.loc 1 1177 3 is_stmt 1 view .LVU1614
1177:Core/Src/main.c ****   RCC_OscInitStruct.PLL.PLLSource = RCC_PLLSOURCE_HSE;
 6908              		.loc 1 1177 34 is_stmt 0 view .LVU1615
 6909 0026 0222     		movs	r2, #2
 6910 0028 0D92     		str	r2, [sp, #52]
1178:Core/Src/main.c ****   RCC_OscInitStruct.PLL.PLLMUL = RCC_PLL_MUL9;
 6911              		.loc 1 1178 3 is_stmt 1 view .LVU1616
1178:Core/Src/main.c ****   RCC_OscInitStruct.PLL.PLLMUL = RCC_PLL_MUL9;
 6912              		.loc 1 1178 35 is_stmt 0 view .LVU1617
 6913 002a 0E93     		str	r3, [sp, #56]
1179:Core/Src/main.c ****   if (HAL_RCC_OscConfig(&RCC_OscInitStruct) != HAL_OK)
 6914              		.loc 1 1179 3 is_stmt 1 view .LVU1618
1179:Core/Src/main.c ****   if (HAL_RCC_OscConfig(&RCC_OscInitStruct) != HAL_OK)
 6915              		.loc 1 1179 32 is_stmt 0 view .LVU1619
 6916 002c 4FF4E013 		mov	r3, #1835008
 6917 0030 0F93     		str	r3, [sp, #60]
1180:Core/Src/main.c ****   {
 6918              		.loc 1 1180 3 is_stmt 1 view .LVU1620
1180:Core/Src/main.c ****   {
 6919              		.loc 1 1180 7 is_stmt 0 view .LVU1621
 6920 0032 06A8     		add	r0, sp, #24
 6921 0034 FFF7FEFF 		bl	HAL_RCC_OscConfig
 6922              	.LVL974:
1180:Core/Src/main.c ****   {
 6923              		.loc 1 1180 6 view .LVU1622
 6924 0038 80B9     		cbnz	r0, .L412
1186:Core/Src/main.c ****   RCC_ClkInitStruct.SYSCLKSource = RCC_SYSCLKSOURCE_PLLCLK;
 6925              		.loc 1 1186 3 is_stmt 1 view .LVU1623
1186:Core/Src/main.c ****   RCC_ClkInitStruct.SYSCLKSource = RCC_SYSCLKSOURCE_PLLCLK;
 6926              		.loc 1 1186 31 is_stmt 0 view .LVU1624
 6927 003a 0F23     		movs	r3, #15
 6928 003c 0193     		str	r3, [sp, #4]
1187:Core/Src/main.c ****   RCC_ClkInitStruct.AHBCLKDivider = RCC_SYSCLK_DIV1;
 6929              		.loc 1 1187 3 is_stmt 1 view .LVU1625
1187:Core/Src/main.c ****   RCC_ClkInitStruct.AHBCLKDivider = RCC_SYSCLK_DIV1;
 6930              		.loc 1 1187 34 is_stmt 0 view .LVU1626
 6931 003e 0221     		movs	r1, #2
 6932 0040 0291     		str	r1, [sp, #8]
1188:Core/Src/main.c ****   RCC_ClkInitStruct.APB1CLKDivider = RCC_HCLK_DIV2;
 6933              		.loc 1 1188 3 is_stmt 1 view .LVU1627
1188:Core/Src/main.c ****   RCC_ClkInitStruct.APB1CLKDivider = RCC_HCLK_DIV2;
 6934              		.loc 1 1188 35 is_stmt 0 view .LVU1628
 6935 0042 0023     		movs	r3, #0
 6936 0044 0393     		str	r3, [sp, #12]
1189:Core/Src/main.c ****   RCC_ClkInitStruct.APB2CLKDivider = RCC_HCLK_DIV1;
 6937              		.loc 1 1189 3 is_stmt 1 view .LVU1629
1189:Core/Src/main.c ****   RCC_ClkInitStruct.APB2CLKDivider = RCC_HCLK_DIV1;
 6938              		.loc 1 1189 36 is_stmt 0 view .LVU1630
 6939 0046 4FF48062 		mov	r2, #1024
 6940 004a 0492     		str	r2, [sp, #16]
ARM GAS  C:\Users\86183\AppData\Local\Temp\ccaDF7Ye.s 			page 160


1190:Core/Src/main.c **** 
 6941              		.loc 1 1190 3 is_stmt 1 view .LVU1631
1190:Core/Src/main.c **** 
 6942              		.loc 1 1190 36 is_stmt 0 view .LVU1632
 6943 004c 0593     		str	r3, [sp, #20]
1192:Core/Src/main.c ****   {
 6944              		.loc 1 1192 3 is_stmt 1 view .LVU1633
1192:Core/Src/main.c ****   {
 6945              		.loc 1 1192 7 is_stmt 0 view .LVU1634
 6946 004e 01A8     		add	r0, sp, #4
 6947 0050 FFF7FEFF 		bl	HAL_RCC_ClockConfig
 6948              	.LVL975:
1192:Core/Src/main.c ****   {
 6949              		.loc 1 1192 6 view .LVU1635
 6950 0054 20B9     		cbnz	r0, .L413
1196:Core/Src/main.c **** 
 6951              		.loc 1 1196 1 view .LVU1636
 6952 0056 11B0     		add	sp, sp, #68
 6953              	.LCFI49:
 6954              		.cfi_remember_state
 6955              		.cfi_def_cfa_offset 4
 6956              		@ sp needed
 6957 0058 5DF804FB 		ldr	pc, [sp], #4
 6958              	.L412:
 6959              	.LCFI50:
 6960              		.cfi_restore_state
1182:Core/Src/main.c ****   }
 6961              		.loc 1 1182 5 is_stmt 1 view .LVU1637
 6962 005c FFF7FEFF 		bl	Error_Handler
 6963              	.LVL976:
 6964              	.L413:
1194:Core/Src/main.c ****   }
 6965              		.loc 1 1194 5 view .LVU1638
 6966 0060 FFF7FEFF 		bl	Error_Handler
 6967              	.LVL977:
 6968              		.cfi_endproc
 6969              	.LFE93:
 6971              		.section	.text.main,"ax",%progbits
 6972              		.align	1
 6973              		.global	main
 6974              		.syntax unified
 6975              		.thumb
 6976              		.thumb_func
 6977              		.fpu softvfp
 6979              	main:
 6980              	.LFB92:
1051:Core/Src/main.c ****   /* USER CODE BEGIN 1 */
 6981              		.loc 1 1051 1 view -0
 6982              		.cfi_startproc
 6983              		@ args = 0, pretend = 0, frame = 0
 6984              		@ frame_needed = 0, uses_anonymous_args = 0
 6985 0000 10B5     		push	{r4, lr}
 6986              	.LCFI51:
 6987              		.cfi_def_cfa_offset 8
 6988              		.cfi_offset 4, -8
 6989              		.cfi_offset 14, -4
1059:Core/Src/main.c **** 
ARM GAS  C:\Users\86183\AppData\Local\Temp\ccaDF7Ye.s 			page 161


 6990              		.loc 1 1059 3 view .LVU1640
 6991 0002 FFF7FEFF 		bl	HAL_Init
 6992              	.LVL978:
1066:Core/Src/main.c **** 
 6993              		.loc 1 1066 3 view .LVU1641
 6994 0006 FFF7FEFF 		bl	SystemClock_Config
 6995              	.LVL979:
1073:Core/Src/main.c ****   MX_TIM1_Init();
 6996              		.loc 1 1073 3 view .LVU1642
 6997 000a FFF7FEFF 		bl	MX_GPIO_Init
 6998              	.LVL980:
1074:Core/Src/main.c ****   MX_TIM2_Init();
 6999              		.loc 1 1074 3 view .LVU1643
 7000 000e FFF7FEFF 		bl	MX_TIM1_Init
 7001              	.LVL981:
1075:Core/Src/main.c ****   MX_TIM3_Init();
 7002              		.loc 1 1075 3 view .LVU1644
 7003 0012 FFF7FEFF 		bl	MX_TIM2_Init
 7004              	.LVL982:
1076:Core/Src/main.c ****   MX_TIM4_Init();
 7005              		.loc 1 1076 3 view .LVU1645
 7006 0016 FFF7FEFF 		bl	MX_TIM3_Init
 7007              	.LVL983:
1077:Core/Src/main.c ****   MX_TIM5_Init();
 7008              		.loc 1 1077 3 view .LVU1646
 7009 001a FFF7FEFF 		bl	MX_TIM4_Init
 7010              	.LVL984:
1078:Core/Src/main.c ****   MX_TIM8_Init();
 7011              		.loc 1 1078 3 view .LVU1647
 7012 001e FFF7FEFF 		bl	MX_TIM5_Init
 7013              	.LVL985:
1079:Core/Src/main.c ****   MX_DMA_Init();
 7014              		.loc 1 1079 3 view .LVU1648
 7015 0022 FFF7FEFF 		bl	MX_TIM8_Init
 7016              	.LVL986:
1080:Core/Src/main.c ****   MX_USART3_UART_Init();
 7017              		.loc 1 1080 3 view .LVU1649
 7018 0026 FFF7FEFF 		bl	MX_DMA_Init
 7019              	.LVL987:
1081:Core/Src/main.c ****   MX_USART2_UART_Init();
 7020              		.loc 1 1081 3 view .LVU1650
 7021 002a FFF7FEFF 		bl	MX_USART3_UART_Init
 7022              	.LVL988:
1082:Core/Src/main.c ****   /* USER CODE BEGIN 2 */
 7023              		.loc 1 1082 3 view .LVU1651
 7024 002e FFF7FEFF 		bl	MX_USART2_UART_Init
 7025              	.LVL989:
1084:Core/Src/main.c ****   HAL_TIM_PWM_Start(&htim1, TIM_CHANNEL_1);
 7026              		.loc 1 1084 3 view .LVU1652
 7027 0032 4948     		ldr	r0, .L434
 7028 0034 FFF7FEFF 		bl	HAL_TIM_Base_Start_IT
 7029              	.LVL990:
1085:Core/Src/main.c ****   HAL_TIM_PWM_Start(&htim1, TIM_CHANNEL_2);
 7030              		.loc 1 1085 3 view .LVU1653
 7031 0038 484C     		ldr	r4, .L434+4
 7032 003a 0021     		movs	r1, #0
 7033 003c 2046     		mov	r0, r4
ARM GAS  C:\Users\86183\AppData\Local\Temp\ccaDF7Ye.s 			page 162


 7034 003e FFF7FEFF 		bl	HAL_TIM_PWM_Start
 7035              	.LVL991:
1086:Core/Src/main.c ****   HAL_TIM_PWM_Start(&htim1, TIM_CHANNEL_3);
 7036              		.loc 1 1086 3 view .LVU1654
 7037 0042 0421     		movs	r1, #4
 7038 0044 2046     		mov	r0, r4
 7039 0046 FFF7FEFF 		bl	HAL_TIM_PWM_Start
 7040              	.LVL992:
1087:Core/Src/main.c ****   HAL_TIM_PWM_Start(&htim1, TIM_CHANNEL_4);
 7041              		.loc 1 1087 3 view .LVU1655
 7042 004a 0821     		movs	r1, #8
 7043 004c 2046     		mov	r0, r4
 7044 004e FFF7FEFF 		bl	HAL_TIM_PWM_Start
 7045              	.LVL993:
1088:Core/Src/main.c ****   HAL_TIM_Encoder_Start(&htim3, TIM_CHANNEL_ALL);
 7046              		.loc 1 1088 3 view .LVU1656
 7047 0052 0C21     		movs	r1, #12
 7048 0054 2046     		mov	r0, r4
 7049 0056 FFF7FEFF 		bl	HAL_TIM_PWM_Start
 7050              	.LVL994:
1089:Core/Src/main.c ****   HAL_TIM_Encoder_Start(&htim4, TIM_CHANNEL_ALL);
 7051              		.loc 1 1089 3 view .LVU1657
 7052 005a 3C21     		movs	r1, #60
 7053 005c 4048     		ldr	r0, .L434+8
 7054 005e FFF7FEFF 		bl	HAL_TIM_Encoder_Start
 7055              	.LVL995:
1090:Core/Src/main.c ****   HAL_TIM_Encoder_Start(&htim5, TIM_CHANNEL_ALL);
 7056              		.loc 1 1090 3 view .LVU1658
 7057 0062 3C21     		movs	r1, #60
 7058 0064 3F48     		ldr	r0, .L434+12
 7059 0066 FFF7FEFF 		bl	HAL_TIM_Encoder_Start
 7060              	.LVL996:
1091:Core/Src/main.c ****   HAL_TIM_Encoder_Start(&htim8, TIM_CHANNEL_ALL);
 7061              		.loc 1 1091 3 view .LVU1659
 7062 006a 3C21     		movs	r1, #60
 7063 006c 3E48     		ldr	r0, .L434+16
 7064 006e FFF7FEFF 		bl	HAL_TIM_Encoder_Start
 7065              	.LVL997:
1092:Core/Src/main.c ****   HAL_Delay(500);
 7066              		.loc 1 1092 3 view .LVU1660
 7067 0072 3C21     		movs	r1, #60
 7068 0074 3D48     		ldr	r0, .L434+20
 7069 0076 FFF7FEFF 		bl	HAL_TIM_Encoder_Start
 7070              	.LVL998:
1093:Core/Src/main.c ****   jy62_Init(&huart2);
 7071              		.loc 1 1093 3 view .LVU1661
 7072 007a 4FF4FA70 		mov	r0, #500
 7073 007e FFF7FEFF 		bl	HAL_Delay
 7074              	.LVL999:
1094:Core/Src/main.c ****   zigbee_Init(&huart3);
 7075              		.loc 1 1094 3 view .LVU1662
 7076 0082 3B48     		ldr	r0, .L434+24
 7077 0084 FFF7FEFF 		bl	jy62_Init
 7078              	.LVL1000:
1095:Core/Src/main.c ****   Calibrate_Angle();
 7079              		.loc 1 1095 3 view .LVU1663
 7080 0088 3A48     		ldr	r0, .L434+28
ARM GAS  C:\Users\86183\AppData\Local\Temp\ccaDF7Ye.s 			page 163


 7081 008a FFF7FEFF 		bl	zigbee_Init
 7082              	.LVL1001:
1096:Core/Src/main.c ****   /* USER CODE END 2 */
 7083              		.loc 1 1096 3 view .LVU1664
 7084 008e FFF7FEFF 		bl	Calibrate_Angle
 7085              	.LVL1002:
 7086 0092 07E0     		b	.L426
 7087              	.LVL1003:
 7088              	.L415:
 7089              	.LBB55:
1111:Core/Src/main.c ****       Set_RF_Direction(0);
 7090              		.loc 1 1111 7 view .LVU1665
 7091 0094 0020     		movs	r0, #0
 7092              	.LVL1004:
1111:Core/Src/main.c ****       Set_RF_Direction(0);
 7093              		.loc 1 1111 7 is_stmt 0 view .LVU1666
 7094 0096 FFF7FEFF 		bl	Set_LF_Direction
 7095              	.LVL1005:
1112:Core/Src/main.c ****     }
 7096              		.loc 1 1112 7 is_stmt 1 view .LVU1667
 7097 009a 0020     		movs	r0, #0
 7098 009c FFF7FEFF 		bl	Set_RF_Direction
 7099              	.LVL1006:
 7100              	.L424:
1115:Core/Src/main.c ****     {
 7101              		.loc 1 1115 11 view .LVU1668
 7102 00a0 012C     		cmp	r4, #1
 7103 00a2 09D0     		beq	.L429
 7104              	.LVL1007:
 7105              	.L426:
1115:Core/Src/main.c ****     {
 7106              		.loc 1 1115 11 is_stmt 0 view .LVU1669
 7107              	.LBE55:
1101:Core/Src/main.c ****   {
 7108              		.loc 1 1101 3 is_stmt 1 view .LVU1670
 7109              	.LBB58:
1107:Core/Src/main.c **** 
 7110              		.loc 1 1107 5 view .LVU1671
1107:Core/Src/main.c **** 
 7111              		.loc 1 1107 25 is_stmt 0 view .LVU1672
 7112 00a4 FFF7FEFF 		bl	getGameState
 7113              	.LVL1008:
1109:Core/Src/main.c ****     {
 7114              		.loc 1 1109 5 is_stmt 1 view .LVU1673
1109:Core/Src/main.c ****     {
 7115              		.loc 1 1109 8 is_stmt 0 view .LVU1674
 7116 00a8 0446     		mov	r4, r0
 7117 00aa 0028     		cmp	r0, #0
 7118 00ac F2D0     		beq	.L415
1109:Core/Src/main.c ****     {
 7119              		.loc 1 1109 24 discriminator 1 view .LVU1675
 7120 00ae 0228     		cmp	r0, #2
 7121 00b0 F0D0     		beq	.L415
1109:Core/Src/main.c ****     {
 7122              		.loc 1 1109 42 discriminator 2 view .LVU1676
 7123 00b2 0328     		cmp	r0, #3
 7124 00b4 F4D1     		bne	.L424
ARM GAS  C:\Users\86183\AppData\Local\Temp\ccaDF7Ye.s 			page 164


 7125 00b6 EDE7     		b	.L415
 7126              	.LVL1009:
 7127              	.L429:
 7128              	.LBB56:
1117:Core/Src/main.c ****       if (ROUND == 0)
 7129              		.loc 1 1117 7 is_stmt 1 view .LVU1677
1117:Core/Src/main.c ****       if (ROUND == 0)
 7130              		.loc 1 1117 23 is_stmt 0 view .LVU1678
 7131 00b8 FFF7FEFF 		bl	getCarTask
 7132              	.LVL1010:
1118:Core/Src/main.c ****       {
 7133              		.loc 1 1118 7 is_stmt 1 view .LVU1679
1118:Core/Src/main.c ****       {
 7134              		.loc 1 1118 10 is_stmt 0 view .LVU1680
 7135 00bc 10F0FF04 		ands	r4, r0, #255
 7136              	.LVL1011:
1118:Core/Src/main.c ****       {
 7137              		.loc 1 1118 10 view .LVU1681
 7138 00c0 05D0     		beq	.L430
 7139              	.LVL1012:
 7140              	.L417:
1123:Core/Src/main.c ****       {
 7141              		.loc 1 1123 7 is_stmt 1 view .LVU1682
1123:Core/Src/main.c ****       {
 7142              		.loc 1 1123 10 is_stmt 0 view .LVU1683
 7143 00c2 012C     		cmp	r4, #1
 7144 00c4 06D0     		beq	.L431
 7145              	.L418:
1155:Core/Src/main.c ****     }
 7146              		.loc 1 1155 7 is_stmt 1 view .LVU1684
1155:Core/Src/main.c ****     }
 7147              		.loc 1 1155 19 is_stmt 0 view .LVU1685
 7148 00c6 FFF7FEFF 		bl	getGameState
 7149              	.LVL1013:
 7150 00ca 0446     		mov	r4, r0
 7151              	.LVL1014:
1155:Core/Src/main.c ****     }
 7152              		.loc 1 1155 19 view .LVU1686
 7153 00cc E8E7     		b	.L424
 7154              	.LVL1015:
 7155              	.L430:
1120:Core/Src/main.c ****       }
 7156              		.loc 1 1120 9 is_stmt 1 view .LVU1687
 7157 00ce FFF7FEFF 		bl	Round0
 7158              	.LVL1016:
1120:Core/Src/main.c ****       }
 7159              		.loc 1 1120 9 is_stmt 0 view .LVU1688
 7160 00d2 F6E7     		b	.L417
 7161              	.L431:
 7162              	.LBB57:
1125:Core/Src/main.c ****         if (!isInitialMinePark)
 7163              		.loc 1 1125 9 is_stmt 1 view .LVU1689
1126:Core/Src/main.c ****         {
 7164              		.loc 1 1126 9 view .LVU1690
1126:Core/Src/main.c ****         {
 7165              		.loc 1 1126 13 is_stmt 0 view .LVU1691
 7166 00d4 284B     		ldr	r3, .L434+32
ARM GAS  C:\Users\86183\AppData\Local\Temp\ccaDF7Ye.s 			page 165


 7167 00d6 1B78     		ldrb	r3, [r3]	@ zero_extendqisi2
1126:Core/Src/main.c ****         {
 7168              		.loc 1 1126 12 view .LVU1692
 7169 00d8 73B1     		cbz	r3, .L432
 7170              	.L419:
1133:Core/Src/main.c ****           STATE = (uint8_t)PUT_PACKAGE;
 7171              		.loc 1 1133 9 is_stmt 1 view .LVU1693
1133:Core/Src/main.c ****           STATE = (uint8_t)PUT_PACKAGE;
 7172              		.loc 1 1133 13 is_stmt 0 view .LVU1694
 7173 00da FFF7FEFF 		bl	getGameTime
 7174              	.LVL1017:
1133:Core/Src/main.c ****           STATE = (uint8_t)PUT_PACKAGE;
 7175              		.loc 1 1133 12 view .LVU1695
 7176 00de 40F2B633 		movw	r3, #950
 7177 00e2 9842     		cmp	r0, r3
 7178 00e4 11D8     		bhi	.L433
 7179              	.L420:
1136:Core/Src/main.c ****         {
 7180              		.loc 1 1136 9 is_stmt 1 view .LVU1696
 7181 00e6 254B     		ldr	r3, .L434+36
 7182 00e8 1B78     		ldrb	r3, [r3]	@ zero_extendqisi2
 7183 00ea B3B1     		cbz	r3, .L421
 7184 00ec 012B     		cmp	r3, #1
 7185 00ee 1ED0     		beq	.L422
1151:Core/Src/main.c ****           break;
 7186              		.loc 1 1151 11 view .LVU1697
1151:Core/Src/main.c ****           break;
 7187              		.loc 1 1151 17 is_stmt 0 view .LVU1698
 7188 00f0 224B     		ldr	r3, .L434+36
 7189 00f2 0022     		movs	r2, #0
 7190 00f4 1A70     		strb	r2, [r3]
1152:Core/Src/main.c ****         }
 7191              		.loc 1 1152 11 is_stmt 1 view .LVU1699
 7192 00f6 E6E7     		b	.L418
 7193              	.L432:
1128:Core/Src/main.c ****           isInitialMinePark = 1;
 7194              		.loc 1 1128 11 view .LVU1700
 7195 00f8 FFF7FEFF 		bl	initialParkMineType
 7196              	.LVL1018:
1129:Core/Src/main.c ****           STATE = (uint8_t)GET_PACKAGE;
 7197              		.loc 1 1129 11 view .LVU1701
1129:Core/Src/main.c ****           STATE = (uint8_t)GET_PACKAGE;
 7198              		.loc 1 1129 29 is_stmt 0 view .LVU1702
 7199 00fc 1E4B     		ldr	r3, .L434+32
 7200 00fe 0122     		movs	r2, #1
 7201 0100 1A70     		strb	r2, [r3]
1130:Core/Src/main.c ****         }
 7202              		.loc 1 1130 11 is_stmt 1 view .LVU1703
1130:Core/Src/main.c ****         }
 7203              		.loc 1 1130 17 is_stmt 0 view .LVU1704
 7204 0102 1E4B     		ldr	r3, .L434+36
 7205 0104 0022     		movs	r2, #0
 7206 0106 1A70     		strb	r2, [r3]
 7207 0108 E7E7     		b	.L419
 7208              	.L433:
1133:Core/Src/main.c ****           STATE = (uint8_t)PUT_PACKAGE;
 7209              		.loc 1 1133 36 discriminator 1 view .LVU1705
ARM GAS  C:\Users\86183\AppData\Local\Temp\ccaDF7Ye.s 			page 166


 7210 010a FFF7FEFF 		bl	getCarMineSumNum
 7211              	.LVL1019:
1133:Core/Src/main.c ****           STATE = (uint8_t)PUT_PACKAGE;
 7212              		.loc 1 1133 33 discriminator 1 view .LVU1706
 7213 010e 0028     		cmp	r0, #0
 7214 0110 E9D0     		beq	.L420
1134:Core/Src/main.c **** 
 7215              		.loc 1 1134 11 is_stmt 1 view .LVU1707
1134:Core/Src/main.c **** 
 7216              		.loc 1 1134 17 is_stmt 0 view .LVU1708
 7217 0112 1A4B     		ldr	r3, .L434+36
 7218 0114 0122     		movs	r2, #1
 7219 0116 1A70     		strb	r2, [r3]
 7220 0118 E5E7     		b	.L420
 7221              	.L421:
1139:Core/Src/main.c ****           if (getCarMineSumNum() > 8)
 7222              		.loc 1 1139 11 is_stmt 1 view .LVU1709
 7223 011a FFF7FEFF 		bl	getPackage
 7224              	.LVL1020:
1140:Core/Src/main.c ****             STATE = (uint8_t)PUT_PACKAGE;
 7225              		.loc 1 1140 11 view .LVU1710
1140:Core/Src/main.c ****             STATE = (uint8_t)PUT_PACKAGE;
 7226              		.loc 1 1140 15 is_stmt 0 view .LVU1711
 7227 011e FFF7FEFF 		bl	getCarMineSumNum
 7228              	.LVL1021:
1140:Core/Src/main.c ****             STATE = (uint8_t)PUT_PACKAGE;
 7229              		.loc 1 1140 14 view .LVU1712
 7230 0122 0828     		cmp	r0, #8
 7231 0124 CFD9     		bls	.L418
1141:Core/Src/main.c ****           break;
 7232              		.loc 1 1141 13 is_stmt 1 view .LVU1713
1141:Core/Src/main.c ****           break;
 7233              		.loc 1 1141 19 is_stmt 0 view .LVU1714
 7234 0126 154B     		ldr	r3, .L434+36
 7235 0128 0122     		movs	r2, #1
 7236 012a 1A70     		strb	r2, [r3]
 7237 012c CBE7     		b	.L418
 7238              	.L422:
1145:Core/Src/main.c ****           MoveTo(Park[m].x, Park[m].y, Park[m].mineType);
 7239              		.loc 1 1145 11 is_stmt 1 view .LVU1715
1145:Core/Src/main.c ****           MoveTo(Park[m].x, Park[m].y, Park[m].mineType);
 7240              		.loc 1 1145 15 is_stmt 0 view .LVU1716
 7241 012e FFF7FEFF 		bl	curMostMineType
 7242              	.LVL1022:
 7243 0132 FFF7FEFF 		bl	getNearestPark
 7244              	.LVL1023:
1146:Core/Src/main.c ****           STATE = (uint8_t)GET_PACKAGE;
 7245              		.loc 1 1146 11 is_stmt 1 view .LVU1717
 7246 0136 124C     		ldr	r4, .L434+40
 7247 0138 00EB4003 		add	r3, r0, r0, lsl #1
 7248 013c 04EB8303 		add	r3, r4, r3, lsl #2
 7249 0140 00EB4000 		add	r0, r0, r0, lsl #1
 7250              	.LVL1024:
1146:Core/Src/main.c ****           STATE = (uint8_t)GET_PACKAGE;
 7251              		.loc 1 1146 11 is_stmt 0 view .LVU1718
 7252 0144 1A89     		ldrh	r2, [r3, #8]
 7253 0146 5968     		ldr	r1, [r3, #4]	@ float
ARM GAS  C:\Users\86183\AppData\Local\Temp\ccaDF7Ye.s 			page 167


 7254 0148 54F82000 		ldr	r0, [r4, r0, lsl #2]	@ float
 7255 014c FFF7FEFF 		bl	MoveTo
 7256              	.LVL1025:
1147:Core/Src/main.c ****           break;
 7257              		.loc 1 1147 11 is_stmt 1 view .LVU1719
1147:Core/Src/main.c ****           break;
 7258              		.loc 1 1147 17 is_stmt 0 view .LVU1720
 7259 0150 0A4B     		ldr	r3, .L434+36
 7260 0152 0022     		movs	r2, #0
 7261 0154 1A70     		strb	r2, [r3]
1148:Core/Src/main.c **** 
 7262              		.loc 1 1148 11 is_stmt 1 view .LVU1721
 7263 0156 B6E7     		b	.L418
 7264              	.L435:
 7265              		.align	2
 7266              	.L434:
 7267 0158 00000000 		.word	htim2
 7268 015c 00000000 		.word	htim1
 7269 0160 00000000 		.word	htim3
 7270 0164 00000000 		.word	htim4
 7271 0168 00000000 		.word	htim5
 7272 016c 00000000 		.word	htim8
 7273 0170 00000000 		.word	huart2
 7274 0174 00000000 		.word	huart3
 7275 0178 00000000 		.word	.LANCHOR20
 7276 017c 00000000 		.word	.LANCHOR18
 7277 0180 00000000 		.word	.LANCHOR17
 7278              	.LBE57:
 7279              	.LBE56:
 7280              	.LBE58:
 7281              		.cfi_endproc
 7282              	.LFE92:
 7284              		.global	Park
 7285              		.global	RivalBeaconNum
 7286              		.global	RivalBeacon
 7287              		.global	surveyDataCount
 7288              		.global	surveyData
 7289              		.global	absoluteAngle
 7290              		.global	angle0
 7291              		.global	isInitialMinePark
 7292              		.global	STATE
 7293              		.global	BeaconDir
 7294              		.global	distance
 7295              		.global	isPackageValid
 7296              		.global	target
 7297              		.global	pid
 7298              		.global	Kd
 7299              		.global	Ki
 7300              		.global	Kp
 7301              		.global	pre_err
 7302              		.global	INTEGRAL
 7303              		.global	packageY
 7304              		.global	packageX
 7305              		.section	.rodata
 7306              		.align	2
 7307              		.set	.LANCHOR19,. + 0
 7308              	.LC0:
ARM GAS  C:\Users\86183\AppData\Local\Temp\ccaDF7Ye.s 			page 168


 7309 0000 00004D43 		.word	1129119744
 7310 0004 00004842 		.word	1112014848
 7311 0008 00000043 		.word	1124073472
 7312 000c 00004D43 		.word	1129119744
 7313 0010 00000000 		.word	0
 7314 0014 00000000 		.word	0
 7315 0018 00000000 		.word	0
 7316 001c 00000000 		.word	0
 7317              		.section	.bss.INTEGRAL,"aw",%nobits
 7318              		.align	2
 7319              		.set	.LANCHOR1,. + 0
 7322              	INTEGRAL:
 7323 0000 00000000 		.space	16
 7323      00000000 
 7323      00000000 
 7323      00000000 
 7324              		.section	.bss.RivalBeacon,"aw",%nobits
 7325              		.align	2
 7326              		.set	.LANCHOR10,. + 0
 7329              	RivalBeacon:
 7330 0000 00000000 		.space	36
 7330      00000000 
 7330      00000000 
 7330      00000000 
 7330      00000000 
 7331              		.section	.bss.RivalBeaconNum,"aw",%nobits
 7332              		.align	2
 7333              		.set	.LANCHOR11,. + 0
 7336              	RivalBeaconNum:
 7337 0000 00000000 		.space	4
 7338              		.section	.bss.STATE,"aw",%nobits
 7339              		.set	.LANCHOR18,. + 0
 7342              	STATE:
 7343 0000 00       		.space	1
 7344              		.section	.bss.absoluteAngle,"aw",%nobits
 7345              		.align	2
 7346              		.set	.LANCHOR8,. + 0
 7349              	absoluteAngle:
 7350 0000 00000000 		.space	4
 7351              		.section	.bss.angle0,"aw",%nobits
 7352              		.align	2
 7353              		.set	.LANCHOR7,. + 0
 7356              	angle0:
 7357 0000 00000000 		.space	4
 7358              		.section	.bss.distance,"aw",%nobits
 7359              		.align	2
 7360              		.set	.LANCHOR0,. + 0
 7363              	distance:
 7364 0000 00000000 		.space	4
 7365              		.section	.bss.isInitialMinePark,"aw",%nobits
 7366              		.set	.LANCHOR20,. + 0
 7369              	isInitialMinePark:
 7370 0000 00       		.space	1
 7371              		.section	.bss.isPackageValid,"aw",%nobits
 7372              		.align	2
 7373              		.set	.LANCHOR15,. + 0
 7376              	isPackageValid:
ARM GAS  C:\Users\86183\AppData\Local\Temp\ccaDF7Ye.s 			page 169


 7377 0000 00000000 		.space	8
 7377      00000000 
 7378              		.section	.bss.packageX,"aw",%nobits
 7379              		.align	2
 7380              		.set	.LANCHOR13,. + 0
 7383              	packageX:
 7384 0000 00000000 		.space	8
 7384      00000000 
 7385              		.section	.bss.packageY,"aw",%nobits
 7386              		.align	2
 7387              		.set	.LANCHOR14,. + 0
 7390              	packageY:
 7391 0000 00000000 		.space	8
 7391      00000000 
 7392              		.section	.bss.pid,"aw",%nobits
 7393              		.align	2
 7394              		.set	.LANCHOR6,. + 0
 7397              	pid:
 7398 0000 00000000 		.space	16
 7398      00000000 
 7398      00000000 
 7398      00000000 
 7399              		.section	.bss.pre_err,"aw",%nobits
 7400              		.align	2
 7401              		.set	.LANCHOR2,. + 0
 7404              	pre_err:
 7405 0000 00000000 		.space	16
 7405      00000000 
 7405      00000000 
 7405      00000000 
 7406              		.section	.bss.surveyData,"aw",%nobits
 7407              		.align	2
 7408              		.set	.LANCHOR12,. + 0
 7411              	surveyData:
 7412 0000 00000000 		.space	72
 7412      00000000 
 7412      00000000 
 7412      00000000 
 7412      00000000 
 7413              		.section	.bss.surveyDataCount,"aw",%nobits
 7414              		.align	2
 7415              		.set	.LANCHOR16,. + 0
 7418              	surveyDataCount:
 7419 0000 00000000 		.space	8
 7419      00000000 
 7420              		.section	.bss.target,"aw",%nobits
 7421              		.align	2
 7422              		.set	.LANCHOR9,. + 0
 7425              	target:
 7426 0000 00000000 		.space	16
 7426      00000000 
 7426      00000000 
 7426      00000000 
 7427              		.section	.data.BeaconDir,"aw"
 7428              		.align	2
 7431              	BeaconDir:
 7432 0000 00008042 		.word	1115684864
ARM GAS  C:\Users\86183\AppData\Local\Temp\ccaDF7Ye.s 			page 170


 7433 0004 00008042 		.word	1115684864
 7434 0008 00004043 		.word	1128267776
 7435 000c 00008042 		.word	1115684864
 7436 0010 00000043 		.word	1124073472
 7437 0014 00003E43 		.word	1128136704
 7438              		.section	.data.Park,"aw"
 7439              		.align	2
 7440              		.set	.LANCHOR17,. + 0
 7443              	Park:
 7444 0000 00007041 		.word	1097859072
 7445 0004 00007041 		.word	1097859072
 7446 0008 0000     		.short	0
 7447 000a 0000     		.space	2
 7448 000c 0000FE42 		.word	1123942400
 7449 0010 00007041 		.word	1097859072
 7450 0014 0000     		.short	0
 7451 0016 0000     		.space	2
 7452 0018 00006F43 		.word	1131347968
 7453 001c 00007041 		.word	1097859072
 7454 0020 0000     		.short	0
 7455 0022 0000     		.space	2
 7456 0024 00006F43 		.word	1131347968
 7457 0028 0000FE42 		.word	1123942400
 7458 002c 0000     		.short	0
 7459 002e 0000     		.space	2
 7460 0030 00006F43 		.word	1131347968
 7461 0034 00006F43 		.word	1131347968
 7462 0038 0000     		.short	0
 7463 003a 0000     		.space	2
 7464 003c 0000FE42 		.word	1123942400
 7465 0040 00006F43 		.word	1131347968
 7466 0044 0000     		.short	0
 7467 0046 0000     		.space	2
 7468 0048 00007041 		.word	1097859072
 7469 004c 00006F43 		.word	1131347968
 7470 0050 0000     		.short	0
 7471 0052 0000     		.space	2
 7472 0054 00007041 		.word	1097859072
 7473 0058 0000FE42 		.word	1123942400
 7474 005c 0000     		.short	0
 7475 005e 0000     		.space	2
 7476 0060 00000000 		.word	0
 7477 0064 00000000 		.word	0
 7478 0068 0000     		.short	0
 7479 006a 0000     		.space	2
 7480 006c 00000000 		.word	0
 7481 0070 00000000 		.word	0
 7482 0074 0000     		.short	0
 7483 0076 0000     		.space	2
 7484 0078 00000000 		.word	0
 7485 007c 00000000 		.word	0
 7486 0080 0000     		.short	0
 7487 0082 0000     		.space	2
 7488 0084 00000000 		.space	48
 7488      00000000 
 7488      00000000 
 7488      00000000 
ARM GAS  C:\Users\86183\AppData\Local\Temp\ccaDF7Ye.s 			page 171


 7488      00000000 
 7489              		.section	.rodata.Kd,"a"
 7490              		.align	2
 7491              		.set	.LANCHOR5,. + 0
 7494              	Kd:
 7495 0000 0000C842 		.word	1120403456
 7496 0004 0000C842 		.word	1120403456
 7497 0008 0000C842 		.word	1120403456
 7498 000c 0000C842 		.word	1120403456
 7499              		.section	.rodata.Ki,"a"
 7500              		.align	2
 7501              		.set	.LANCHOR4,. + 0
 7504              	Ki:
 7505 0000 CDCC4C3E 		.word	1045220557
 7506 0004 CDCC4C3E 		.word	1045220557
 7507 0008 CDCC4C3E 		.word	1045220557
 7508 000c CDCC4C3E 		.word	1045220557
 7509              		.section	.rodata.Kp,"a"
 7510              		.align	2
 7511              		.set	.LANCHOR3,. + 0
 7514              	Kp:
 7515 0000 00002042 		.word	1109393408
 7516 0004 00002042 		.word	1109393408
 7517 0008 00002042 		.word	1109393408
 7518 000c 00002042 		.word	1109393408
 7519              		.text
 7520              	.Letext0:
 7521              		.file 3 "d:\\gnu arm embedded toolchain10\\10 2021.07\\arm-none-eabi\\include\\machine\\_default_t
 7522              		.file 4 "d:\\gnu arm embedded toolchain10\\10 2021.07\\arm-none-eabi\\include\\sys\\_stdint.h"
 7523              		.file 5 "Drivers/CMSIS/Device/ST/STM32F1xx/Include/stm32f103xe.h"
 7524              		.file 6 "Drivers/CMSIS/Device/ST/STM32F1xx/Include/stm32f1xx.h"
 7525              		.file 7 "Drivers/STM32F1xx_HAL_Driver/Inc/stm32f1xx_hal_def.h"
 7526              		.file 8 "Drivers/STM32F1xx_HAL_Driver/Inc/stm32f1xx_hal_rcc.h"
 7527              		.file 9 "Drivers/STM32F1xx_HAL_Driver/Inc/stm32f1xx_hal_rcc_ex.h"
 7528              		.file 10 "Drivers/STM32F1xx_HAL_Driver/Inc/stm32f1xx_hal_dma.h"
 7529              		.file 11 "Drivers/STM32F1xx_HAL_Driver/Inc/stm32f1xx_hal_tim.h"
 7530              		.file 12 "Drivers/STM32F1xx_HAL_Driver/Inc/stm32f1xx_hal_uart.h"
 7531              		.file 13 "Core/Inc/tim.h"
 7532              		.file 14 "Core/Inc/usart.h"
 7533              		.file 15 "Core/Inc/zigbee.h"
 7534              		.file 16 "Drivers/STM32F1xx_HAL_Driver/Inc/stm32f1xx_hal.h"
 7535              		.file 17 "Core/Inc/gpio.h"
 7536              		.file 18 "Core/Inc/dma.h"
 7537              		.file 19 "Core/Inc/jy62.h"
 7538              		.file 20 "Drivers/STM32F1xx_HAL_Driver/Inc/stm32f1xx_hal_gpio.h"
 7539              		.file 21 "d:\\gnu arm embedded toolchain10\\10 2021.07\\arm-none-eabi\\include\\math.h"
 7540              		.file 22 "<built-in>"
ARM GAS  C:\Users\86183\AppData\Local\Temp\ccaDF7Ye.s 			page 172


DEFINED SYMBOLS
                            *ABS*:00000000 main.c
C:\Users\86183\AppData\Local\Temp\ccaDF7Ye.s:16     .text.userGetMineNum:00000000 $t
C:\Users\86183\AppData\Local\Temp\ccaDF7Ye.s:24     .text.userGetMineNum:00000000 userGetMineNum
C:\Users\86183\AppData\Local\Temp\ccaDF7Ye.s:95     .text.clearDistance:00000000 $t
C:\Users\86183\AppData\Local\Temp\ccaDF7Ye.s:102    .text.clearDistance:00000000 clearDistance
C:\Users\86183\AppData\Local\Temp\ccaDF7Ye.s:119    .text.clearDistance:00000008 $d
C:\Users\86183\AppData\Local\Temp\ccaDF7Ye.s:124    .text.getDistance:00000000 $t
C:\Users\86183\AppData\Local\Temp\ccaDF7Ye.s:131    .text.getDistance:00000000 getDistance
C:\Users\86183\AppData\Local\Temp\ccaDF7Ye.s:146    .text.getDistance:00000008 $d
C:\Users\86183\AppData\Local\Temp\ccaDF7Ye.s:157    .text.PID:00000000 $t
C:\Users\86183\AppData\Local\Temp\ccaDF7Ye.s:164    .text.PID:00000000 PID
C:\Users\86183\AppData\Local\Temp\ccaDF7Ye.s:305    .text.PID:000000ac $d
C:\Users\86183\AppData\Local\Temp\ccaDF7Ye.s:318    .text.Calibrate_Angle:00000000 $t
C:\Users\86183\AppData\Local\Temp\ccaDF7Ye.s:325    .text.Calibrate_Angle:00000000 Calibrate_Angle
C:\Users\86183\AppData\Local\Temp\ccaDF7Ye.s:527    .text.Calibrate_Angle:000000c8 $d
C:\Users\86183\AppData\Local\Temp\ccaDF7Ye.s:537    .text.getAngle:00000000 $t
C:\Users\86183\AppData\Local\Temp\ccaDF7Ye.s:544    .text.getAngle:00000000 getAngle
C:\Users\86183\AppData\Local\Temp\ccaDF7Ye.s:605    .text.getAngle:00000040 $d
C:\Users\86183\AppData\Local\Temp\ccaDF7Ye.s:613    .text.Set_Left_Direction:00000000 $t
C:\Users\86183\AppData\Local\Temp\ccaDF7Ye.s:620    .text.Set_Left_Direction:00000000 Set_Left_Direction
C:\Users\86183\AppData\Local\Temp\ccaDF7Ye.s:735    .text.Set_Left_Direction:000000a4 $d
C:\Users\86183\AppData\Local\Temp\ccaDF7Ye.s:741    .text.Set_Right_Direction:00000000 $t
C:\Users\86183\AppData\Local\Temp\ccaDF7Ye.s:748    .text.Set_Right_Direction:00000000 Set_Right_Direction
C:\Users\86183\AppData\Local\Temp\ccaDF7Ye.s:861    .text.Set_Right_Direction:000000a8 $d
C:\Users\86183\AppData\Local\Temp\ccaDF7Ye.s:868    .text.Set_Speed:00000000 $t
C:\Users\86183\AppData\Local\Temp\ccaDF7Ye.s:875    .text.Set_Speed:00000000 Set_Speed
C:\Users\86183\AppData\Local\Temp\ccaDF7Ye.s:918    .text.Set_Speed:0000001c $d
C:\Users\86183\AppData\Local\Temp\ccaDF7Ye.s:923    .text.Add_Angle:00000000 $t
C:\Users\86183\AppData\Local\Temp\ccaDF7Ye.s:930    .text.Add_Angle:00000000 Add_Angle
C:\Users\86183\AppData\Local\Temp\ccaDF7Ye.s:989    .text.Add_Angle:00000038 $d
C:\Users\86183\AppData\Local\Temp\ccaDF7Ye.s:996    .text.Turn:00000000 $t
C:\Users\86183\AppData\Local\Temp\ccaDF7Ye.s:1003   .text.Turn:00000000 Turn
C:\Users\86183\AppData\Local\Temp\ccaDF7Ye.s:1341   .text.Turn:0000014c $d
C:\Users\86183\AppData\Local\Temp\ccaDF7Ye.s:1358   .text.HAL_TIM_PeriodElapsedCallback:00000000 $t
C:\Users\86183\AppData\Local\Temp\ccaDF7Ye.s:1365   .text.HAL_TIM_PeriodElapsedCallback:00000000 HAL_TIM_PeriodElapsedCallback
C:\Users\86183\AppData\Local\Temp\ccaDF7Ye.s:1763   .text.HAL_TIM_PeriodElapsedCallback:000001f8 $d
C:\Users\86183\AppData\Local\Temp\ccaDF7Ye.s:1787   .text.userGetCarPos:00000000 $t
C:\Users\86183\AppData\Local\Temp\ccaDF7Ye.s:1794   .text.userGetCarPos:00000000 userGetCarPos
C:\Users\86183\AppData\Local\Temp\ccaDF7Ye.s:2293   .text.userGetCarPos:000002cc $d
C:\Users\86183\AppData\Local\Temp\ccaDF7Ye.s:2302   .text.userGetCarPos:000002d4 $t
C:\Users\86183\AppData\Local\Temp\ccaDF7Ye.s:2604   .text.userGetCarPos:00000480 $d
C:\Users\86183\AppData\Local\Temp\ccaDF7Ye.s:2610   .text.surveyGetCarPos:00000000 $t
C:\Users\86183\AppData\Local\Temp\ccaDF7Ye.s:2617   .text.surveyGetCarPos:00000000 surveyGetCarPos
C:\Users\86183\AppData\Local\Temp\ccaDF7Ye.s:3117   .text.surveyGetCarPos:000002cc $d
C:\Users\86183\AppData\Local\Temp\ccaDF7Ye.s:3126   .text.surveyGetCarPos:000002d4 $t
C:\Users\86183\AppData\Local\Temp\ccaDF7Ye.s:3409   .text.surveyGetCarPos:00000460 $d
C:\Users\86183\AppData\Local\Temp\ccaDF7Ye.s:3417   .text.Calculate_Package_Position:00000000 $t
C:\Users\86183\AppData\Local\Temp\ccaDF7Ye.s:3424   .text.Calculate_Package_Position:00000000 Calculate_Package_Position
C:\Users\86183\AppData\Local\Temp\ccaDF7Ye.s:3785   .text.Calculate_Package_Position:00000228 $d
C:\Users\86183\AppData\Local\Temp\ccaDF7Ye.s:3795   .text.survey:00000000 $t
C:\Users\86183\AppData\Local\Temp\ccaDF7Ye.s:3802   .text.survey:00000000 survey
C:\Users\86183\AppData\Local\Temp\ccaDF7Ye.s:4119   .text.survey:000001bc $d
C:\Users\86183\AppData\Local\Temp\ccaDF7Ye.s:4130   .text.getNearestPark:00000000 $t
C:\Users\86183\AppData\Local\Temp\ccaDF7Ye.s:4137   .text.getNearestPark:00000000 getNearestPark
C:\Users\86183\AppData\Local\Temp\ccaDF7Ye.s:4349   .text.getNearestPark:000000e4 $d
C:\Users\86183\AppData\Local\Temp\ccaDF7Ye.s:4355   .text.curMostMineType:00000000 $t
ARM GAS  C:\Users\86183\AppData\Local\Temp\ccaDF7Ye.s 			page 173


C:\Users\86183\AppData\Local\Temp\ccaDF7Ye.s:4362   .text.curMostMineType:00000000 curMostMineType
C:\Users\86183\AppData\Local\Temp\ccaDF7Ye.s:4456   .text.initialParkMineType:00000000 $t
C:\Users\86183\AppData\Local\Temp\ccaDF7Ye.s:4463   .text.initialParkMineType:00000000 initialParkMineType
C:\Users\86183\AppData\Local\Temp\ccaDF7Ye.s:4612   .text.initialParkMineType:000000a4 $d
C:\Users\86183\AppData\Local\Temp\ccaDF7Ye.s:4619   .text.Set_LF_Direction:00000000 $t
C:\Users\86183\AppData\Local\Temp\ccaDF7Ye.s:4626   .text.Set_LF_Direction:00000000 Set_LF_Direction
C:\Users\86183\AppData\Local\Temp\ccaDF7Ye.s:4752   .text.Set_LF_Direction:000000c4 $d
C:\Users\86183\AppData\Local\Temp\ccaDF7Ye.s:4758   .text.Set_RF_Direction:00000000 $t
C:\Users\86183\AppData\Local\Temp\ccaDF7Ye.s:4765   .text.Set_RF_Direction:00000000 Set_RF_Direction
C:\Users\86183\AppData\Local\Temp\ccaDF7Ye.s:4889   .text.Set_RF_Direction:000000b0 $d
C:\Users\86183\AppData\Local\Temp\ccaDF7Ye.s:4897   .text.Move:00000000 $t
C:\Users\86183\AppData\Local\Temp\ccaDF7Ye.s:4904   .text.Move:00000000 Move
C:\Users\86183\AppData\Local\Temp\ccaDF7Ye.s:5092   .text.Move:000000f8 $d
C:\Users\86183\AppData\Local\Temp\ccaDF7Ye.s:5100   .text.SurveyTowards:00000000 $t
C:\Users\86183\AppData\Local\Temp\ccaDF7Ye.s:5107   .text.SurveyTowards:00000000 SurveyTowards
C:\Users\86183\AppData\Local\Temp\ccaDF7Ye.s:5301   .text.SurveyTowards:000000c8 $d
C:\Users\86183\AppData\Local\Temp\ccaDF7Ye.s:5312   .text.MoveTo:00000000 $t
C:\Users\86183\AppData\Local\Temp\ccaDF7Ye.s:5319   .text.MoveTo:00000000 MoveTo
C:\Users\86183\AppData\Local\Temp\ccaDF7Ye.s:5638   .text.MoveTo:00000190 $d
C:\Users\86183\AppData\Local\Temp\ccaDF7Ye.s:5653   .text.MoveTo:000001c4 $t
C:\Users\86183\AppData\Local\Temp\ccaDF7Ye.s:5902   .text.MoveTo:00000330 $d
C:\Users\86183\AppData\Local\Temp\ccaDF7Ye.s:5920   .text.getPackage:00000000 $t
C:\Users\86183\AppData\Local\Temp\ccaDF7Ye.s:5927   .text.getPackage:00000000 getPackage
C:\Users\86183\AppData\Local\Temp\ccaDF7Ye.s:6337   .text.getPackage:00000270 $d
C:\Users\86183\AppData\Local\Temp\ccaDF7Ye.s:6349   .text.getPackage:00000294 $t
C:\Users\86183\AppData\Local\Temp\ccaDF7Ye.s:6525   .text.getPackage:000003c0 $d
C:\Users\86183\AppData\Local\Temp\ccaDF7Ye.s:6536   .text.Set_Beacon:00000000 $t
C:\Users\86183\AppData\Local\Temp\ccaDF7Ye.s:6543   .text.Set_Beacon:00000000 Set_Beacon
C:\Users\86183\AppData\Local\Temp\ccaDF7Ye.s:6588   .text.Set_Beacon:00000038 $d
C:\Users\86183\AppData\Local\Temp\ccaDF7Ye.s:6593   .text.Round0:00000000 $t
C:\Users\86183\AppData\Local\Temp\ccaDF7Ye.s:6600   .text.Round0:00000000 Round0
C:\Users\86183\AppData\Local\Temp\ccaDF7Ye.s:6811   .text.Round0:000000ec $d
C:\Users\86183\AppData\Local\Temp\ccaDF7Ye.s:6821   .text.Error_Handler:00000000 $t
C:\Users\86183\AppData\Local\Temp\ccaDF7Ye.s:6828   .text.Error_Handler:00000000 Error_Handler
C:\Users\86183\AppData\Local\Temp\ccaDF7Ye.s:6860   .text.SystemClock_Config:00000000 $t
C:\Users\86183\AppData\Local\Temp\ccaDF7Ye.s:6867   .text.SystemClock_Config:00000000 SystemClock_Config
C:\Users\86183\AppData\Local\Temp\ccaDF7Ye.s:6972   .text.main:00000000 $t
C:\Users\86183\AppData\Local\Temp\ccaDF7Ye.s:6979   .text.main:00000000 main
C:\Users\86183\AppData\Local\Temp\ccaDF7Ye.s:7267   .text.main:00000158 $d
C:\Users\86183\AppData\Local\Temp\ccaDF7Ye.s:7443   .data.Park:00000000 Park
C:\Users\86183\AppData\Local\Temp\ccaDF7Ye.s:7336   .bss.RivalBeaconNum:00000000 RivalBeaconNum
C:\Users\86183\AppData\Local\Temp\ccaDF7Ye.s:7329   .bss.RivalBeacon:00000000 RivalBeacon
C:\Users\86183\AppData\Local\Temp\ccaDF7Ye.s:7418   .bss.surveyDataCount:00000000 surveyDataCount
C:\Users\86183\AppData\Local\Temp\ccaDF7Ye.s:7411   .bss.surveyData:00000000 surveyData
C:\Users\86183\AppData\Local\Temp\ccaDF7Ye.s:7349   .bss.absoluteAngle:00000000 absoluteAngle
C:\Users\86183\AppData\Local\Temp\ccaDF7Ye.s:7356   .bss.angle0:00000000 angle0
C:\Users\86183\AppData\Local\Temp\ccaDF7Ye.s:7369   .bss.isInitialMinePark:00000000 isInitialMinePark
C:\Users\86183\AppData\Local\Temp\ccaDF7Ye.s:7342   .bss.STATE:00000000 STATE
C:\Users\86183\AppData\Local\Temp\ccaDF7Ye.s:7431   .data.BeaconDir:00000000 BeaconDir
C:\Users\86183\AppData\Local\Temp\ccaDF7Ye.s:7363   .bss.distance:00000000 distance
C:\Users\86183\AppData\Local\Temp\ccaDF7Ye.s:7376   .bss.isPackageValid:00000000 isPackageValid
C:\Users\86183\AppData\Local\Temp\ccaDF7Ye.s:7425   .bss.target:00000000 target
C:\Users\86183\AppData\Local\Temp\ccaDF7Ye.s:7397   .bss.pid:00000000 pid
C:\Users\86183\AppData\Local\Temp\ccaDF7Ye.s:7494   .rodata.Kd:00000000 Kd
C:\Users\86183\AppData\Local\Temp\ccaDF7Ye.s:7504   .rodata.Ki:00000000 Ki
C:\Users\86183\AppData\Local\Temp\ccaDF7Ye.s:7514   .rodata.Kp:00000000 Kp
C:\Users\86183\AppData\Local\Temp\ccaDF7Ye.s:7404   .bss.pre_err:00000000 pre_err
ARM GAS  C:\Users\86183\AppData\Local\Temp\ccaDF7Ye.s 			page 174


C:\Users\86183\AppData\Local\Temp\ccaDF7Ye.s:7322   .bss.INTEGRAL:00000000 INTEGRAL
C:\Users\86183\AppData\Local\Temp\ccaDF7Ye.s:7390   .bss.packageY:00000000 packageY
C:\Users\86183\AppData\Local\Temp\ccaDF7Ye.s:7383   .bss.packageX:00000000 packageX
C:\Users\86183\AppData\Local\Temp\ccaDF7Ye.s:7306   .rodata:00000000 $d
C:\Users\86183\AppData\Local\Temp\ccaDF7Ye.s:7318   .bss.INTEGRAL:00000000 $d
C:\Users\86183\AppData\Local\Temp\ccaDF7Ye.s:7325   .bss.RivalBeacon:00000000 $d
C:\Users\86183\AppData\Local\Temp\ccaDF7Ye.s:7332   .bss.RivalBeaconNum:00000000 $d
C:\Users\86183\AppData\Local\Temp\ccaDF7Ye.s:7343   .bss.STATE:00000000 $d
C:\Users\86183\AppData\Local\Temp\ccaDF7Ye.s:7345   .bss.absoluteAngle:00000000 $d
C:\Users\86183\AppData\Local\Temp\ccaDF7Ye.s:7352   .bss.angle0:00000000 $d
C:\Users\86183\AppData\Local\Temp\ccaDF7Ye.s:7359   .bss.distance:00000000 $d
C:\Users\86183\AppData\Local\Temp\ccaDF7Ye.s:7370   .bss.isInitialMinePark:00000000 $d
C:\Users\86183\AppData\Local\Temp\ccaDF7Ye.s:7372   .bss.isPackageValid:00000000 $d
C:\Users\86183\AppData\Local\Temp\ccaDF7Ye.s:7379   .bss.packageX:00000000 $d
C:\Users\86183\AppData\Local\Temp\ccaDF7Ye.s:7386   .bss.packageY:00000000 $d
C:\Users\86183\AppData\Local\Temp\ccaDF7Ye.s:7393   .bss.pid:00000000 $d
C:\Users\86183\AppData\Local\Temp\ccaDF7Ye.s:7400   .bss.pre_err:00000000 $d
C:\Users\86183\AppData\Local\Temp\ccaDF7Ye.s:7407   .bss.surveyData:00000000 $d
C:\Users\86183\AppData\Local\Temp\ccaDF7Ye.s:7414   .bss.surveyDataCount:00000000 $d
C:\Users\86183\AppData\Local\Temp\ccaDF7Ye.s:7421   .bss.target:00000000 $d
C:\Users\86183\AppData\Local\Temp\ccaDF7Ye.s:7428   .data.BeaconDir:00000000 $d
C:\Users\86183\AppData\Local\Temp\ccaDF7Ye.s:7439   .data.Park:00000000 $d
C:\Users\86183\AppData\Local\Temp\ccaDF7Ye.s:7490   .rodata.Kd:00000000 $d
C:\Users\86183\AppData\Local\Temp\ccaDF7Ye.s:7500   .rodata.Ki:00000000 $d
C:\Users\86183\AppData\Local\Temp\ccaDF7Ye.s:7510   .rodata.Kp:00000000 $d

UNDEFINED SYMBOLS
getCarMineANum
getCarMineBNum
getCarMineCNum
getCarMineDNum
__aeabi_fsub
__aeabi_fmul
__aeabi_fadd
__aeabi_fcmpgt
__aeabi_fdiv
__aeabi_fcmplt
GetYaw
HAL_GPIO_WritePin
__aeabi_ui2f
__aeabi_f2d
__aeabi_dmul
__aeabi_d2f
__aeabi_dadd
__aeabi_f2iz
sqrt
htim3
htim4
htim5
htim8
htim1
__aeabi_i2f
__aeabi_i2d
__aeabi_d2iz
getIsCarPosValid
getMyBeaconPosX
getMyBeaconPosY
ARM GAS  C:\Users\86183\AppData\Local\Temp\ccaDF7Ye.s 			page 175


getDistanceOfMyBeacon
getCarPosX
getCarPosY
getDistanceOfRivalBeacon
__aeabi_ddiv
getMineIntensity
getCarTask
getParkDotMineType
getMyBeaconMineType
getIsDistanceOfRivalBeaconValid
getRivalBeaconPosX
getRivalBeaconPosY
__aeabi_fcmpge
cos
sin
HAL_Delay
__aeabi_dsub
__aeabi_dcmplt
atan2
getCarMineSumNum
memset
HAL_RCC_OscConfig
HAL_RCC_ClockConfig
HAL_Init
MX_GPIO_Init
MX_TIM1_Init
MX_TIM2_Init
MX_TIM3_Init
MX_TIM4_Init
MX_TIM5_Init
MX_TIM8_Init
MX_DMA_Init
MX_USART3_UART_Init
MX_USART2_UART_Init
HAL_TIM_Base_Start_IT
HAL_TIM_PWM_Start
HAL_TIM_Encoder_Start
jy62_Init
zigbee_Init
getGameState
getGameTime
htim2
huart2
huart3
