ARM GAS  C:\Users\86183\AppData\Local\Temp\ccakcuva.s 			page 1


   1              		.cpu cortex-m3
   2              		.eabi_attribute 20, 1
   3              		.eabi_attribute 21, 1
   4              		.eabi_attribute 23, 3
   5              		.eabi_attribute 24, 1
   6              		.eabi_attribute 25, 1
   7              		.eabi_attribute 26, 1
   8              		.eabi_attribute 30, 1
   9              		.eabi_attribute 34, 1
  10              		.eabi_attribute 18, 4
  11              		.file	"stm32f1xx_it.c"
  12              		.text
  13              	.Ltext0:
  14              		.cfi_sections	.debug_frame
  15              		.section	.text.NMI_Handler,"ax",%progbits
  16              		.align	1
  17              		.global	NMI_Handler
  18              		.arch armv7-m
  19              		.syntax unified
  20              		.thumb
  21              		.thumb_func
  22              		.fpu softvfp
  24              	NMI_Handler:
  25              	.LFB65:
  26              		.file 1 "Core/Src/stm32f1xx_it.c"
   1:Core/Src/stm32f1xx_it.c **** /* USER CODE BEGIN Header */
   2:Core/Src/stm32f1xx_it.c **** /**
   3:Core/Src/stm32f1xx_it.c ****   ******************************************************************************
   4:Core/Src/stm32f1xx_it.c ****   * @file    stm32f1xx_it.c
   5:Core/Src/stm32f1xx_it.c ****   * @brief   Interrupt Service Routines.
   6:Core/Src/stm32f1xx_it.c ****   ******************************************************************************
   7:Core/Src/stm32f1xx_it.c ****   * @attention
   8:Core/Src/stm32f1xx_it.c ****   *
   9:Core/Src/stm32f1xx_it.c ****   * <h2><center>&copy; Copyright (c) 2021 STMicroelectronics.
  10:Core/Src/stm32f1xx_it.c ****   * All rights reserved.</center></h2>
  11:Core/Src/stm32f1xx_it.c ****   *
  12:Core/Src/stm32f1xx_it.c ****   * This software component is licensed by ST under BSD 3-Clause license,
  13:Core/Src/stm32f1xx_it.c ****   * the "License"; You may not use this file except in compliance with the
  14:Core/Src/stm32f1xx_it.c ****   * License. You may obtain a copy of the License at:
  15:Core/Src/stm32f1xx_it.c ****   *                        opensource.org/licenses/BSD-3-Clause
  16:Core/Src/stm32f1xx_it.c ****   *
  17:Core/Src/stm32f1xx_it.c ****   ******************************************************************************
  18:Core/Src/stm32f1xx_it.c ****   */
  19:Core/Src/stm32f1xx_it.c **** /* USER CODE END Header */
  20:Core/Src/stm32f1xx_it.c **** 
  21:Core/Src/stm32f1xx_it.c **** /* Includes ------------------------------------------------------------------*/
  22:Core/Src/stm32f1xx_it.c **** #include "main.h"
  23:Core/Src/stm32f1xx_it.c **** #include "stm32f1xx_it.h"
  24:Core/Src/stm32f1xx_it.c **** #include "zigbee.h"
  25:Core/Src/stm32f1xx_it.c **** #include "usart.h"
  26:Core/Src/stm32f1xx_it.c **** /* Private includes ----------------------------------------------------------*/
  27:Core/Src/stm32f1xx_it.c **** /* USER CODE BEGIN Includes */
  28:Core/Src/stm32f1xx_it.c **** /* USER CODE END Includes */
  29:Core/Src/stm32f1xx_it.c **** 
  30:Core/Src/stm32f1xx_it.c **** /* Private typedef -----------------------------------------------------------*/
  31:Core/Src/stm32f1xx_it.c **** /* USER CODE BEGIN TD */
  32:Core/Src/stm32f1xx_it.c **** 
ARM GAS  C:\Users\86183\AppData\Local\Temp\ccakcuva.s 			page 2


  33:Core/Src/stm32f1xx_it.c **** /* USER CODE END TD */
  34:Core/Src/stm32f1xx_it.c **** 
  35:Core/Src/stm32f1xx_it.c **** /* Private define ------------------------------------------------------------*/
  36:Core/Src/stm32f1xx_it.c **** /* USER CODE BEGIN PD */
  37:Core/Src/stm32f1xx_it.c **** 
  38:Core/Src/stm32f1xx_it.c **** /* USER CODE END PD */
  39:Core/Src/stm32f1xx_it.c **** 
  40:Core/Src/stm32f1xx_it.c **** /* Private macro -------------------------------------------------------------*/
  41:Core/Src/stm32f1xx_it.c **** /* USER CODE BEGIN PM */
  42:Core/Src/stm32f1xx_it.c **** 
  43:Core/Src/stm32f1xx_it.c **** /* USER CODE END PM */
  44:Core/Src/stm32f1xx_it.c **** 
  45:Core/Src/stm32f1xx_it.c **** /* Private variables ---------------------------------------------------------*/
  46:Core/Src/stm32f1xx_it.c **** /* USER CODE BEGIN PV */
  47:Core/Src/stm32f1xx_it.c **** 
  48:Core/Src/stm32f1xx_it.c **** /* USER CODE END PV */
  49:Core/Src/stm32f1xx_it.c **** 
  50:Core/Src/stm32f1xx_it.c **** /* Private function prototypes -----------------------------------------------*/
  51:Core/Src/stm32f1xx_it.c **** /* USER CODE BEGIN PFP */
  52:Core/Src/stm32f1xx_it.c **** 
  53:Core/Src/stm32f1xx_it.c **** /* USER CODE END PFP */
  54:Core/Src/stm32f1xx_it.c **** 
  55:Core/Src/stm32f1xx_it.c **** /* Private user code ---------------------------------------------------------*/
  56:Core/Src/stm32f1xx_it.c **** /* USER CODE BEGIN 0 */
  57:Core/Src/stm32f1xx_it.c **** 
  58:Core/Src/stm32f1xx_it.c **** /* USER CODE END 0 */
  59:Core/Src/stm32f1xx_it.c **** 
  60:Core/Src/stm32f1xx_it.c **** /* External variables --------------------------------------------------------*/
  61:Core/Src/stm32f1xx_it.c **** extern TIM_HandleTypeDef htim2;
  62:Core/Src/stm32f1xx_it.c **** extern DMA_HandleTypeDef hdma_usart2_rx;
  63:Core/Src/stm32f1xx_it.c **** extern DMA_HandleTypeDef hdma_usart3_rx;
  64:Core/Src/stm32f1xx_it.c **** extern UART_HandleTypeDef huart2;
  65:Core/Src/stm32f1xx_it.c **** extern UART_HandleTypeDef huart3;
  66:Core/Src/stm32f1xx_it.c **** /* USER CODE BEGIN EV */
  67:Core/Src/stm32f1xx_it.c **** 
  68:Core/Src/stm32f1xx_it.c **** /* USER CODE END EV */
  69:Core/Src/stm32f1xx_it.c **** 
  70:Core/Src/stm32f1xx_it.c **** /******************************************************************************/
  71:Core/Src/stm32f1xx_it.c **** /*           Cortex-M3 Processor Interruption and Exception Handlers          */
  72:Core/Src/stm32f1xx_it.c **** /******************************************************************************/
  73:Core/Src/stm32f1xx_it.c **** /**
  74:Core/Src/stm32f1xx_it.c ****   * @brief This function handles Non maskable interrupt.
  75:Core/Src/stm32f1xx_it.c ****   */
  76:Core/Src/stm32f1xx_it.c **** void NMI_Handler(void)
  77:Core/Src/stm32f1xx_it.c **** {
  27              		.loc 1 77 1 view -0
  28              		.cfi_startproc
  29              		@ Volatile: function does not return.
  30              		@ args = 0, pretend = 0, frame = 0
  31              		@ frame_needed = 0, uses_anonymous_args = 0
  32              		@ link register save eliminated.
  33              	.L2:
  78:Core/Src/stm32f1xx_it.c ****   /* USER CODE BEGIN NonMaskableInt_IRQn 0 */
  79:Core/Src/stm32f1xx_it.c **** 
  80:Core/Src/stm32f1xx_it.c ****   /* USER CODE END NonMaskableInt_IRQn 0 */
  81:Core/Src/stm32f1xx_it.c ****   /* USER CODE BEGIN NonMaskableInt_IRQn 1 */
  82:Core/Src/stm32f1xx_it.c ****   while (1)
ARM GAS  C:\Users\86183\AppData\Local\Temp\ccakcuva.s 			page 3


  34              		.loc 1 82 3 discriminator 1 view .LVU1
  83:Core/Src/stm32f1xx_it.c ****   {
  84:Core/Src/stm32f1xx_it.c ****   }
  35              		.loc 1 84 3 discriminator 1 view .LVU2
  82:Core/Src/stm32f1xx_it.c ****   {
  36              		.loc 1 82 9 discriminator 1 view .LVU3
  37 0000 FEE7     		b	.L2
  38              		.cfi_endproc
  39              	.LFE65:
  41              		.section	.text.HardFault_Handler,"ax",%progbits
  42              		.align	1
  43              		.global	HardFault_Handler
  44              		.syntax unified
  45              		.thumb
  46              		.thumb_func
  47              		.fpu softvfp
  49              	HardFault_Handler:
  50              	.LFB66:
  85:Core/Src/stm32f1xx_it.c ****   /* USER CODE END NonMaskableInt_IRQn 1 */
  86:Core/Src/stm32f1xx_it.c **** }
  87:Core/Src/stm32f1xx_it.c **** 
  88:Core/Src/stm32f1xx_it.c **** /**
  89:Core/Src/stm32f1xx_it.c ****   * @brief This function handles Hard fault interrupt.
  90:Core/Src/stm32f1xx_it.c ****   */
  91:Core/Src/stm32f1xx_it.c **** void HardFault_Handler(void)
  92:Core/Src/stm32f1xx_it.c **** {
  51              		.loc 1 92 1 view -0
  52              		.cfi_startproc
  53              		@ Volatile: function does not return.
  54              		@ args = 0, pretend = 0, frame = 0
  55              		@ frame_needed = 0, uses_anonymous_args = 0
  56              		@ link register save eliminated.
  57              	.L4:
  93:Core/Src/stm32f1xx_it.c ****   /* USER CODE BEGIN HardFault_IRQn 0 */
  94:Core/Src/stm32f1xx_it.c **** 
  95:Core/Src/stm32f1xx_it.c ****   /* USER CODE END HardFault_IRQn 0 */
  96:Core/Src/stm32f1xx_it.c ****   while (1)
  58              		.loc 1 96 3 discriminator 1 view .LVU5
  97:Core/Src/stm32f1xx_it.c ****   {
  98:Core/Src/stm32f1xx_it.c ****     /* USER CODE BEGIN W1_HardFault_IRQn 0 */
  99:Core/Src/stm32f1xx_it.c ****     /* USER CODE END W1_HardFault_IRQn 0 */
 100:Core/Src/stm32f1xx_it.c ****   }
  59              		.loc 1 100 3 discriminator 1 view .LVU6
  96:Core/Src/stm32f1xx_it.c ****   {
  60              		.loc 1 96 9 discriminator 1 view .LVU7
  61 0000 FEE7     		b	.L4
  62              		.cfi_endproc
  63              	.LFE66:
  65              		.section	.text.MemManage_Handler,"ax",%progbits
  66              		.align	1
  67              		.global	MemManage_Handler
  68              		.syntax unified
  69              		.thumb
  70              		.thumb_func
  71              		.fpu softvfp
  73              	MemManage_Handler:
  74              	.LFB67:
ARM GAS  C:\Users\86183\AppData\Local\Temp\ccakcuva.s 			page 4


 101:Core/Src/stm32f1xx_it.c **** }
 102:Core/Src/stm32f1xx_it.c **** 
 103:Core/Src/stm32f1xx_it.c **** /**
 104:Core/Src/stm32f1xx_it.c ****   * @brief This function handles Memory management fault.
 105:Core/Src/stm32f1xx_it.c ****   */
 106:Core/Src/stm32f1xx_it.c **** void MemManage_Handler(void)
 107:Core/Src/stm32f1xx_it.c **** {
  75              		.loc 1 107 1 view -0
  76              		.cfi_startproc
  77              		@ Volatile: function does not return.
  78              		@ args = 0, pretend = 0, frame = 0
  79              		@ frame_needed = 0, uses_anonymous_args = 0
  80              		@ link register save eliminated.
  81              	.L6:
 108:Core/Src/stm32f1xx_it.c ****   /* USER CODE BEGIN MemoryManagement_IRQn 0 */
 109:Core/Src/stm32f1xx_it.c **** 
 110:Core/Src/stm32f1xx_it.c ****   /* USER CODE END MemoryManagement_IRQn 0 */
 111:Core/Src/stm32f1xx_it.c ****   while (1)
  82              		.loc 1 111 3 discriminator 1 view .LVU9
 112:Core/Src/stm32f1xx_it.c ****   {
 113:Core/Src/stm32f1xx_it.c ****     /* USER CODE BEGIN W1_MemoryManagement_IRQn 0 */
 114:Core/Src/stm32f1xx_it.c ****     /* USER CODE END W1_MemoryManagement_IRQn 0 */
 115:Core/Src/stm32f1xx_it.c ****   }
  83              		.loc 1 115 3 discriminator 1 view .LVU10
 111:Core/Src/stm32f1xx_it.c ****   {
  84              		.loc 1 111 9 discriminator 1 view .LVU11
  85 0000 FEE7     		b	.L6
  86              		.cfi_endproc
  87              	.LFE67:
  89              		.section	.text.BusFault_Handler,"ax",%progbits
  90              		.align	1
  91              		.global	BusFault_Handler
  92              		.syntax unified
  93              		.thumb
  94              		.thumb_func
  95              		.fpu softvfp
  97              	BusFault_Handler:
  98              	.LFB68:
 116:Core/Src/stm32f1xx_it.c **** }
 117:Core/Src/stm32f1xx_it.c **** 
 118:Core/Src/stm32f1xx_it.c **** /**
 119:Core/Src/stm32f1xx_it.c ****   * @brief This function handles Prefetch fault, memory access fault.
 120:Core/Src/stm32f1xx_it.c ****   */
 121:Core/Src/stm32f1xx_it.c **** void BusFault_Handler(void)
 122:Core/Src/stm32f1xx_it.c **** {
  99              		.loc 1 122 1 view -0
 100              		.cfi_startproc
 101              		@ Volatile: function does not return.
 102              		@ args = 0, pretend = 0, frame = 0
 103              		@ frame_needed = 0, uses_anonymous_args = 0
 104              		@ link register save eliminated.
 105              	.L8:
 123:Core/Src/stm32f1xx_it.c ****   /* USER CODE BEGIN BusFault_IRQn 0 */
 124:Core/Src/stm32f1xx_it.c **** 
 125:Core/Src/stm32f1xx_it.c ****   /* USER CODE END BusFault_IRQn 0 */
 126:Core/Src/stm32f1xx_it.c ****   while (1)
 106              		.loc 1 126 3 discriminator 1 view .LVU13
ARM GAS  C:\Users\86183\AppData\Local\Temp\ccakcuva.s 			page 5


 127:Core/Src/stm32f1xx_it.c ****   {
 128:Core/Src/stm32f1xx_it.c ****     /* USER CODE BEGIN W1_BusFault_IRQn 0 */
 129:Core/Src/stm32f1xx_it.c ****     /* USER CODE END W1_BusFault_IRQn 0 */
 130:Core/Src/stm32f1xx_it.c ****   }
 107              		.loc 1 130 3 discriminator 1 view .LVU14
 126:Core/Src/stm32f1xx_it.c ****   {
 108              		.loc 1 126 9 discriminator 1 view .LVU15
 109 0000 FEE7     		b	.L8
 110              		.cfi_endproc
 111              	.LFE68:
 113              		.section	.text.UsageFault_Handler,"ax",%progbits
 114              		.align	1
 115              		.global	UsageFault_Handler
 116              		.syntax unified
 117              		.thumb
 118              		.thumb_func
 119              		.fpu softvfp
 121              	UsageFault_Handler:
 122              	.LFB69:
 131:Core/Src/stm32f1xx_it.c **** }
 132:Core/Src/stm32f1xx_it.c **** 
 133:Core/Src/stm32f1xx_it.c **** /**
 134:Core/Src/stm32f1xx_it.c ****   * @brief This function handles Undefined instruction or illegal state.
 135:Core/Src/stm32f1xx_it.c ****   */
 136:Core/Src/stm32f1xx_it.c **** void UsageFault_Handler(void)
 137:Core/Src/stm32f1xx_it.c **** {
 123              		.loc 1 137 1 view -0
 124              		.cfi_startproc
 125              		@ Volatile: function does not return.
 126              		@ args = 0, pretend = 0, frame = 0
 127              		@ frame_needed = 0, uses_anonymous_args = 0
 128              		@ link register save eliminated.
 129              	.L10:
 138:Core/Src/stm32f1xx_it.c ****   /* USER CODE BEGIN UsageFault_IRQn 0 */
 139:Core/Src/stm32f1xx_it.c **** 
 140:Core/Src/stm32f1xx_it.c ****   /* USER CODE END UsageFault_IRQn 0 */
 141:Core/Src/stm32f1xx_it.c ****   while (1)
 130              		.loc 1 141 3 discriminator 1 view .LVU17
 142:Core/Src/stm32f1xx_it.c ****   {
 143:Core/Src/stm32f1xx_it.c ****     /* USER CODE BEGIN W1_UsageFault_IRQn 0 */
 144:Core/Src/stm32f1xx_it.c ****     /* USER CODE END W1_UsageFault_IRQn 0 */
 145:Core/Src/stm32f1xx_it.c ****   }
 131              		.loc 1 145 3 discriminator 1 view .LVU18
 141:Core/Src/stm32f1xx_it.c ****   {
 132              		.loc 1 141 9 discriminator 1 view .LVU19
 133 0000 FEE7     		b	.L10
 134              		.cfi_endproc
 135              	.LFE69:
 137              		.section	.text.SVC_Handler,"ax",%progbits
 138              		.align	1
 139              		.global	SVC_Handler
 140              		.syntax unified
 141              		.thumb
 142              		.thumb_func
 143              		.fpu softvfp
 145              	SVC_Handler:
 146              	.LFB70:
ARM GAS  C:\Users\86183\AppData\Local\Temp\ccakcuva.s 			page 6


 146:Core/Src/stm32f1xx_it.c **** }
 147:Core/Src/stm32f1xx_it.c **** 
 148:Core/Src/stm32f1xx_it.c **** /**
 149:Core/Src/stm32f1xx_it.c ****   * @brief This function handles System service call via SWI instruction.
 150:Core/Src/stm32f1xx_it.c ****   */
 151:Core/Src/stm32f1xx_it.c **** void SVC_Handler(void)
 152:Core/Src/stm32f1xx_it.c **** {
 147              		.loc 1 152 1 view -0
 148              		.cfi_startproc
 149              		@ args = 0, pretend = 0, frame = 0
 150              		@ frame_needed = 0, uses_anonymous_args = 0
 151              		@ link register save eliminated.
 153:Core/Src/stm32f1xx_it.c ****   /* USER CODE BEGIN SVCall_IRQn 0 */
 154:Core/Src/stm32f1xx_it.c **** 
 155:Core/Src/stm32f1xx_it.c ****   /* USER CODE END SVCall_IRQn 0 */
 156:Core/Src/stm32f1xx_it.c ****   /* USER CODE BEGIN SVCall_IRQn 1 */
 157:Core/Src/stm32f1xx_it.c **** 
 158:Core/Src/stm32f1xx_it.c ****   /* USER CODE END SVCall_IRQn 1 */
 159:Core/Src/stm32f1xx_it.c **** }
 152              		.loc 1 159 1 view .LVU21
 153 0000 7047     		bx	lr
 154              		.cfi_endproc
 155              	.LFE70:
 157              		.section	.text.DebugMon_Handler,"ax",%progbits
 158              		.align	1
 159              		.global	DebugMon_Handler
 160              		.syntax unified
 161              		.thumb
 162              		.thumb_func
 163              		.fpu softvfp
 165              	DebugMon_Handler:
 166              	.LFB71:
 160:Core/Src/stm32f1xx_it.c **** 
 161:Core/Src/stm32f1xx_it.c **** /**
 162:Core/Src/stm32f1xx_it.c ****   * @brief This function handles Debug monitor.
 163:Core/Src/stm32f1xx_it.c ****   */
 164:Core/Src/stm32f1xx_it.c **** void DebugMon_Handler(void)
 165:Core/Src/stm32f1xx_it.c **** {
 167              		.loc 1 165 1 view -0
 168              		.cfi_startproc
 169              		@ args = 0, pretend = 0, frame = 0
 170              		@ frame_needed = 0, uses_anonymous_args = 0
 171              		@ link register save eliminated.
 166:Core/Src/stm32f1xx_it.c ****   /* USER CODE BEGIN DebugMonitor_IRQn 0 */
 167:Core/Src/stm32f1xx_it.c **** 
 168:Core/Src/stm32f1xx_it.c ****   /* USER CODE END DebugMonitor_IRQn 0 */
 169:Core/Src/stm32f1xx_it.c ****   /* USER CODE BEGIN DebugMonitor_IRQn 1 */
 170:Core/Src/stm32f1xx_it.c **** 
 171:Core/Src/stm32f1xx_it.c ****   /* USER CODE END DebugMonitor_IRQn 1 */
 172:Core/Src/stm32f1xx_it.c **** }
 172              		.loc 1 172 1 view .LVU23
 173 0000 7047     		bx	lr
 174              		.cfi_endproc
 175              	.LFE71:
 177              		.section	.text.PendSV_Handler,"ax",%progbits
 178              		.align	1
 179              		.global	PendSV_Handler
ARM GAS  C:\Users\86183\AppData\Local\Temp\ccakcuva.s 			page 7


 180              		.syntax unified
 181              		.thumb
 182              		.thumb_func
 183              		.fpu softvfp
 185              	PendSV_Handler:
 186              	.LFB72:
 173:Core/Src/stm32f1xx_it.c **** 
 174:Core/Src/stm32f1xx_it.c **** /**
 175:Core/Src/stm32f1xx_it.c ****   * @brief This function handles Pendable request for system service.
 176:Core/Src/stm32f1xx_it.c ****   */
 177:Core/Src/stm32f1xx_it.c **** void PendSV_Handler(void)
 178:Core/Src/stm32f1xx_it.c **** {
 187              		.loc 1 178 1 view -0
 188              		.cfi_startproc
 189              		@ args = 0, pretend = 0, frame = 0
 190              		@ frame_needed = 0, uses_anonymous_args = 0
 191              		@ link register save eliminated.
 179:Core/Src/stm32f1xx_it.c ****   /* USER CODE BEGIN PendSV_IRQn 0 */
 180:Core/Src/stm32f1xx_it.c **** 
 181:Core/Src/stm32f1xx_it.c ****   /* USER CODE END PendSV_IRQn 0 */
 182:Core/Src/stm32f1xx_it.c ****   /* USER CODE BEGIN PendSV_IRQn 1 */
 183:Core/Src/stm32f1xx_it.c **** 
 184:Core/Src/stm32f1xx_it.c ****   /* USER CODE END PendSV_IRQn 1 */
 185:Core/Src/stm32f1xx_it.c **** }
 192              		.loc 1 185 1 view .LVU25
 193 0000 7047     		bx	lr
 194              		.cfi_endproc
 195              	.LFE72:
 197              		.section	.text.SysTick_Handler,"ax",%progbits
 198              		.align	1
 199              		.global	SysTick_Handler
 200              		.syntax unified
 201              		.thumb
 202              		.thumb_func
 203              		.fpu softvfp
 205              	SysTick_Handler:
 206              	.LFB73:
 186:Core/Src/stm32f1xx_it.c **** 
 187:Core/Src/stm32f1xx_it.c **** /**
 188:Core/Src/stm32f1xx_it.c ****   * @brief This function handles System tick timer.
 189:Core/Src/stm32f1xx_it.c ****   */
 190:Core/Src/stm32f1xx_it.c **** void SysTick_Handler(void)
 191:Core/Src/stm32f1xx_it.c **** {
 207              		.loc 1 191 1 view -0
 208              		.cfi_startproc
 209              		@ args = 0, pretend = 0, frame = 0
 210              		@ frame_needed = 0, uses_anonymous_args = 0
 211 0000 08B5     		push	{r3, lr}
 212              	.LCFI0:
 213              		.cfi_def_cfa_offset 8
 214              		.cfi_offset 3, -8
 215              		.cfi_offset 14, -4
 192:Core/Src/stm32f1xx_it.c ****   /* USER CODE BEGIN SysTick_IRQn 0 */
 193:Core/Src/stm32f1xx_it.c **** 
 194:Core/Src/stm32f1xx_it.c ****   /* USER CODE END SysTick_IRQn 0 */
 195:Core/Src/stm32f1xx_it.c ****   HAL_IncTick();
 216              		.loc 1 195 3 view .LVU27
ARM GAS  C:\Users\86183\AppData\Local\Temp\ccakcuva.s 			page 8


 217 0002 FFF7FEFF 		bl	HAL_IncTick
 218              	.LVL0:
 196:Core/Src/stm32f1xx_it.c ****   /* USER CODE BEGIN SysTick_IRQn 1 */
 197:Core/Src/stm32f1xx_it.c **** 
 198:Core/Src/stm32f1xx_it.c ****   /* USER CODE END SysTick_IRQn 1 */
 199:Core/Src/stm32f1xx_it.c **** }
 219              		.loc 1 199 1 is_stmt 0 view .LVU28
 220 0006 08BD     		pop	{r3, pc}
 221              		.cfi_endproc
 222              	.LFE73:
 224              		.section	.text.DMA1_Channel3_IRQHandler,"ax",%progbits
 225              		.align	1
 226              		.global	DMA1_Channel3_IRQHandler
 227              		.syntax unified
 228              		.thumb
 229              		.thumb_func
 230              		.fpu softvfp
 232              	DMA1_Channel3_IRQHandler:
 233              	.LFB74:
 200:Core/Src/stm32f1xx_it.c **** 
 201:Core/Src/stm32f1xx_it.c **** /******************************************************************************/
 202:Core/Src/stm32f1xx_it.c **** /* STM32F1xx Peripheral Interrupt Handlers                                    */
 203:Core/Src/stm32f1xx_it.c **** /* Add here the Interrupt Handlers for the used peripherals.                  */
 204:Core/Src/stm32f1xx_it.c **** /* For the available peripheral interrupt handler names,                      */
 205:Core/Src/stm32f1xx_it.c **** /* please refer to the startup file (startup_stm32f1xx.s).                    */
 206:Core/Src/stm32f1xx_it.c **** /******************************************************************************/
 207:Core/Src/stm32f1xx_it.c **** 
 208:Core/Src/stm32f1xx_it.c **** /**
 209:Core/Src/stm32f1xx_it.c ****   * @brief This function handles DMA1 channel3 global interrupt.
 210:Core/Src/stm32f1xx_it.c ****   */
 211:Core/Src/stm32f1xx_it.c **** void DMA1_Channel3_IRQHandler(void)
 212:Core/Src/stm32f1xx_it.c **** {
 234              		.loc 1 212 1 is_stmt 1 view -0
 235              		.cfi_startproc
 236              		@ args = 0, pretend = 0, frame = 0
 237              		@ frame_needed = 0, uses_anonymous_args = 0
 238 0000 08B5     		push	{r3, lr}
 239              	.LCFI1:
 240              		.cfi_def_cfa_offset 8
 241              		.cfi_offset 3, -8
 242              		.cfi_offset 14, -4
 213:Core/Src/stm32f1xx_it.c ****   /* USER CODE BEGIN DMA1_Channel3_IRQn 0 */
 214:Core/Src/stm32f1xx_it.c **** 
 215:Core/Src/stm32f1xx_it.c ****   /* USER CODE END DMA1_Channel3_IRQn 0 */
 216:Core/Src/stm32f1xx_it.c ****   HAL_DMA_IRQHandler(&hdma_usart3_rx);
 243              		.loc 1 216 3 view .LVU30
 244 0002 0248     		ldr	r0, .L18
 245 0004 FFF7FEFF 		bl	HAL_DMA_IRQHandler
 246              	.LVL1:
 217:Core/Src/stm32f1xx_it.c ****   /* USER CODE BEGIN DMA1_Channel3_IRQn 1 */
 218:Core/Src/stm32f1xx_it.c **** 
 219:Core/Src/stm32f1xx_it.c ****   /* USER CODE END DMA1_Channel3_IRQn 1 */
 220:Core/Src/stm32f1xx_it.c **** }
 247              		.loc 1 220 1 is_stmt 0 view .LVU31
 248 0008 08BD     		pop	{r3, pc}
 249              	.L19:
 250 000a 00BF     		.align	2
ARM GAS  C:\Users\86183\AppData\Local\Temp\ccakcuva.s 			page 9


 251              	.L18:
 252 000c 00000000 		.word	hdma_usart3_rx
 253              		.cfi_endproc
 254              	.LFE74:
 256              		.section	.text.DMA1_Channel6_IRQHandler,"ax",%progbits
 257              		.align	1
 258              		.global	DMA1_Channel6_IRQHandler
 259              		.syntax unified
 260              		.thumb
 261              		.thumb_func
 262              		.fpu softvfp
 264              	DMA1_Channel6_IRQHandler:
 265              	.LFB75:
 221:Core/Src/stm32f1xx_it.c **** 
 222:Core/Src/stm32f1xx_it.c **** /**
 223:Core/Src/stm32f1xx_it.c ****   * @brief This function handles DMA1 channel6 global interrupt.
 224:Core/Src/stm32f1xx_it.c ****   */
 225:Core/Src/stm32f1xx_it.c **** void DMA1_Channel6_IRQHandler(void)
 226:Core/Src/stm32f1xx_it.c **** {
 266              		.loc 1 226 1 is_stmt 1 view -0
 267              		.cfi_startproc
 268              		@ args = 0, pretend = 0, frame = 0
 269              		@ frame_needed = 0, uses_anonymous_args = 0
 270 0000 08B5     		push	{r3, lr}
 271              	.LCFI2:
 272              		.cfi_def_cfa_offset 8
 273              		.cfi_offset 3, -8
 274              		.cfi_offset 14, -4
 227:Core/Src/stm32f1xx_it.c ****   /* USER CODE BEGIN DMA1_Channel6_IRQn 0 */
 228:Core/Src/stm32f1xx_it.c **** 
 229:Core/Src/stm32f1xx_it.c ****   /* USER CODE END DMA1_Channel6_IRQn 0 */
 230:Core/Src/stm32f1xx_it.c ****   HAL_DMA_IRQHandler(&hdma_usart2_rx);
 275              		.loc 1 230 3 view .LVU33
 276 0002 0248     		ldr	r0, .L22
 277 0004 FFF7FEFF 		bl	HAL_DMA_IRQHandler
 278              	.LVL2:
 231:Core/Src/stm32f1xx_it.c ****   /* USER CODE BEGIN DMA1_Channel6_IRQn 1 */
 232:Core/Src/stm32f1xx_it.c **** 
 233:Core/Src/stm32f1xx_it.c ****   /* USER CODE END DMA1_Channel6_IRQn 1 */
 234:Core/Src/stm32f1xx_it.c **** }
 279              		.loc 1 234 1 is_stmt 0 view .LVU34
 280 0008 08BD     		pop	{r3, pc}
 281              	.L23:
 282 000a 00BF     		.align	2
 283              	.L22:
 284 000c 00000000 		.word	hdma_usart2_rx
 285              		.cfi_endproc
 286              	.LFE75:
 288              		.section	.text.TIM2_IRQHandler,"ax",%progbits
 289              		.align	1
 290              		.global	TIM2_IRQHandler
 291              		.syntax unified
 292              		.thumb
 293              		.thumb_func
 294              		.fpu softvfp
 296              	TIM2_IRQHandler:
 297              	.LFB76:
ARM GAS  C:\Users\86183\AppData\Local\Temp\ccakcuva.s 			page 10


 235:Core/Src/stm32f1xx_it.c **** 
 236:Core/Src/stm32f1xx_it.c **** /**
 237:Core/Src/stm32f1xx_it.c ****   * @brief This function handles TIM2 global interrupt.
 238:Core/Src/stm32f1xx_it.c ****   */
 239:Core/Src/stm32f1xx_it.c **** void TIM2_IRQHandler(void)
 240:Core/Src/stm32f1xx_it.c **** {
 298              		.loc 1 240 1 is_stmt 1 view -0
 299              		.cfi_startproc
 300              		@ args = 0, pretend = 0, frame = 0
 301              		@ frame_needed = 0, uses_anonymous_args = 0
 302 0000 08B5     		push	{r3, lr}
 303              	.LCFI3:
 304              		.cfi_def_cfa_offset 8
 305              		.cfi_offset 3, -8
 306              		.cfi_offset 14, -4
 241:Core/Src/stm32f1xx_it.c ****   /* USER CODE BEGIN TIM2_IRQn 0 */
 242:Core/Src/stm32f1xx_it.c **** 
 243:Core/Src/stm32f1xx_it.c ****   /* USER CODE END TIM2_IRQn 0 */
 244:Core/Src/stm32f1xx_it.c ****   HAL_TIM_IRQHandler(&htim2);
 307              		.loc 1 244 3 view .LVU36
 308 0002 0248     		ldr	r0, .L26
 309 0004 FFF7FEFF 		bl	HAL_TIM_IRQHandler
 310              	.LVL3:
 245:Core/Src/stm32f1xx_it.c ****   /* USER CODE BEGIN TIM2_IRQn 1 */
 246:Core/Src/stm32f1xx_it.c **** 
 247:Core/Src/stm32f1xx_it.c ****   /* USER CODE END TIM2_IRQn 1 */
 248:Core/Src/stm32f1xx_it.c **** }
 311              		.loc 1 248 1 is_stmt 0 view .LVU37
 312 0008 08BD     		pop	{r3, pc}
 313              	.L27:
 314 000a 00BF     		.align	2
 315              	.L26:
 316 000c 00000000 		.word	htim2
 317              		.cfi_endproc
 318              	.LFE76:
 320              		.section	.text.USART2_IRQHandler,"ax",%progbits
 321              		.align	1
 322              		.global	USART2_IRQHandler
 323              		.syntax unified
 324              		.thumb
 325              		.thumb_func
 326              		.fpu softvfp
 328              	USART2_IRQHandler:
 329              	.LFB77:
 249:Core/Src/stm32f1xx_it.c **** 
 250:Core/Src/stm32f1xx_it.c **** /**
 251:Core/Src/stm32f1xx_it.c ****   * @brief This function handles USART2 global interrupt.
 252:Core/Src/stm32f1xx_it.c ****   */
 253:Core/Src/stm32f1xx_it.c **** void USART2_IRQHandler(void)
 254:Core/Src/stm32f1xx_it.c **** {
 330              		.loc 1 254 1 is_stmt 1 view -0
 331              		.cfi_startproc
 332              		@ args = 0, pretend = 0, frame = 0
 333              		@ frame_needed = 0, uses_anonymous_args = 0
 334 0000 08B5     		push	{r3, lr}
 335              	.LCFI4:
 336              		.cfi_def_cfa_offset 8
ARM GAS  C:\Users\86183\AppData\Local\Temp\ccakcuva.s 			page 11


 337              		.cfi_offset 3, -8
 338              		.cfi_offset 14, -4
 255:Core/Src/stm32f1xx_it.c ****   /* USER CODE BEGIN USART2_IRQn 0 */
 256:Core/Src/stm32f1xx_it.c **** 
 257:Core/Src/stm32f1xx_it.c ****   /* USER CODE END USART2_IRQn 0 */
 258:Core/Src/stm32f1xx_it.c ****   HAL_UART_IRQHandler(&huart2);
 339              		.loc 1 258 3 view .LVU39
 340 0002 0248     		ldr	r0, .L30
 341 0004 FFF7FEFF 		bl	HAL_UART_IRQHandler
 342              	.LVL4:
 259:Core/Src/stm32f1xx_it.c ****   /* USER CODE BEGIN USART2_IRQn 1 */
 260:Core/Src/stm32f1xx_it.c **** 
 261:Core/Src/stm32f1xx_it.c ****   /* USER CODE END USART2_IRQn 1 */
 262:Core/Src/stm32f1xx_it.c **** }
 343              		.loc 1 262 1 is_stmt 0 view .LVU40
 344 0008 08BD     		pop	{r3, pc}
 345              	.L31:
 346 000a 00BF     		.align	2
 347              	.L30:
 348 000c 00000000 		.word	huart2
 349              		.cfi_endproc
 350              	.LFE77:
 352              		.section	.text.USART3_IRQHandler,"ax",%progbits
 353              		.align	1
 354              		.global	USART3_IRQHandler
 355              		.syntax unified
 356              		.thumb
 357              		.thumb_func
 358              		.fpu softvfp
 360              	USART3_IRQHandler:
 361              	.LFB78:
 263:Core/Src/stm32f1xx_it.c **** 
 264:Core/Src/stm32f1xx_it.c **** /**
 265:Core/Src/stm32f1xx_it.c ****   * @brief This function handles USART3 global interrupt.
 266:Core/Src/stm32f1xx_it.c ****   */
 267:Core/Src/stm32f1xx_it.c **** void USART3_IRQHandler(void)
 268:Core/Src/stm32f1xx_it.c **** {
 362              		.loc 1 268 1 is_stmt 1 view -0
 363              		.cfi_startproc
 364              		@ args = 0, pretend = 0, frame = 0
 365              		@ frame_needed = 0, uses_anonymous_args = 0
 366 0000 10B5     		push	{r4, lr}
 367              	.LCFI5:
 368              		.cfi_def_cfa_offset 8
 369              		.cfi_offset 4, -8
 370              		.cfi_offset 14, -4
 269:Core/Src/stm32f1xx_it.c ****   /* USER CODE BEGIN USART3_IRQn 0 */
 270:Core/Src/stm32f1xx_it.c **** 
 271:Core/Src/stm32f1xx_it.c ****   /* USER CODE END USART3_IRQn 0 */
 272:Core/Src/stm32f1xx_it.c ****   HAL_UART_IRQHandler(&huart3);
 371              		.loc 1 272 3 view .LVU42
 372 0002 044C     		ldr	r4, .L34
 373 0004 2046     		mov	r0, r4
 374 0006 FFF7FEFF 		bl	HAL_UART_IRQHandler
 375              	.LVL5:
 273:Core/Src/stm32f1xx_it.c ****   /* USER CODE BEGIN USART3_IRQn 1 */
 274:Core/Src/stm32f1xx_it.c ****   USER_UART_IDLECallback(&huart3); 
ARM GAS  C:\Users\86183\AppData\Local\Temp\ccakcuva.s 			page 12


 376              		.loc 1 274 3 view .LVU43
 377 000a 2046     		mov	r0, r4
 378 000c FFF7FEFF 		bl	USER_UART_IDLECallback
 379              	.LVL6:
 275:Core/Src/stm32f1xx_it.c ****   /* USER CODE END USART3_IRQn 1 */
 276:Core/Src/stm32f1xx_it.c **** }
 380              		.loc 1 276 1 is_stmt 0 view .LVU44
 381 0010 10BD     		pop	{r4, pc}
 382              	.L35:
 383 0012 00BF     		.align	2
 384              	.L34:
 385 0014 00000000 		.word	huart3
 386              		.cfi_endproc
 387              	.LFE78:
 389              		.text
 390              	.Letext0:
 391              		.file 2 "d:\\gnu arm embedded toolchain10\\10 2021.07\\arm-none-eabi\\include\\machine\\_default_t
 392              		.file 3 "d:\\gnu arm embedded toolchain10\\10 2021.07\\arm-none-eabi\\include\\sys\\_stdint.h"
 393              		.file 4 "Drivers/CMSIS/Device/ST/STM32F1xx/Include/stm32f103xe.h"
 394              		.file 5 "Drivers/STM32F1xx_HAL_Driver/Inc/stm32f1xx_hal_def.h"
 395              		.file 6 "Drivers/STM32F1xx_HAL_Driver/Inc/stm32f1xx_hal_dma.h"
 396              		.file 7 "Drivers/STM32F1xx_HAL_Driver/Inc/stm32f1xx_hal_tim.h"
 397              		.file 8 "Drivers/STM32F1xx_HAL_Driver/Inc/stm32f1xx_hal_uart.h"
 398              		.file 9 "Core/Inc/usart.h"
 399              		.file 10 "Drivers/STM32F1xx_HAL_Driver/Inc/stm32f1xx_hal.h"
ARM GAS  C:\Users\86183\AppData\Local\Temp\ccakcuva.s 			page 13

