ARM GAS  C:\Users\86183\AppData\Local\Temp\ccjuOdTf.s 			page 1


   1              		.cpu cortex-m3
   2              		.eabi_attribute 20, 1
   3              		.eabi_attribute 21, 1
   4              		.eabi_attribute 23, 3
   5              		.eabi_attribute 24, 1
   6              		.eabi_attribute 25, 1
   7              		.eabi_attribute 26, 1
   8              		.eabi_attribute 30, 1
   9              		.eabi_attribute 34, 1
  10              		.eabi_attribute 18, 4
  11              		.file	"usart.c"
  12              		.text
  13              	.Ltext0:
  14              		.cfi_sections	.debug_frame
  15              		.section	.text.MX_USART3_UART_Init,"ax",%progbits
  16              		.align	1
  17              		.global	MX_USART3_UART_Init
  18              		.arch armv7-m
  19              		.syntax unified
  20              		.thumb
  21              		.thumb_func
  22              		.fpu softvfp
  24              	MX_USART3_UART_Init:
  25              	.LFB68:
  26              		.file 1 "Core/Src/usart.c"
   1:Core/Src/usart.c **** /**
   2:Core/Src/usart.c ****   ******************************************************************************
   3:Core/Src/usart.c ****   * @file    usart.c
   4:Core/Src/usart.c ****   * @brief   This file provides code for the configuration
   5:Core/Src/usart.c ****   *          of the USART instances.
   6:Core/Src/usart.c ****   ******************************************************************************
   7:Core/Src/usart.c ****   * @attention
   8:Core/Src/usart.c ****   *
   9:Core/Src/usart.c ****   * <h2><center>&copy; Copyright (c) 2021 STMicroelectronics.
  10:Core/Src/usart.c ****   * All rights reserved.</center></h2>
  11:Core/Src/usart.c ****   *
  12:Core/Src/usart.c ****   * This software component is licensed by ST under BSD 3-Clause license,
  13:Core/Src/usart.c ****   * the "License"; You may not use this file except in compliance with the
  14:Core/Src/usart.c ****   * License. You may obtain a copy of the License at:
  15:Core/Src/usart.c ****   *                        opensource.org/licenses/BSD-3-Clause
  16:Core/Src/usart.c ****   *
  17:Core/Src/usart.c ****   ******************************************************************************
  18:Core/Src/usart.c ****   */
  19:Core/Src/usart.c **** 
  20:Core/Src/usart.c **** /* Includes ------------------------------------------------------------------*/
  21:Core/Src/usart.c **** #include "usart.h"
  22:Core/Src/usart.c **** 
  23:Core/Src/usart.c **** /* USER CODE BEGIN 0 */
  24:Core/Src/usart.c **** #include <stdarg.h>
  25:Core/Src/usart.c **** #include <stdio.h>
  26:Core/Src/usart.c **** #include <string.h>
  27:Core/Src/usart.c **** /* USER CODE END 0 */
  28:Core/Src/usart.c **** 
  29:Core/Src/usart.c **** UART_HandleTypeDef huart3;
  30:Core/Src/usart.c **** 
  31:Core/Src/usart.c **** /* USART3 init function */
  32:Core/Src/usart.c **** 
ARM GAS  C:\Users\86183\AppData\Local\Temp\ccjuOdTf.s 			page 2


  33:Core/Src/usart.c **** void MX_USART3_UART_Init(void)
  34:Core/Src/usart.c **** {
  27              		.loc 1 34 1 view -0
  28              		.cfi_startproc
  29              		@ args = 0, pretend = 0, frame = 0
  30              		@ frame_needed = 0, uses_anonymous_args = 0
  31 0000 08B5     		push	{r3, lr}
  32              	.LCFI0:
  33              		.cfi_def_cfa_offset 8
  34              		.cfi_offset 3, -8
  35              		.cfi_offset 14, -4
  35:Core/Src/usart.c **** 
  36:Core/Src/usart.c ****   /* USER CODE BEGIN USART3_Init 0 */
  37:Core/Src/usart.c **** 
  38:Core/Src/usart.c ****   /* USER CODE END USART3_Init 0 */
  39:Core/Src/usart.c **** 
  40:Core/Src/usart.c ****   /* USER CODE BEGIN USART3_Init 1 */
  41:Core/Src/usart.c **** 
  42:Core/Src/usart.c ****   /* USER CODE END USART3_Init 1 */
  43:Core/Src/usart.c ****   huart3.Instance = USART3;
  36              		.loc 1 43 3 view .LVU1
  37              		.loc 1 43 19 is_stmt 0 view .LVU2
  38 0002 0A48     		ldr	r0, .L5
  39 0004 0A4B     		ldr	r3, .L5+4
  40 0006 0360     		str	r3, [r0]
  44:Core/Src/usart.c ****   huart3.Init.BaudRate = 38400;
  41              		.loc 1 44 3 is_stmt 1 view .LVU3
  42              		.loc 1 44 24 is_stmt 0 view .LVU4
  43 0008 4FF41643 		mov	r3, #38400
  44 000c 4360     		str	r3, [r0, #4]
  45:Core/Src/usart.c ****   huart3.Init.WordLength = UART_WORDLENGTH_8B;
  45              		.loc 1 45 3 is_stmt 1 view .LVU5
  46              		.loc 1 45 26 is_stmt 0 view .LVU6
  47 000e 0023     		movs	r3, #0
  48 0010 8360     		str	r3, [r0, #8]
  46:Core/Src/usart.c ****   huart3.Init.StopBits = UART_STOPBITS_1;
  49              		.loc 1 46 3 is_stmt 1 view .LVU7
  50              		.loc 1 46 24 is_stmt 0 view .LVU8
  51 0012 C360     		str	r3, [r0, #12]
  47:Core/Src/usart.c ****   huart3.Init.Parity = UART_PARITY_NONE;
  52              		.loc 1 47 3 is_stmt 1 view .LVU9
  53              		.loc 1 47 22 is_stmt 0 view .LVU10
  54 0014 0361     		str	r3, [r0, #16]
  48:Core/Src/usart.c ****   huart3.Init.Mode = UART_MODE_TX_RX;
  55              		.loc 1 48 3 is_stmt 1 view .LVU11
  56              		.loc 1 48 20 is_stmt 0 view .LVU12
  57 0016 0C22     		movs	r2, #12
  58 0018 4261     		str	r2, [r0, #20]
  49:Core/Src/usart.c ****   huart3.Init.HwFlowCtl = UART_HWCONTROL_NONE;
  59              		.loc 1 49 3 is_stmt 1 view .LVU13
  60              		.loc 1 49 25 is_stmt 0 view .LVU14
  61 001a 8361     		str	r3, [r0, #24]
  50:Core/Src/usart.c ****   huart3.Init.OverSampling = UART_OVERSAMPLING_16;
  62              		.loc 1 50 3 is_stmt 1 view .LVU15
  63              		.loc 1 50 28 is_stmt 0 view .LVU16
  64 001c C361     		str	r3, [r0, #28]
  51:Core/Src/usart.c ****   if (HAL_UART_Init(&huart3) != HAL_OK)
ARM GAS  C:\Users\86183\AppData\Local\Temp\ccjuOdTf.s 			page 3


  65              		.loc 1 51 3 is_stmt 1 view .LVU17
  66              		.loc 1 51 7 is_stmt 0 view .LVU18
  67 001e FFF7FEFF 		bl	HAL_UART_Init
  68              	.LVL0:
  69              		.loc 1 51 6 view .LVU19
  70 0022 00B9     		cbnz	r0, .L4
  71              	.L1:
  52:Core/Src/usart.c ****   {
  53:Core/Src/usart.c ****     Error_Handler();
  54:Core/Src/usart.c ****   }
  55:Core/Src/usart.c ****   /* USER CODE BEGIN USART3_Init 2 */
  56:Core/Src/usart.c **** 
  57:Core/Src/usart.c ****   /* USER CODE END USART3_Init 2 */
  58:Core/Src/usart.c **** 
  59:Core/Src/usart.c **** }
  72              		.loc 1 59 1 view .LVU20
  73 0024 08BD     		pop	{r3, pc}
  74              	.L4:
  53:Core/Src/usart.c ****   }
  75              		.loc 1 53 5 is_stmt 1 view .LVU21
  76 0026 FFF7FEFF 		bl	Error_Handler
  77              	.LVL1:
  78              		.loc 1 59 1 is_stmt 0 view .LVU22
  79 002a FBE7     		b	.L1
  80              	.L6:
  81              		.align	2
  82              	.L5:
  83 002c 00000000 		.word	.LANCHOR0
  84 0030 00480040 		.word	1073760256
  85              		.cfi_endproc
  86              	.LFE68:
  88              		.section	.text.HAL_UART_MspInit,"ax",%progbits
  89              		.align	1
  90              		.global	HAL_UART_MspInit
  91              		.syntax unified
  92              		.thumb
  93              		.thumb_func
  94              		.fpu softvfp
  96              	HAL_UART_MspInit:
  97              	.LVL2:
  98              	.LFB69:
  60:Core/Src/usart.c **** 
  61:Core/Src/usart.c **** void HAL_UART_MspInit(UART_HandleTypeDef* uartHandle)
  62:Core/Src/usart.c **** {
  99              		.loc 1 62 1 is_stmt 1 view -0
 100              		.cfi_startproc
 101              		@ args = 0, pretend = 0, frame = 24
 102              		@ frame_needed = 0, uses_anonymous_args = 0
 103              		.loc 1 62 1 is_stmt 0 view .LVU24
 104 0000 10B5     		push	{r4, lr}
 105              	.LCFI1:
 106              		.cfi_def_cfa_offset 8
 107              		.cfi_offset 4, -8
 108              		.cfi_offset 14, -4
 109 0002 86B0     		sub	sp, sp, #24
 110              	.LCFI2:
 111              		.cfi_def_cfa_offset 32
ARM GAS  C:\Users\86183\AppData\Local\Temp\ccjuOdTf.s 			page 4


  63:Core/Src/usart.c **** 
  64:Core/Src/usart.c ****   GPIO_InitTypeDef GPIO_InitStruct = {0};
 112              		.loc 1 64 3 is_stmt 1 view .LVU25
 113              		.loc 1 64 20 is_stmt 0 view .LVU26
 114 0004 0023     		movs	r3, #0
 115 0006 0293     		str	r3, [sp, #8]
 116 0008 0393     		str	r3, [sp, #12]
 117 000a 0493     		str	r3, [sp, #16]
 118 000c 0593     		str	r3, [sp, #20]
  65:Core/Src/usart.c ****   if(uartHandle->Instance==USART3)
 119              		.loc 1 65 3 is_stmt 1 view .LVU27
 120              		.loc 1 65 16 is_stmt 0 view .LVU28
 121 000e 0268     		ldr	r2, [r0]
 122              		.loc 1 65 5 view .LVU29
 123 0010 174B     		ldr	r3, .L11
 124 0012 9A42     		cmp	r2, r3
 125 0014 01D0     		beq	.L10
 126              	.LVL3:
 127              	.L7:
  66:Core/Src/usart.c ****   {
  67:Core/Src/usart.c ****   /* USER CODE BEGIN USART3_MspInit 0 */
  68:Core/Src/usart.c **** 
  69:Core/Src/usart.c ****   /* USER CODE END USART3_MspInit 0 */
  70:Core/Src/usart.c ****     /* USART3 clock enable */
  71:Core/Src/usart.c ****     __HAL_RCC_USART3_CLK_ENABLE();
  72:Core/Src/usart.c **** 
  73:Core/Src/usart.c ****     __HAL_RCC_GPIOB_CLK_ENABLE();
  74:Core/Src/usart.c ****     /**USART3 GPIO Configuration
  75:Core/Src/usart.c ****     PB10     ------> USART3_TX
  76:Core/Src/usart.c ****     PB11     ------> USART3_RX
  77:Core/Src/usart.c ****     */
  78:Core/Src/usart.c ****     GPIO_InitStruct.Pin = GPIO_PIN_10;
  79:Core/Src/usart.c ****     GPIO_InitStruct.Mode = GPIO_MODE_AF_PP;
  80:Core/Src/usart.c ****     GPIO_InitStruct.Speed = GPIO_SPEED_FREQ_HIGH;
  81:Core/Src/usart.c ****     HAL_GPIO_Init(GPIOB, &GPIO_InitStruct);
  82:Core/Src/usart.c **** 
  83:Core/Src/usart.c ****     GPIO_InitStruct.Pin = GPIO_PIN_11;
  84:Core/Src/usart.c ****     GPIO_InitStruct.Mode = GPIO_MODE_INPUT;
  85:Core/Src/usart.c ****     GPIO_InitStruct.Pull = GPIO_NOPULL;
  86:Core/Src/usart.c ****     HAL_GPIO_Init(GPIOB, &GPIO_InitStruct);
  87:Core/Src/usart.c **** 
  88:Core/Src/usart.c ****   /* USER CODE BEGIN USART3_MspInit 1 */
  89:Core/Src/usart.c **** 
  90:Core/Src/usart.c ****   /* USER CODE END USART3_MspInit 1 */
  91:Core/Src/usart.c ****   }
  92:Core/Src/usart.c **** }
 128              		.loc 1 92 1 view .LVU30
 129 0016 06B0     		add	sp, sp, #24
 130              	.LCFI3:
 131              		.cfi_remember_state
 132              		.cfi_def_cfa_offset 8
 133              		@ sp needed
 134 0018 10BD     		pop	{r4, pc}
 135              	.LVL4:
 136              	.L10:
 137              	.LCFI4:
 138              		.cfi_restore_state
ARM GAS  C:\Users\86183\AppData\Local\Temp\ccjuOdTf.s 			page 5


  71:Core/Src/usart.c **** 
 139              		.loc 1 71 5 is_stmt 1 view .LVU31
 140              	.LBB2:
  71:Core/Src/usart.c **** 
 141              		.loc 1 71 5 view .LVU32
  71:Core/Src/usart.c **** 
 142              		.loc 1 71 5 view .LVU33
 143 001a 03F5E433 		add	r3, r3, #116736
 144 001e DA69     		ldr	r2, [r3, #28]
 145 0020 42F48022 		orr	r2, r2, #262144
 146 0024 DA61     		str	r2, [r3, #28]
  71:Core/Src/usart.c **** 
 147              		.loc 1 71 5 view .LVU34
 148 0026 DA69     		ldr	r2, [r3, #28]
 149 0028 02F48022 		and	r2, r2, #262144
 150 002c 0092     		str	r2, [sp]
  71:Core/Src/usart.c **** 
 151              		.loc 1 71 5 view .LVU35
 152 002e 009A     		ldr	r2, [sp]
 153              	.LBE2:
  71:Core/Src/usart.c **** 
 154              		.loc 1 71 5 view .LVU36
  73:Core/Src/usart.c ****     /**USART3 GPIO Configuration
 155              		.loc 1 73 5 view .LVU37
 156              	.LBB3:
  73:Core/Src/usart.c ****     /**USART3 GPIO Configuration
 157              		.loc 1 73 5 view .LVU38
  73:Core/Src/usart.c ****     /**USART3 GPIO Configuration
 158              		.loc 1 73 5 view .LVU39
 159 0030 9A69     		ldr	r2, [r3, #24]
 160 0032 42F00802 		orr	r2, r2, #8
 161 0036 9A61     		str	r2, [r3, #24]
  73:Core/Src/usart.c ****     /**USART3 GPIO Configuration
 162              		.loc 1 73 5 view .LVU40
 163 0038 9B69     		ldr	r3, [r3, #24]
 164 003a 03F00803 		and	r3, r3, #8
 165 003e 0193     		str	r3, [sp, #4]
  73:Core/Src/usart.c ****     /**USART3 GPIO Configuration
 166              		.loc 1 73 5 view .LVU41
 167 0040 019B     		ldr	r3, [sp, #4]
 168              	.LBE3:
  73:Core/Src/usart.c ****     /**USART3 GPIO Configuration
 169              		.loc 1 73 5 view .LVU42
  78:Core/Src/usart.c ****     GPIO_InitStruct.Mode = GPIO_MODE_AF_PP;
 170              		.loc 1 78 5 view .LVU43
  78:Core/Src/usart.c ****     GPIO_InitStruct.Mode = GPIO_MODE_AF_PP;
 171              		.loc 1 78 25 is_stmt 0 view .LVU44
 172 0042 4FF48063 		mov	r3, #1024
 173 0046 0293     		str	r3, [sp, #8]
  79:Core/Src/usart.c ****     GPIO_InitStruct.Speed = GPIO_SPEED_FREQ_HIGH;
 174              		.loc 1 79 5 is_stmt 1 view .LVU45
  79:Core/Src/usart.c ****     GPIO_InitStruct.Speed = GPIO_SPEED_FREQ_HIGH;
 175              		.loc 1 79 26 is_stmt 0 view .LVU46
 176 0048 0223     		movs	r3, #2
 177 004a 0393     		str	r3, [sp, #12]
  80:Core/Src/usart.c ****     HAL_GPIO_Init(GPIOB, &GPIO_InitStruct);
 178              		.loc 1 80 5 is_stmt 1 view .LVU47
ARM GAS  C:\Users\86183\AppData\Local\Temp\ccjuOdTf.s 			page 6


  80:Core/Src/usart.c ****     HAL_GPIO_Init(GPIOB, &GPIO_InitStruct);
 179              		.loc 1 80 27 is_stmt 0 view .LVU48
 180 004c 0323     		movs	r3, #3
 181 004e 0593     		str	r3, [sp, #20]
  81:Core/Src/usart.c **** 
 182              		.loc 1 81 5 is_stmt 1 view .LVU49
 183 0050 084C     		ldr	r4, .L11+4
 184 0052 02A9     		add	r1, sp, #8
 185 0054 2046     		mov	r0, r4
 186              	.LVL5:
  81:Core/Src/usart.c **** 
 187              		.loc 1 81 5 is_stmt 0 view .LVU50
 188 0056 FFF7FEFF 		bl	HAL_GPIO_Init
 189              	.LVL6:
  83:Core/Src/usart.c ****     GPIO_InitStruct.Mode = GPIO_MODE_INPUT;
 190              		.loc 1 83 5 is_stmt 1 view .LVU51
  83:Core/Src/usart.c ****     GPIO_InitStruct.Mode = GPIO_MODE_INPUT;
 191              		.loc 1 83 25 is_stmt 0 view .LVU52
 192 005a 4FF40063 		mov	r3, #2048
 193 005e 0293     		str	r3, [sp, #8]
  84:Core/Src/usart.c ****     GPIO_InitStruct.Pull = GPIO_NOPULL;
 194              		.loc 1 84 5 is_stmt 1 view .LVU53
  84:Core/Src/usart.c ****     GPIO_InitStruct.Pull = GPIO_NOPULL;
 195              		.loc 1 84 26 is_stmt 0 view .LVU54
 196 0060 0023     		movs	r3, #0
 197 0062 0393     		str	r3, [sp, #12]
  85:Core/Src/usart.c ****     HAL_GPIO_Init(GPIOB, &GPIO_InitStruct);
 198              		.loc 1 85 5 is_stmt 1 view .LVU55
  85:Core/Src/usart.c ****     HAL_GPIO_Init(GPIOB, &GPIO_InitStruct);
 199              		.loc 1 85 26 is_stmt 0 view .LVU56
 200 0064 0493     		str	r3, [sp, #16]
  86:Core/Src/usart.c **** 
 201              		.loc 1 86 5 is_stmt 1 view .LVU57
 202 0066 02A9     		add	r1, sp, #8
 203 0068 2046     		mov	r0, r4
 204 006a FFF7FEFF 		bl	HAL_GPIO_Init
 205              	.LVL7:
 206              		.loc 1 92 1 is_stmt 0 view .LVU58
 207 006e D2E7     		b	.L7
 208              	.L12:
 209              		.align	2
 210              	.L11:
 211 0070 00480040 		.word	1073760256
 212 0074 000C0140 		.word	1073810432
 213              		.cfi_endproc
 214              	.LFE69:
 216              		.section	.text.HAL_UART_MspDeInit,"ax",%progbits
 217              		.align	1
 218              		.global	HAL_UART_MspDeInit
 219              		.syntax unified
 220              		.thumb
 221              		.thumb_func
 222              		.fpu softvfp
 224              	HAL_UART_MspDeInit:
 225              	.LVL8:
 226              	.LFB70:
  93:Core/Src/usart.c **** 
ARM GAS  C:\Users\86183\AppData\Local\Temp\ccjuOdTf.s 			page 7


  94:Core/Src/usart.c **** void HAL_UART_MspDeInit(UART_HandleTypeDef* uartHandle)
  95:Core/Src/usart.c **** {
 227              		.loc 1 95 1 is_stmt 1 view -0
 228              		.cfi_startproc
 229              		@ args = 0, pretend = 0, frame = 0
 230              		@ frame_needed = 0, uses_anonymous_args = 0
 231              		.loc 1 95 1 is_stmt 0 view .LVU60
 232 0000 08B5     		push	{r3, lr}
 233              	.LCFI5:
 234              		.cfi_def_cfa_offset 8
 235              		.cfi_offset 3, -8
 236              		.cfi_offset 14, -4
  96:Core/Src/usart.c **** 
  97:Core/Src/usart.c ****   if(uartHandle->Instance==USART3)
 237              		.loc 1 97 3 is_stmt 1 view .LVU61
 238              		.loc 1 97 16 is_stmt 0 view .LVU62
 239 0002 0268     		ldr	r2, [r0]
 240              		.loc 1 97 5 view .LVU63
 241 0004 074B     		ldr	r3, .L17
 242 0006 9A42     		cmp	r2, r3
 243 0008 00D0     		beq	.L16
 244              	.LVL9:
 245              	.L13:
  98:Core/Src/usart.c ****   {
  99:Core/Src/usart.c ****   /* USER CODE BEGIN USART3_MspDeInit 0 */
 100:Core/Src/usart.c **** 
 101:Core/Src/usart.c ****   /* USER CODE END USART3_MspDeInit 0 */
 102:Core/Src/usart.c ****     /* Peripheral clock disable */
 103:Core/Src/usart.c ****     __HAL_RCC_USART3_CLK_DISABLE();
 104:Core/Src/usart.c **** 
 105:Core/Src/usart.c ****     /**USART3 GPIO Configuration
 106:Core/Src/usart.c ****     PB10     ------> USART3_TX
 107:Core/Src/usart.c ****     PB11     ------> USART3_RX
 108:Core/Src/usart.c ****     */
 109:Core/Src/usart.c ****     HAL_GPIO_DeInit(GPIOB, GPIO_PIN_10|GPIO_PIN_11);
 110:Core/Src/usart.c **** 
 111:Core/Src/usart.c ****   /* USER CODE BEGIN USART3_MspDeInit 1 */
 112:Core/Src/usart.c **** 
 113:Core/Src/usart.c ****   /* USER CODE END USART3_MspDeInit 1 */
 114:Core/Src/usart.c ****   }
 115:Core/Src/usart.c **** }
 246              		.loc 1 115 1 view .LVU64
 247 000a 08BD     		pop	{r3, pc}
 248              	.LVL10:
 249              	.L16:
 103:Core/Src/usart.c **** 
 250              		.loc 1 103 5 is_stmt 1 view .LVU65
 251 000c 064A     		ldr	r2, .L17+4
 252 000e D369     		ldr	r3, [r2, #28]
 253 0010 23F48023 		bic	r3, r3, #262144
 254 0014 D361     		str	r3, [r2, #28]
 109:Core/Src/usart.c **** 
 255              		.loc 1 109 5 view .LVU66
 256 0016 4FF44061 		mov	r1, #3072
 257 001a 0448     		ldr	r0, .L17+8
 258              	.LVL11:
 109:Core/Src/usart.c **** 
ARM GAS  C:\Users\86183\AppData\Local\Temp\ccjuOdTf.s 			page 8


 259              		.loc 1 109 5 is_stmt 0 view .LVU67
 260 001c FFF7FEFF 		bl	HAL_GPIO_DeInit
 261              	.LVL12:
 262              		.loc 1 115 1 view .LVU68
 263 0020 F3E7     		b	.L13
 264              	.L18:
 265 0022 00BF     		.align	2
 266              	.L17:
 267 0024 00480040 		.word	1073760256
 268 0028 00100240 		.word	1073876992
 269 002c 000C0140 		.word	1073810432
 270              		.cfi_endproc
 271              	.LFE70:
 273              		.section	.text.u3_printf,"ax",%progbits
 274              		.align	1
 275              		.global	u3_printf
 276              		.syntax unified
 277              		.thumb
 278              		.thumb_func
 279              		.fpu softvfp
 281              	u3_printf:
 282              	.LVL13:
 283              	.LFB71:
 116:Core/Src/usart.c **** 
 117:Core/Src/usart.c **** /* USER CODE BEGIN 1 */
 118:Core/Src/usart.c **** void u3_printf(char* fmt, ...) { 
 284              		.loc 1 118 32 is_stmt 1 view -0
 285              		.cfi_startproc
 286              		@ args = 4, pretend = 16, frame = 208
 287              		@ frame_needed = 0, uses_anonymous_args = 1
 288              		.loc 1 118 32 is_stmt 0 view .LVU70
 289 0000 0FB4     		push	{r0, r1, r2, r3}
 290              	.LCFI6:
 291              		.cfi_def_cfa_offset 16
 292              		.cfi_offset 0, -16
 293              		.cfi_offset 1, -12
 294              		.cfi_offset 2, -8
 295              		.cfi_offset 3, -4
 296 0002 00B5     		push	{lr}
 297              	.LCFI7:
 298              		.cfi_def_cfa_offset 20
 299              		.cfi_offset 14, -20
 300 0004 B5B0     		sub	sp, sp, #212
 301              	.LCFI8:
 302              		.cfi_def_cfa_offset 232
 303 0006 36AA     		add	r2, sp, #216
 304 0008 52F8041B 		ldr	r1, [r2], #4
 119:Core/Src/usart.c ****     uint16_t len;
 305              		.loc 1 119 5 is_stmt 1 view .LVU71
 120:Core/Src/usart.c ****     va_list ap;
 306              		.loc 1 120 5 view .LVU72
 121:Core/Src/usart.c ****     va_start(ap, fmt);
 307              		.loc 1 121 5 view .LVU73
 308 000c 3392     		str	r2, [sp, #204]
 122:Core/Src/usart.c ****     uint8_t buf[200];
 309              		.loc 1 122 5 view .LVU74
 123:Core/Src/usart.c ****     vsprintf((char*)buf, fmt, ap);
ARM GAS  C:\Users\86183\AppData\Local\Temp\ccjuOdTf.s 			page 9


 310              		.loc 1 123 5 view .LVU75
 311 000e 01A8     		add	r0, sp, #4
 312 0010 FFF7FEFF 		bl	vsprintf
 313              	.LVL14:
 124:Core/Src/usart.c ****     va_end(ap);
 314              		.loc 1 124 5 view .LVU76
 125:Core/Src/usart.c ****     len = strlen((char*)buf);
 315              		.loc 1 125 5 view .LVU77
 316              		.loc 1 125 11 is_stmt 0 view .LVU78
 317 0014 01A8     		add	r0, sp, #4
 318 0016 FFF7FEFF 		bl	strlen
 319              	.LVL15:
 126:Core/Src/usart.c ****     HAL_UART_Transmit(&huart3, buf, len, HAL_MAX_DELAY);
 320              		.loc 1 126 5 is_stmt 1 view .LVU79
 321 001a 4FF0FF33 		mov	r3, #-1
 322 001e 82B2     		uxth	r2, r0
 323 0020 01A9     		add	r1, sp, #4
 324 0022 0448     		ldr	r0, .L21
 325              	.LVL16:
 326              		.loc 1 126 5 is_stmt 0 view .LVU80
 327 0024 FFF7FEFF 		bl	HAL_UART_Transmit
 328              	.LVL17:
 127:Core/Src/usart.c **** }
 329              		.loc 1 127 1 view .LVU81
 330 0028 35B0     		add	sp, sp, #212
 331              	.LCFI9:
 332              		.cfi_def_cfa_offset 20
 333              		@ sp needed
 334 002a 5DF804EB 		ldr	lr, [sp], #4
 335              	.LCFI10:
 336              		.cfi_restore 14
 337              		.cfi_def_cfa_offset 16
 338 002e 04B0     		add	sp, sp, #16
 339              	.LCFI11:
 340              		.cfi_restore 3
 341              		.cfi_restore 2
 342              		.cfi_restore 1
 343              		.cfi_restore 0
 344              		.cfi_def_cfa_offset 0
 345 0030 7047     		bx	lr
 346              	.L22:
 347 0032 00BF     		.align	2
 348              	.L21:
 349 0034 00000000 		.word	.LANCHOR0
 350              		.cfi_endproc
 351              	.LFE71:
 353              		.global	huart3
 354              		.section	.bss.huart3,"aw",%nobits
 355              		.align	2
 356              		.set	.LANCHOR0,. + 0
 359              	huart3:
 360 0000 00000000 		.space	68
 360      00000000 
 360      00000000 
 360      00000000 
 360      00000000 
 361              		.text
ARM GAS  C:\Users\86183\AppData\Local\Temp\ccjuOdTf.s 			page 10


 362              	.Letext0:
 363              		.file 2 "d:\\gnu arm embedded toolchain10\\10 2021.07\\arm-none-eabi\\include\\machine\\_default_t
 364              		.file 3 "d:\\gnu arm embedded toolchain10\\10 2021.07\\arm-none-eabi\\include\\sys\\_stdint.h"
 365              		.file 4 "Drivers/CMSIS/Device/ST/STM32F1xx/Include/stm32f103xe.h"
 366              		.file 5 "Drivers/STM32F1xx_HAL_Driver/Inc/stm32f1xx_hal_def.h"
 367              		.file 6 "Drivers/STM32F1xx_HAL_Driver/Inc/stm32f1xx_hal_gpio.h"
 368              		.file 7 "Drivers/STM32F1xx_HAL_Driver/Inc/stm32f1xx_hal_dma.h"
 369              		.file 8 "Drivers/STM32F1xx_HAL_Driver/Inc/stm32f1xx_hal_uart.h"
 370              		.file 9 "d:\\gnu arm embedded toolchain10\\10 2021.07\\lib\\gcc\\arm-none-eabi\\10.3.1\\include\\s
 371              		.file 10 "d:\\gnu arm embedded toolchain10\\10 2021.07\\arm-none-eabi\\include\\stdio.h"
 372              		.file 11 "d:\\gnu arm embedded toolchain10\\10 2021.07\\arm-none-eabi\\include\\string.h"
 373              		.file 12 "Core/Inc/main.h"
 374              		.file 13 "Core/Inc/usart.h"
 375              		.file 14 "<built-in>"
ARM GAS  C:\Users\86183\AppData\Local\Temp\ccjuOdTf.s 			page 11

