ARM GAS  C:\Users\86183\AppData\Local\Temp\ccKZACWs.s 			page 1


   1              		.cpu cortex-m3
   2              		.eabi_attribute 20, 1
   3              		.eabi_attribute 21, 1
   4              		.eabi_attribute 23, 3
   5              		.eabi_attribute 24, 1
   6              		.eabi_attribute 25, 1
   7              		.eabi_attribute 26, 1
   8              		.eabi_attribute 30, 1
   9              		.eabi_attribute 34, 1
  10              		.eabi_attribute 18, 4
  11              		.file	"zigbee.c"
  12              		.text
  13              	.Ltext0:
  14              		.cfi_sections	.debug_frame
  15              		.section	.text.zigbee_Init,"ax",%progbits
  16              		.align	1
  17              		.global	zigbee_Init
  18              		.arch armv7-m
  19              		.syntax unified
  20              		.thumb
  21              		.thumb_func
  22              		.fpu softvfp
  24              	zigbee_Init:
  25              	.LVL0:
  26              	.LFB65:
  27              		.file 1 "Core/Src/zigbee.c"
   1:Core/Src/zigbee.c **** #include "zigbee.h"
   2:Core/Src/zigbee.c **** #include "string.h"
   3:Core/Src/zigbee.c **** #include "usart.h"
   4:Core/Src/zigbee.c **** uint8_t zigbeeMessage[ZIGBEE_MESSAGE_LENTH];			 //经过校验后确认无误的信息
   5:Core/Src/zigbee.c **** uint8_t zigbeeReceive[zigbeeReceiveLength];				 //实时记录收到的信息
   6:Core/Src/zigbee.c **** uint8_t zigbeeMessageSend[4] = {0x01, 0x02, 0x03, 0x04}; //小车给上位机发送的信息
   7:Core/Src/zigbee.c **** uint8_t zigbee_halfrecv_buff[ZIGBEE_MESSAGE_LENTH];		 //储存未全部被接收的消息
   8:Core/Src/zigbee.c **** UART_HandleTypeDef *zigbee_huart;
   9:Core/Src/zigbee.c **** uint8_t zigbee_halfrecv_len = 0; //储存未完全接收消息的长度
  10:Core/Src/zigbee.c **** 
  11:Core/Src/zigbee.c **** /***********************接口****************************/
  12:Core/Src/zigbee.c **** 
  13:Core/Src/zigbee.c **** void zigbee_Init(UART_HandleTypeDef *huart)
  14:Core/Src/zigbee.c **** {
  28              		.loc 1 14 1 view -0
  29              		.cfi_startproc
  30              		@ args = 0, pretend = 0, frame = 0
  31              		@ frame_needed = 0, uses_anonymous_args = 0
  32              		.loc 1 14 1 is_stmt 0 view .LVU1
  33 0000 08B5     		push	{r3, lr}
  34              	.LCFI0:
  35              		.cfi_def_cfa_offset 8
  36              		.cfi_offset 3, -8
  37              		.cfi_offset 14, -4
  15:Core/Src/zigbee.c **** 	zigbee_huart = huart;
  38              		.loc 1 15 2 is_stmt 1 view .LVU2
  39              		.loc 1 15 15 is_stmt 0 view .LVU3
  40 0002 064A     		ldr	r2, .L3
  41 0004 1060     		str	r0, [r2]
  16:Core/Src/zigbee.c **** 	__HAL_UART_ENABLE_IT(zigbee_huart, UART_IT_IDLE);						//开启空闲中断
  42              		.loc 1 16 2 is_stmt 1 view .LVU4
ARM GAS  C:\Users\86183\AppData\Local\Temp\ccKZACWs.s 			page 2


  43 0006 0268     		ldr	r2, [r0]
  44 0008 D368     		ldr	r3, [r2, #12]
  45 000a 43F01003 		orr	r3, r3, #16
  46 000e D360     		str	r3, [r2, #12]
  17:Core/Src/zigbee.c **** 	HAL_UART_Receive_DMA(zigbee_huart, zigbeeReceive, zigbeeReceiveLength); //开启DMA中断接收
  47              		.loc 1 17 2 view .LVU5
  48 0010 FF22     		movs	r2, #255
  49 0012 0349     		ldr	r1, .L3+4
  50 0014 FFF7FEFF 		bl	HAL_UART_Receive_DMA
  51              	.LVL1:
  18:Core/Src/zigbee.c **** 	// HAL_UARTEx_ReceiveToIdle_DMA(zigbee_huart,zigbeeReceive,zigbeeReceiveLength);
  19:Core/Src/zigbee.c **** }
  52              		.loc 1 19 1 is_stmt 0 view .LVU6
  53 0018 08BD     		pop	{r3, pc}
  54              	.L4:
  55 001a 00BF     		.align	2
  56              	.L3:
  57 001c 00000000 		.word	.LANCHOR0
  58 0020 00000000 		.word	.LANCHOR1
  59              		.cfi_endproc
  60              	.LFE65:
  62              		.section	.text.zigbeeMessageRecord,"ax",%progbits
  63              		.align	1
  64              		.global	zigbeeMessageRecord
  65              		.syntax unified
  66              		.thumb
  67              		.thumb_func
  68              		.fpu softvfp
  70              	zigbeeMessageRecord:
  71              	.LVL2:
  72              	.LFB66:
  20:Core/Src/zigbee.c **** 
  21:Core/Src/zigbee.c **** void zigbeeMessageRecord(uint8_t rx_length)
  22:Core/Src/zigbee.c **** {
  73              		.loc 1 22 1 is_stmt 1 view -0
  74              		.cfi_startproc
  75              		@ args = 0, pretend = 0, frame = 0
  76              		@ frame_needed = 0, uses_anonymous_args = 0
  77              		.loc 1 22 1 is_stmt 0 view .LVU8
  78 0000 70B5     		push	{r4, r5, r6, lr}
  79              	.LCFI1:
  80              		.cfi_def_cfa_offset 16
  81              		.cfi_offset 4, -16
  82              		.cfi_offset 5, -12
  83              		.cfi_offset 6, -8
  84              		.cfi_offset 14, -4
  85 0002 0446     		mov	r4, r0
  23:Core/Src/zigbee.c **** 	if (rx_length == ZIGBEE_MESSAGE_LENTH && zigbeeReceive[ZIGBEE_MESSAGE_LENTH - 2] == 0x0D && zigbee
  86              		.loc 1 23 2 is_stmt 1 view .LVU9
  87              		.loc 1 23 5 is_stmt 0 view .LVU10
  88 0004 3028     		cmp	r0, #48
  89 0006 0BD0     		beq	.L14
  90              	.L6:
  24:Core/Src/zigbee.c **** 	{
  25:Core/Src/zigbee.c **** 		memcpy(zigbeeMessage, zigbeeReceive, ZIGBEE_MESSAGE_LENTH);
  26:Core/Src/zigbee.c **** 	}
  27:Core/Src/zigbee.c **** 	else if (rx_length < ZIGBEE_MESSAGE_LENTH) //用于处理单条消息分两次发送的情况
ARM GAS  C:\Users\86183\AppData\Local\Temp\ccKZACWs.s 			page 3


  91              		.loc 1 27 7 is_stmt 1 view .LVU11
  92              		.loc 1 27 10 is_stmt 0 view .LVU12
  93 0008 2F2C     		cmp	r4, #47
  94 000a 08D8     		bhi	.L5
  28:Core/Src/zigbee.c **** 	{
  29:Core/Src/zigbee.c **** 		if (!zigbee_halfrecv_len)
  95              		.loc 1 29 3 is_stmt 1 view .LVU13
  96              		.loc 1 29 7 is_stmt 0 view .LVU14
  97 000c 254B     		ldr	r3, .L19
  98 000e 1D78     		ldrb	r5, [r3]	@ zero_extendqisi2
  99              		.loc 1 29 6 view .LVU15
 100 0010 DDB1     		cbz	r5, .L15
  30:Core/Src/zigbee.c **** 		{
  31:Core/Src/zigbee.c **** 			zigbee_halfrecv_len = rx_length;
  32:Core/Src/zigbee.c **** 			memcpy(zigbee_halfrecv_buff, zigbeeReceive, rx_length);
  33:Core/Src/zigbee.c **** 		}
  34:Core/Src/zigbee.c **** 		else if (zigbee_halfrecv_len && rx_length + zigbee_halfrecv_len == ZIGBEE_MESSAGE_LENTH)
 101              		.loc 1 34 8 is_stmt 1 discriminator 1 view .LVU16
 102              		.loc 1 34 45 is_stmt 0 discriminator 1 view .LVU17
 103 0012 2B19     		adds	r3, r5, r4
 104              		.loc 1 34 32 discriminator 1 view .LVU18
 105 0014 302B     		cmp	r3, #48
 106 0016 1FD0     		beq	.L16
  35:Core/Src/zigbee.c **** 		{
  36:Core/Src/zigbee.c **** 			if ((zigbeeReceive[rx_length - 2] == 0x0D && zigbeeReceive[rx_length - 1] == 0x0A) || (rx_length
  37:Core/Src/zigbee.c **** 			{
  38:Core/Src/zigbee.c **** 				memcpy(zigbeeMessage, zigbee_halfrecv_buff, zigbee_halfrecv_len);
  39:Core/Src/zigbee.c **** 				memcpy(zigbeeMessage + zigbee_halfrecv_len, zigbeeReceive, rx_length);
  40:Core/Src/zigbee.c **** 			}
  41:Core/Src/zigbee.c **** 			zigbee_halfrecv_len = 0;
  42:Core/Src/zigbee.c **** 		}
  43:Core/Src/zigbee.c **** 		else
  44:Core/Src/zigbee.c **** 		{
  45:Core/Src/zigbee.c **** 			zigbee_halfrecv_len = 0;
 107              		.loc 1 45 4 is_stmt 1 view .LVU19
 108              		.loc 1 45 24 is_stmt 0 view .LVU20
 109 0018 224B     		ldr	r3, .L19
 110 001a 0022     		movs	r2, #0
 111 001c 1A70     		strb	r2, [r3]
  46:Core/Src/zigbee.c **** 		}
  47:Core/Src/zigbee.c **** 	}
  48:Core/Src/zigbee.c **** 	return;
 112              		.loc 1 48 2 is_stmt 1 view .LVU21
 113              	.LVL3:
 114              	.L5:
  49:Core/Src/zigbee.c **** }
 115              		.loc 1 49 1 is_stmt 0 view .LVU22
 116 001e 70BD     		pop	{r4, r5, r6, pc}
 117              	.LVL4:
 118              	.L14:
  23:Core/Src/zigbee.c **** 	{
 119              		.loc 1 23 56 discriminator 1 view .LVU23
 120 0020 214B     		ldr	r3, .L19+4
 121 0022 93F82E30 		ldrb	r3, [r3, #46]	@ zero_extendqisi2
  23:Core/Src/zigbee.c **** 	{
 122              		.loc 1 23 40 discriminator 1 view .LVU24
 123 0026 0D2B     		cmp	r3, #13
ARM GAS  C:\Users\86183\AppData\Local\Temp\ccKZACWs.s 			page 4


 124 0028 EED1     		bne	.L6
  23:Core/Src/zigbee.c **** 	{
 125              		.loc 1 23 107 discriminator 2 view .LVU25
 126 002a 1F4B     		ldr	r3, .L19+4
 127 002c 93F82F30 		ldrb	r3, [r3, #47]	@ zero_extendqisi2
  23:Core/Src/zigbee.c **** 	{
 128              		.loc 1 23 91 discriminator 2 view .LVU26
 129 0030 0A2B     		cmp	r3, #10
 130 0032 E9D1     		bne	.L6
  25:Core/Src/zigbee.c **** 	}
 131              		.loc 1 25 3 is_stmt 1 view .LVU27
 132 0034 1D4C     		ldr	r4, .L19+8
 133 0036 1C4D     		ldr	r5, .L19+4
 134 0038 0FCD     		ldmia	r5!, {r0, r1, r2, r3}
 135              	.LVL5:
  25:Core/Src/zigbee.c **** 	}
 136              		.loc 1 25 3 is_stmt 0 view .LVU28
 137 003a 0FC4     		stmia	r4!, {r0, r1, r2, r3}
 138 003c 0FCD     		ldmia	r5!, {r0, r1, r2, r3}
 139 003e 0FC4     		stmia	r4!, {r0, r1, r2, r3}
 140 0040 95E80F00 		ldm	r5, {r0, r1, r2, r3}
 141 0044 84E80F00 		stm	r4, {r0, r1, r2, r3}
 142 0048 E9E7     		b	.L5
 143              	.LVL6:
 144              	.L15:
  31:Core/Src/zigbee.c **** 			memcpy(zigbee_halfrecv_buff, zigbeeReceive, rx_length);
 145              		.loc 1 31 4 is_stmt 1 view .LVU29
  31:Core/Src/zigbee.c **** 			memcpy(zigbee_halfrecv_buff, zigbeeReceive, rx_length);
 146              		.loc 1 31 24 is_stmt 0 view .LVU30
 147 004a 1C70     		strb	r4, [r3]
  32:Core/Src/zigbee.c **** 		}
 148              		.loc 1 32 4 is_stmt 1 view .LVU31
 149 004c 2246     		mov	r2, r4
 150 004e 1649     		ldr	r1, .L19+4
 151 0050 1748     		ldr	r0, .L19+12
 152              	.LVL7:
  32:Core/Src/zigbee.c **** 		}
 153              		.loc 1 32 4 is_stmt 0 view .LVU32
 154 0052 FFF7FEFF 		bl	memcpy
 155              	.LVL8:
 156 0056 E2E7     		b	.L5
 157              	.LVL9:
 158              	.L16:
  36:Core/Src/zigbee.c **** 			{
 159              		.loc 1 36 4 is_stmt 1 view .LVU33
  36:Core/Src/zigbee.c **** 			{
 160              		.loc 1 36 33 is_stmt 0 view .LVU34
 161 0058 A31E     		subs	r3, r4, #2
  36:Core/Src/zigbee.c **** 			{
 162              		.loc 1 36 22 view .LVU35
 163 005a 134A     		ldr	r2, .L19+4
 164 005c D35C     		ldrb	r3, [r2, r3]	@ zero_extendqisi2
  36:Core/Src/zigbee.c **** 			{
 165              		.loc 1 36 7 view .LVU36
 166 005e 0D2B     		cmp	r3, #13
 167 0060 05D0     		beq	.L17
 168              	.L10:
ARM GAS  C:\Users\86183\AppData\Local\Temp\ccKZACWs.s 			page 5


  36:Core/Src/zigbee.c **** 			{
 169              		.loc 1 36 87 discriminator 3 view .LVU37
 170 0062 012C     		cmp	r4, #1
 171 0064 13D0     		beq	.L18
 172              	.LVL10:
 173              	.L12:
  41:Core/Src/zigbee.c **** 		}
 174              		.loc 1 41 4 is_stmt 1 view .LVU38
  41:Core/Src/zigbee.c **** 		}
 175              		.loc 1 41 24 is_stmt 0 view .LVU39
 176 0066 0F4B     		ldr	r3, .L19
 177 0068 0022     		movs	r2, #0
 178 006a 1A70     		strb	r2, [r3]
 179 006c D7E7     		b	.L5
 180              	.LVL11:
 181              	.L17:
  36:Core/Src/zigbee.c **** 			{
 182              		.loc 1 36 73 discriminator 1 view .LVU40
 183 006e 631E     		subs	r3, r4, #1
  36:Core/Src/zigbee.c **** 			{
 184              		.loc 1 36 62 discriminator 1 view .LVU41
 185 0070 D35C     		ldrb	r3, [r2, r3]	@ zero_extendqisi2
  36:Core/Src/zigbee.c **** 			{
 186              		.loc 1 36 46 discriminator 1 view .LVU42
 187 0072 0A2B     		cmp	r3, #10
 188 0074 F5D1     		bne	.L10
 189              	.L11:
  38:Core/Src/zigbee.c **** 				memcpy(zigbeeMessage + zigbee_halfrecv_len, zigbeeReceive, rx_length);
 190              		.loc 1 38 5 is_stmt 1 view .LVU43
 191 0076 0D4E     		ldr	r6, .L19+8
 192 0078 2A46     		mov	r2, r5
 193 007a 0D49     		ldr	r1, .L19+12
 194 007c 3046     		mov	r0, r6
 195              	.LVL12:
  38:Core/Src/zigbee.c **** 				memcpy(zigbeeMessage + zigbee_halfrecv_len, zigbeeReceive, rx_length);
 196              		.loc 1 38 5 is_stmt 0 view .LVU44
 197 007e FFF7FEFF 		bl	memcpy
 198              	.LVL13:
  39:Core/Src/zigbee.c **** 			}
 199              		.loc 1 39 5 is_stmt 1 view .LVU45
 200 0082 2246     		mov	r2, r4
 201 0084 0849     		ldr	r1, .L19+4
 202 0086 7019     		adds	r0, r6, r5
 203 0088 FFF7FEFF 		bl	memcpy
 204              	.LVL14:
 205 008c EBE7     		b	.L12
 206              	.LVL15:
 207              	.L18:
  36:Core/Src/zigbee.c **** 			{
 208              		.loc 1 36 122 is_stmt 0 discriminator 4 view .LVU46
 209 008e 064B     		ldr	r3, .L19+4
 210 0090 1B78     		ldrb	r3, [r3]	@ zero_extendqisi2
  36:Core/Src/zigbee.c **** 			{
 211              		.loc 1 36 106 discriminator 4 view .LVU47
 212 0092 0A2B     		cmp	r3, #10
 213 0094 E7D1     		bne	.L12
  36:Core/Src/zigbee.c **** 			{
ARM GAS  C:\Users\86183\AppData\Local\Temp\ccKZACWs.s 			page 6


 214              		.loc 1 36 157 discriminator 5 view .LVU48
 215 0096 064B     		ldr	r3, .L19+12
 216 0098 93F82E30 		ldrb	r3, [r3, #46]	@ zero_extendqisi2
  36:Core/Src/zigbee.c **** 			{
 217              		.loc 1 36 134 discriminator 5 view .LVU49
 218 009c 0D2B     		cmp	r3, #13
 219 009e E2D1     		bne	.L12
 220 00a0 E9E7     		b	.L11
 221              	.L20:
 222 00a2 00BF     		.align	2
 223              	.L19:
 224 00a4 00000000 		.word	.LANCHOR3
 225 00a8 00000000 		.word	.LANCHOR1
 226 00ac 00000000 		.word	.LANCHOR2
 227 00b0 00000000 		.word	.LANCHOR4
 228              		.cfi_endproc
 229              	.LFE66:
 231              		.section	.text.zigbeeSend,"ax",%progbits
 232              		.align	1
 233              		.global	zigbeeSend
 234              		.syntax unified
 235              		.thumb
 236              		.thumb_func
 237              		.fpu softvfp
 239              	zigbeeSend:
 240              	.LVL16:
 241              	.LFB67:
  50:Core/Src/zigbee.c **** 
  51:Core/Src/zigbee.c **** void zigbeeSend(int MineType)
  52:Core/Src/zigbee.c **** {
 242              		.loc 1 52 1 is_stmt 1 view -0
 243              		.cfi_startproc
 244              		@ args = 0, pretend = 0, frame = 0
 245              		@ frame_needed = 0, uses_anonymous_args = 0
 246              		.loc 1 52 1 is_stmt 0 view .LVU51
 247 0000 08B5     		push	{r3, lr}
 248              	.LCFI2:
 249              		.cfi_def_cfa_offset 8
 250              		.cfi_offset 3, -8
 251              		.cfi_offset 14, -4
  53:Core/Src/zigbee.c **** 	HAL_UART_Transmit(zigbee_huart, zigbeeMessageSend + MineType, 1, HAL_MAX_DELAY);
 252              		.loc 1 53 2 is_stmt 1 view .LVU52
 253 0002 4FF0FF33 		mov	r3, #-1
 254 0006 0122     		movs	r2, #1
 255 0008 0349     		ldr	r1, .L23
 256 000a 0144     		add	r1, r1, r0
 257 000c 0348     		ldr	r0, .L23+4
 258              	.LVL17:
 259              		.loc 1 53 2 is_stmt 0 view .LVU53
 260 000e 0068     		ldr	r0, [r0]
 261 0010 FFF7FEFF 		bl	HAL_UART_Transmit
 262              	.LVL18:
  54:Core/Src/zigbee.c **** }
 263              		.loc 1 54 1 view .LVU54
 264 0014 08BD     		pop	{r3, pc}
 265              	.L24:
 266 0016 00BF     		.align	2
ARM GAS  C:\Users\86183\AppData\Local\Temp\ccKZACWs.s 			page 7


 267              	.L23:
 268 0018 00000000 		.word	.LANCHOR5
 269 001c 00000000 		.word	.LANCHOR0
 270              		.cfi_endproc
 271              	.LFE67:
 273              		.section	.text.getGameTime,"ax",%progbits
 274              		.align	1
 275              		.global	getGameTime
 276              		.syntax unified
 277              		.thumb
 278              		.thumb_func
 279              		.fpu softvfp
 281              	getGameTime:
 282              	.LFB68:
  55:Core/Src/zigbee.c **** 
  56:Core/Src/zigbee.c **** uint16_t getGameTime(void)
  57:Core/Src/zigbee.c **** {
 283              		.loc 1 57 1 is_stmt 1 view -0
 284              		.cfi_startproc
 285              		@ args = 0, pretend = 0, frame = 0
 286              		@ frame_needed = 0, uses_anonymous_args = 0
 287              		@ link register save eliminated.
  58:Core/Src/zigbee.c **** 	return (zigbeeMessage[0] << 8) + zigbeeMessage[1];
 288              		.loc 1 58 2 view .LVU56
 289              		.loc 1 58 23 is_stmt 0 view .LVU57
 290 0000 034B     		ldr	r3, .L26
 291 0002 1A78     		ldrb	r2, [r3]	@ zero_extendqisi2
 292              		.loc 1 58 48 view .LVU58
 293 0004 5878     		ldrb	r0, [r3, #1]	@ zero_extendqisi2
 294              		.loc 1 58 33 view .LVU59
 295 0006 00EB0220 		add	r0, r0, r2, lsl #8
  59:Core/Src/zigbee.c **** }
 296              		.loc 1 59 1 view .LVU60
 297 000a 80B2     		uxth	r0, r0
 298 000c 7047     		bx	lr
 299              	.L27:
 300 000e 00BF     		.align	2
 301              	.L26:
 302 0010 00000000 		.word	.LANCHOR2
 303              		.cfi_endproc
 304              	.LFE68:
 306              		.section	.text.getGameState,"ax",%progbits
 307              		.align	1
 308              		.global	getGameState
 309              		.syntax unified
 310              		.thumb
 311              		.thumb_func
 312              		.fpu softvfp
 314              	getGameState:
 315              	.LFB69:
  60:Core/Src/zigbee.c **** 
  61:Core/Src/zigbee.c **** uint8_t getGameState(void)
  62:Core/Src/zigbee.c **** {
 316              		.loc 1 62 1 is_stmt 1 view -0
 317              		.cfi_startproc
 318              		@ args = 0, pretend = 0, frame = 0
 319              		@ frame_needed = 0, uses_anonymous_args = 0
ARM GAS  C:\Users\86183\AppData\Local\Temp\ccKZACWs.s 			page 8


 320              		@ link register save eliminated.
  63:Core/Src/zigbee.c **** 	return (uint8_t)((zigbeeMessage[2] & 0xC0) >> 6);
 321              		.loc 1 63 2 view .LVU62
 322              		.loc 1 63 33 is_stmt 0 view .LVU63
 323 0000 014B     		ldr	r3, .L29
 324 0002 9878     		ldrb	r0, [r3, #2]	@ zero_extendqisi2
  64:Core/Src/zigbee.c **** }
 325              		.loc 1 64 1 view .LVU64
 326 0004 8009     		lsrs	r0, r0, #6
 327 0006 7047     		bx	lr
 328              	.L30:
 329              		.align	2
 330              	.L29:
 331 0008 00000000 		.word	.LANCHOR2
 332              		.cfi_endproc
 333              	.LFE69:
 335              		.section	.text.getCarTask,"ax",%progbits
 336              		.align	1
 337              		.global	getCarTask
 338              		.syntax unified
 339              		.thumb
 340              		.thumb_func
 341              		.fpu softvfp
 343              	getCarTask:
 344              	.LFB70:
  65:Core/Src/zigbee.c **** 
  66:Core/Src/zigbee.c **** uint16_t getCarTask(void)
  67:Core/Src/zigbee.c **** {
 345              		.loc 1 67 1 is_stmt 1 view -0
 346              		.cfi_startproc
 347              		@ args = 0, pretend = 0, frame = 0
 348              		@ frame_needed = 0, uses_anonymous_args = 0
 349              		@ link register save eliminated.
  68:Core/Src/zigbee.c **** 	return (uint16_t)((zigbeeMessage[2] & 0x20) >> 5);
 350              		.loc 1 68 2 view .LVU66
 351              		.loc 1 68 34 is_stmt 0 view .LVU67
 352 0000 024B     		ldr	r3, .L32
 353 0002 9878     		ldrb	r0, [r3, #2]	@ zero_extendqisi2
  69:Core/Src/zigbee.c **** }
 354              		.loc 1 69 1 view .LVU68
 355 0004 C0F34010 		ubfx	r0, r0, #5, #1
 356 0008 7047     		bx	lr
 357              	.L33:
 358 000a 00BF     		.align	2
 359              	.L32:
 360 000c 00000000 		.word	.LANCHOR2
 361              		.cfi_endproc
 362              	.LFE70:
 364              		.section	.text.getIsMineIntensityValid,"ax",%progbits
 365              		.align	1
 366              		.global	getIsMineIntensityValid
 367              		.syntax unified
 368              		.thumb
 369              		.thumb_func
 370              		.fpu softvfp
 372              	getIsMineIntensityValid:
 373              	.LVL19:
ARM GAS  C:\Users\86183\AppData\Local\Temp\ccKZACWs.s 			page 9


 374              	.LFB71:
  70:Core/Src/zigbee.c **** 
  71:Core/Src/zigbee.c **** uint16_t getIsMineIntensityValid(int MineNo)
  72:Core/Src/zigbee.c **** {
 375              		.loc 1 72 1 is_stmt 1 view -0
 376              		.cfi_startproc
 377              		@ args = 0, pretend = 0, frame = 0
 378              		@ frame_needed = 0, uses_anonymous_args = 0
 379              		@ link register save eliminated.
  73:Core/Src/zigbee.c **** 	if (MineNo == 0)
 380              		.loc 1 73 2 view .LVU70
 381              		.loc 1 73 5 is_stmt 0 view .LVU71
 382 0000 20B1     		cbz	r0, .L38
  74:Core/Src/zigbee.c **** 	{
  75:Core/Src/zigbee.c **** 		return (uint16_t)((zigbeeMessage[2] & 0x10) >> 4);
  76:Core/Src/zigbee.c **** 	}
  77:Core/Src/zigbee.c **** 	else if (MineNo == 1)
 383              		.loc 1 77 7 is_stmt 1 view .LVU72
 384              		.loc 1 77 10 is_stmt 0 view .LVU73
 385 0002 0128     		cmp	r0, #1
 386 0004 07D0     		beq	.L39
  78:Core/Src/zigbee.c **** 	{
  79:Core/Src/zigbee.c **** 		return (uint16_t)((zigbeeMessage[2] & 0x08) >> 3);
  80:Core/Src/zigbee.c **** 	}
  81:Core/Src/zigbee.c **** 	else
  82:Core/Src/zigbee.c **** 	{
  83:Core/Src/zigbee.c **** 		return (uint16_t)INVALID_ARG;
 387              		.loc 1 83 10 view .LVU74
 388 0006 4FF6FF70 		movw	r0, #65535
 389              	.LVL20:
  84:Core/Src/zigbee.c **** 	}
  85:Core/Src/zigbee.c **** }
 390              		.loc 1 85 1 view .LVU75
 391 000a 7047     		bx	lr
 392              	.LVL21:
 393              	.L38:
  75:Core/Src/zigbee.c **** 	}
 394              		.loc 1 75 3 is_stmt 1 view .LVU76
  75:Core/Src/zigbee.c **** 	}
 395              		.loc 1 75 35 is_stmt 0 view .LVU77
 396 000c 044B     		ldr	r3, .L40
 397 000e 9878     		ldrb	r0, [r3, #2]	@ zero_extendqisi2
 398              	.LVL22:
  75:Core/Src/zigbee.c **** 	}
 399              		.loc 1 75 10 view .LVU78
 400 0010 C0F30010 		ubfx	r0, r0, #4, #1
 401 0014 7047     		bx	lr
 402              	.LVL23:
 403              	.L39:
  79:Core/Src/zigbee.c **** 	}
 404              		.loc 1 79 3 is_stmt 1 view .LVU79
  79:Core/Src/zigbee.c **** 	}
 405              		.loc 1 79 35 is_stmt 0 view .LVU80
 406 0016 024B     		ldr	r3, .L40
 407 0018 9878     		ldrb	r0, [r3, #2]	@ zero_extendqisi2
 408              	.LVL24:
  79:Core/Src/zigbee.c **** 	}
ARM GAS  C:\Users\86183\AppData\Local\Temp\ccKZACWs.s 			page 10


 409              		.loc 1 79 10 view .LVU81
 410 001a C0F3C000 		ubfx	r0, r0, #3, #1
 411 001e 7047     		bx	lr
 412              	.L41:
 413              		.align	2
 414              	.L40:
 415 0020 00000000 		.word	.LANCHOR2
 416              		.cfi_endproc
 417              	.LFE71:
 419              		.section	.text.getCarPosX,"ax",%progbits
 420              		.align	1
 421              		.global	getCarPosX
 422              		.syntax unified
 423              		.thumb
 424              		.thumb_func
 425              		.fpu softvfp
 427              	getCarPosX:
 428              	.LFB72:
  86:Core/Src/zigbee.c **** 
  87:Core/Src/zigbee.c **** uint16_t getCarPosX()
  88:Core/Src/zigbee.c **** {
 429              		.loc 1 88 1 is_stmt 1 view -0
 430              		.cfi_startproc
 431              		@ args = 0, pretend = 0, frame = 0
 432              		@ frame_needed = 0, uses_anonymous_args = 0
 433              		@ link register save eliminated.
  89:Core/Src/zigbee.c **** 	return (uint16_t)(zigbeeMessage[3]);
 434              		.loc 1 89 2 view .LVU83
  90:Core/Src/zigbee.c **** }
 435              		.loc 1 90 1 is_stmt 0 view .LVU84
 436 0000 014B     		ldr	r3, .L43
 437 0002 D878     		ldrb	r0, [r3, #3]	@ zero_extendqisi2
 438 0004 7047     		bx	lr
 439              	.L44:
 440 0006 00BF     		.align	2
 441              	.L43:
 442 0008 00000000 		.word	.LANCHOR2
 443              		.cfi_endproc
 444              	.LFE72:
 446              		.section	.text.getCarPosY,"ax",%progbits
 447              		.align	1
 448              		.global	getCarPosY
 449              		.syntax unified
 450              		.thumb
 451              		.thumb_func
 452              		.fpu softvfp
 454              	getCarPosY:
 455              	.LFB73:
  91:Core/Src/zigbee.c **** 
  92:Core/Src/zigbee.c **** uint16_t getCarPosY()
  93:Core/Src/zigbee.c **** {
 456              		.loc 1 93 1 is_stmt 1 view -0
 457              		.cfi_startproc
 458              		@ args = 0, pretend = 0, frame = 0
 459              		@ frame_needed = 0, uses_anonymous_args = 0
 460              		@ link register save eliminated.
  94:Core/Src/zigbee.c **** 	return (uint16_t)(zigbeeMessage[4]);
ARM GAS  C:\Users\86183\AppData\Local\Temp\ccKZACWs.s 			page 11


 461              		.loc 1 94 2 view .LVU86
  95:Core/Src/zigbee.c **** }
 462              		.loc 1 95 1 is_stmt 0 view .LVU87
 463 0000 014B     		ldr	r3, .L46
 464 0002 1879     		ldrb	r0, [r3, #4]	@ zero_extendqisi2
 465 0004 7047     		bx	lr
 466              	.L47:
 467 0006 00BF     		.align	2
 468              	.L46:
 469 0008 00000000 		.word	.LANCHOR2
 470              		.cfi_endproc
 471              	.LFE73:
 473              		.section	.text.getMineArrayType,"ax",%progbits
 474              		.align	1
 475              		.global	getMineArrayType
 476              		.syntax unified
 477              		.thumb
 478              		.thumb_func
 479              		.fpu softvfp
 481              	getMineArrayType:
 482              	.LVL25:
 483              	.LFB74:
  96:Core/Src/zigbee.c **** 
  97:Core/Src/zigbee.c **** uint16_t getMineArrayType(int MineNo)
  98:Core/Src/zigbee.c **** {
 484              		.loc 1 98 1 is_stmt 1 view -0
 485              		.cfi_startproc
 486              		@ args = 0, pretend = 0, frame = 0
 487              		@ frame_needed = 0, uses_anonymous_args = 0
 488              		@ link register save eliminated.
  99:Core/Src/zigbee.c **** 	if (MineNo == 0)
 489              		.loc 1 99 2 view .LVU89
 490              		.loc 1 99 5 is_stmt 0 view .LVU90
 491 0000 20B1     		cbz	r0, .L52
 100:Core/Src/zigbee.c **** 	{
 101:Core/Src/zigbee.c **** 		return (uint16_t)((zigbeeMessage[5] & 0xC0) >> 6);
 102:Core/Src/zigbee.c **** 	}
 103:Core/Src/zigbee.c **** 	else if (MineNo == 1)
 492              		.loc 1 103 7 is_stmt 1 view .LVU91
 493              		.loc 1 103 10 is_stmt 0 view .LVU92
 494 0002 0128     		cmp	r0, #1
 495 0004 06D0     		beq	.L53
 104:Core/Src/zigbee.c **** 	{
 105:Core/Src/zigbee.c **** 		return (uint16_t)((zigbeeMessage[5] & 0x30) >> 4);
 106:Core/Src/zigbee.c **** 	}
 107:Core/Src/zigbee.c **** 	else
 108:Core/Src/zigbee.c **** 	{
 109:Core/Src/zigbee.c **** 		return (uint16_t)INVALID_ARG;
 496              		.loc 1 109 10 view .LVU93
 497 0006 4FF6FF70 		movw	r0, #65535
 498              	.LVL26:
 110:Core/Src/zigbee.c **** 	}
 111:Core/Src/zigbee.c **** }
 499              		.loc 1 111 1 view .LVU94
 500 000a 7047     		bx	lr
 501              	.LVL27:
 502              	.L52:
ARM GAS  C:\Users\86183\AppData\Local\Temp\ccKZACWs.s 			page 12


 101:Core/Src/zigbee.c **** 	}
 503              		.loc 1 101 3 is_stmt 1 view .LVU95
 101:Core/Src/zigbee.c **** 	}
 504              		.loc 1 101 35 is_stmt 0 view .LVU96
 505 000c 044B     		ldr	r3, .L54
 506 000e 5879     		ldrb	r0, [r3, #5]	@ zero_extendqisi2
 507              	.LVL28:
 101:Core/Src/zigbee.c **** 	}
 508              		.loc 1 101 10 view .LVU97
 509 0010 8009     		lsrs	r0, r0, #6
 510 0012 7047     		bx	lr
 511              	.LVL29:
 512              	.L53:
 105:Core/Src/zigbee.c **** 	}
 513              		.loc 1 105 3 is_stmt 1 view .LVU98
 105:Core/Src/zigbee.c **** 	}
 514              		.loc 1 105 35 is_stmt 0 view .LVU99
 515 0014 024B     		ldr	r3, .L54
 516 0016 5879     		ldrb	r0, [r3, #5]	@ zero_extendqisi2
 517              	.LVL30:
 105:Core/Src/zigbee.c **** 	}
 518              		.loc 1 105 10 view .LVU100
 519 0018 C0F30110 		ubfx	r0, r0, #4, #2
 520 001c 7047     		bx	lr
 521              	.L55:
 522 001e 00BF     		.align	2
 523              	.L54:
 524 0020 00000000 		.word	.LANCHOR2
 525              		.cfi_endproc
 526              	.LFE74:
 528              		.section	.text.getCarMineSumNum,"ax",%progbits
 529              		.align	1
 530              		.global	getCarMineSumNum
 531              		.syntax unified
 532              		.thumb
 533              		.thumb_func
 534              		.fpu softvfp
 536              	getCarMineSumNum:
 537              	.LFB75:
 112:Core/Src/zigbee.c **** 
 113:Core/Src/zigbee.c **** uint16_t getCarMineSumNum(void)
 114:Core/Src/zigbee.c **** {
 538              		.loc 1 114 1 is_stmt 1 view -0
 539              		.cfi_startproc
 540              		@ args = 0, pretend = 0, frame = 0
 541              		@ frame_needed = 0, uses_anonymous_args = 0
 542              		@ link register save eliminated.
 115:Core/Src/zigbee.c **** 	return (uint16_t)(zigbeeMessage[5] & 0x0F);
 543              		.loc 1 115 2 view .LVU102
 544              		.loc 1 115 33 is_stmt 0 view .LVU103
 545 0000 024B     		ldr	r3, .L57
 546 0002 5879     		ldrb	r0, [r3, #5]	@ zero_extendqisi2
 116:Core/Src/zigbee.c **** }
 547              		.loc 1 116 1 view .LVU104
 548 0004 00F00F00 		and	r0, r0, #15
 549 0008 7047     		bx	lr
 550              	.L58:
ARM GAS  C:\Users\86183\AppData\Local\Temp\ccKZACWs.s 			page 13


 551 000a 00BF     		.align	2
 552              	.L57:
 553 000c 00000000 		.word	.LANCHOR2
 554              		.cfi_endproc
 555              	.LFE75:
 557              		.section	.text.getCarMineANum,"ax",%progbits
 558              		.align	1
 559              		.global	getCarMineANum
 560              		.syntax unified
 561              		.thumb
 562              		.thumb_func
 563              		.fpu softvfp
 565              	getCarMineANum:
 566              	.LFB76:
 117:Core/Src/zigbee.c **** 
 118:Core/Src/zigbee.c **** uint16_t getCarMineANum(void)
 119:Core/Src/zigbee.c **** {
 567              		.loc 1 119 1 is_stmt 1 view -0
 568              		.cfi_startproc
 569              		@ args = 0, pretend = 0, frame = 0
 570              		@ frame_needed = 0, uses_anonymous_args = 0
 571              		@ link register save eliminated.
 120:Core/Src/zigbee.c **** 	return (uint16_t)((zigbeeMessage[6] & 0xF0) >> 4);
 572              		.loc 1 120 2 view .LVU106
 573              		.loc 1 120 34 is_stmt 0 view .LVU107
 574 0000 014B     		ldr	r3, .L60
 575 0002 9879     		ldrb	r0, [r3, #6]	@ zero_extendqisi2
 121:Core/Src/zigbee.c **** }
 576              		.loc 1 121 1 view .LVU108
 577 0004 0009     		lsrs	r0, r0, #4
 578 0006 7047     		bx	lr
 579              	.L61:
 580              		.align	2
 581              	.L60:
 582 0008 00000000 		.word	.LANCHOR2
 583              		.cfi_endproc
 584              	.LFE76:
 586              		.section	.text.getCarMineBNum,"ax",%progbits
 587              		.align	1
 588              		.global	getCarMineBNum
 589              		.syntax unified
 590              		.thumb
 591              		.thumb_func
 592              		.fpu softvfp
 594              	getCarMineBNum:
 595              	.LFB77:
 122:Core/Src/zigbee.c **** 
 123:Core/Src/zigbee.c **** uint16_t getCarMineBNum(void)
 124:Core/Src/zigbee.c **** {
 596              		.loc 1 124 1 is_stmt 1 view -0
 597              		.cfi_startproc
 598              		@ args = 0, pretend = 0, frame = 0
 599              		@ frame_needed = 0, uses_anonymous_args = 0
 600              		@ link register save eliminated.
 125:Core/Src/zigbee.c **** 	return (uint16_t)(zigbeeMessage[6] & 0x0F);
 601              		.loc 1 125 2 view .LVU110
 602              		.loc 1 125 33 is_stmt 0 view .LVU111
ARM GAS  C:\Users\86183\AppData\Local\Temp\ccKZACWs.s 			page 14


 603 0000 024B     		ldr	r3, .L63
 604 0002 9879     		ldrb	r0, [r3, #6]	@ zero_extendqisi2
 126:Core/Src/zigbee.c **** }
 605              		.loc 1 126 1 view .LVU112
 606 0004 00F00F00 		and	r0, r0, #15
 607 0008 7047     		bx	lr
 608              	.L64:
 609 000a 00BF     		.align	2
 610              	.L63:
 611 000c 00000000 		.word	.LANCHOR2
 612              		.cfi_endproc
 613              	.LFE77:
 615              		.section	.text.getCarMineCNum,"ax",%progbits
 616              		.align	1
 617              		.global	getCarMineCNum
 618              		.syntax unified
 619              		.thumb
 620              		.thumb_func
 621              		.fpu softvfp
 623              	getCarMineCNum:
 624              	.LFB78:
 127:Core/Src/zigbee.c **** 
 128:Core/Src/zigbee.c **** uint16_t getCarMineCNum(void)
 129:Core/Src/zigbee.c **** {
 625              		.loc 1 129 1 is_stmt 1 view -0
 626              		.cfi_startproc
 627              		@ args = 0, pretend = 0, frame = 0
 628              		@ frame_needed = 0, uses_anonymous_args = 0
 629              		@ link register save eliminated.
 130:Core/Src/zigbee.c **** 	return (uint16_t)((zigbeeMessage[7] & 0xF0) >> 4);
 630              		.loc 1 130 2 view .LVU114
 631              		.loc 1 130 34 is_stmt 0 view .LVU115
 632 0000 014B     		ldr	r3, .L66
 633 0002 D879     		ldrb	r0, [r3, #7]	@ zero_extendqisi2
 131:Core/Src/zigbee.c **** }
 634              		.loc 1 131 1 view .LVU116
 635 0004 0009     		lsrs	r0, r0, #4
 636 0006 7047     		bx	lr
 637              	.L67:
 638              		.align	2
 639              	.L66:
 640 0008 00000000 		.word	.LANCHOR2
 641              		.cfi_endproc
 642              	.LFE78:
 644              		.section	.text.getCarMineDNum,"ax",%progbits
 645              		.align	1
 646              		.global	getCarMineDNum
 647              		.syntax unified
 648              		.thumb
 649              		.thumb_func
 650              		.fpu softvfp
 652              	getCarMineDNum:
 653              	.LFB79:
 132:Core/Src/zigbee.c **** 
 133:Core/Src/zigbee.c **** uint16_t getCarMineDNum(void)
 134:Core/Src/zigbee.c **** {
 654              		.loc 1 134 1 is_stmt 1 view -0
ARM GAS  C:\Users\86183\AppData\Local\Temp\ccKZACWs.s 			page 15


 655              		.cfi_startproc
 656              		@ args = 0, pretend = 0, frame = 0
 657              		@ frame_needed = 0, uses_anonymous_args = 0
 658              		@ link register save eliminated.
 135:Core/Src/zigbee.c **** 	return (uint16_t)(zigbeeMessage[7] & 0x0F);
 659              		.loc 1 135 2 view .LVU118
 660              		.loc 1 135 33 is_stmt 0 view .LVU119
 661 0000 024B     		ldr	r3, .L69
 662 0002 D879     		ldrb	r0, [r3, #7]	@ zero_extendqisi2
 136:Core/Src/zigbee.c **** }
 663              		.loc 1 136 1 view .LVU120
 664 0004 00F00F00 		and	r0, r0, #15
 665 0008 7047     		bx	lr
 666              	.L70:
 667 000a 00BF     		.align	2
 668              	.L69:
 669 000c 00000000 		.word	.LANCHOR2
 670              		.cfi_endproc
 671              	.LFE79:
 673              		.section	.text.getMyBeaconMineType,"ax",%progbits
 674              		.align	1
 675              		.global	getMyBeaconMineType
 676              		.syntax unified
 677              		.thumb
 678              		.thumb_func
 679              		.fpu softvfp
 681              	getMyBeaconMineType:
 682              	.LVL31:
 683              	.LFB80:
 137:Core/Src/zigbee.c **** 
 138:Core/Src/zigbee.c **** uint16_t getMyBeaconMineType(int MineType)
 139:Core/Src/zigbee.c **** {
 684              		.loc 1 139 1 is_stmt 1 view -0
 685              		.cfi_startproc
 686              		@ args = 0, pretend = 0, frame = 0
 687              		@ frame_needed = 0, uses_anonymous_args = 0
 688              		@ link register save eliminated.
 140:Core/Src/zigbee.c **** 	if (MineType == 0)
 689              		.loc 1 140 2 view .LVU122
 690              		.loc 1 140 5 is_stmt 0 view .LVU123
 691 0000 30B1     		cbz	r0, .L76
 141:Core/Src/zigbee.c **** 	{
 142:Core/Src/zigbee.c **** 		return (uint16_t)((zigbeeMessage[8] & 0xC0) >> 6);
 143:Core/Src/zigbee.c **** 	}
 144:Core/Src/zigbee.c **** 	else if (MineType == 1)
 692              		.loc 1 144 7 is_stmt 1 view .LVU124
 693              		.loc 1 144 10 is_stmt 0 view .LVU125
 694 0002 0128     		cmp	r0, #1
 695 0004 08D0     		beq	.L77
 145:Core/Src/zigbee.c **** 	{
 146:Core/Src/zigbee.c **** 		return (uint16_t)((zigbeeMessage[8] & 0x30) >> 4);
 147:Core/Src/zigbee.c **** 	}
 148:Core/Src/zigbee.c **** 	else if (MineType == 2)
 696              		.loc 1 148 7 is_stmt 1 view .LVU126
 697              		.loc 1 148 10 is_stmt 0 view .LVU127
 698 0006 0228     		cmp	r0, #2
 699 0008 0BD0     		beq	.L78
ARM GAS  C:\Users\86183\AppData\Local\Temp\ccKZACWs.s 			page 16


 149:Core/Src/zigbee.c **** 	{
 150:Core/Src/zigbee.c **** 		return (uint16_t)((zigbeeMessage[8] & 0x0C) >> 2);
 151:Core/Src/zigbee.c **** 	}
 152:Core/Src/zigbee.c **** 	else
 153:Core/Src/zigbee.c **** 	{
 154:Core/Src/zigbee.c **** 		return (uint16_t)INVALID_ARG;
 700              		.loc 1 154 10 view .LVU128
 701 000a 4FF6FF70 		movw	r0, #65535
 702              	.LVL32:
 155:Core/Src/zigbee.c **** 	}
 156:Core/Src/zigbee.c **** }
 703              		.loc 1 156 1 view .LVU129
 704 000e 7047     		bx	lr
 705              	.LVL33:
 706              	.L76:
 142:Core/Src/zigbee.c **** 	}
 707              		.loc 1 142 3 is_stmt 1 view .LVU130
 142:Core/Src/zigbee.c **** 	}
 708              		.loc 1 142 35 is_stmt 0 view .LVU131
 709 0010 064B     		ldr	r3, .L79
 710 0012 187A     		ldrb	r0, [r3, #8]	@ zero_extendqisi2
 711              	.LVL34:
 142:Core/Src/zigbee.c **** 	}
 712              		.loc 1 142 10 view .LVU132
 713 0014 8009     		lsrs	r0, r0, #6
 714 0016 7047     		bx	lr
 715              	.LVL35:
 716              	.L77:
 146:Core/Src/zigbee.c **** 	}
 717              		.loc 1 146 3 is_stmt 1 view .LVU133
 146:Core/Src/zigbee.c **** 	}
 718              		.loc 1 146 35 is_stmt 0 view .LVU134
 719 0018 044B     		ldr	r3, .L79
 720 001a 187A     		ldrb	r0, [r3, #8]	@ zero_extendqisi2
 721              	.LVL36:
 146:Core/Src/zigbee.c **** 	}
 722              		.loc 1 146 10 view .LVU135
 723 001c C0F30110 		ubfx	r0, r0, #4, #2
 724 0020 7047     		bx	lr
 725              	.LVL37:
 726              	.L78:
 150:Core/Src/zigbee.c **** 	}
 727              		.loc 1 150 3 is_stmt 1 view .LVU136
 150:Core/Src/zigbee.c **** 	}
 728              		.loc 1 150 35 is_stmt 0 view .LVU137
 729 0022 024B     		ldr	r3, .L79
 730 0024 187A     		ldrb	r0, [r3, #8]	@ zero_extendqisi2
 731              	.LVL38:
 150:Core/Src/zigbee.c **** 	}
 732              		.loc 1 150 10 view .LVU138
 733 0026 C0F38100 		ubfx	r0, r0, #2, #2
 734 002a 7047     		bx	lr
 735              	.L80:
 736              		.align	2
 737              	.L79:
 738 002c 00000000 		.word	.LANCHOR2
 739              		.cfi_endproc
ARM GAS  C:\Users\86183\AppData\Local\Temp\ccKZACWs.s 			page 17


 740              	.LFE80:
 742              		.section	.text.getMineIntensity,"ax",%progbits
 743              		.align	1
 744              		.global	getMineIntensity
 745              		.syntax unified
 746              		.thumb
 747              		.thumb_func
 748              		.fpu softvfp
 750              	getMineIntensity:
 751              	.LVL39:
 752              	.LFB81:
 157:Core/Src/zigbee.c **** 
 158:Core/Src/zigbee.c **** uint32_t getMineIntensity(int MineNo)
 159:Core/Src/zigbee.c **** {
 753              		.loc 1 159 1 is_stmt 1 view -0
 754              		.cfi_startproc
 755              		@ args = 0, pretend = 0, frame = 0
 756              		@ frame_needed = 0, uses_anonymous_args = 0
 757              		@ link register save eliminated.
 160:Core/Src/zigbee.c **** 	if (MineNo == 0 || MineNo == 1)
 758              		.loc 1 160 2 view .LVU140
 759              		.loc 1 160 5 is_stmt 0 view .LVU141
 760 0000 0128     		cmp	r0, #1
 761 0002 14D8     		bhi	.L83
 161:Core/Src/zigbee.c **** 	{
 162:Core/Src/zigbee.c **** 		return (uint32_t)((zigbeeMessage[9 + 4 * MineNo] << 24) + (zigbeeMessage[10 + 4 * MineNo] << 16) 
 762              		.loc 1 162 3 is_stmt 1 view .LVU142
 763              		.loc 1 162 42 is_stmt 0 view .LVU143
 764 0004 8200     		lsls	r2, r0, #2
 765              		.loc 1 162 38 view .LVU144
 766 0006 02F10903 		add	r3, r2, #9
 767              		.loc 1 162 35 view .LVU145
 768 000a 0A49     		ldr	r1, .L84
 769 000c 11F803C0 		ldrb	ip, [r1, r3]	@ zero_extendqisi2
 770              		.loc 1 162 79 view .LVU146
 771 0010 02F10A03 		add	r3, r2, #10
 772              		.loc 1 162 75 view .LVU147
 773 0014 CB5C     		ldrb	r3, [r1, r3]	@ zero_extendqisi2
 774              		.loc 1 162 93 view .LVU148
 775 0016 1B04     		lsls	r3, r3, #16
 776              		.loc 1 162 59 view .LVU149
 777 0018 03EB0C63 		add	r3, r3, ip, lsl #24
 778              		.loc 1 162 120 view .LVU150
 779 001c 0B32     		adds	r2, r2, #11
 780              		.loc 1 162 116 view .LVU151
 781 001e 8A5C     		ldrb	r2, [r1, r2]	@ zero_extendqisi2
 782              		.loc 1 162 100 view .LVU152
 783 0020 03EB0223 		add	r3, r3, r2, lsl #8
 784              		.loc 1 162 160 view .LVU153
 785 0024 0330     		adds	r0, r0, #3
 786              	.LVL40:
 787              		.loc 1 162 156 view .LVU154
 788 0026 11F82000 		ldrb	r0, [r1, r0, lsl #2]	@ zero_extendqisi2
 789              	.LVL41:
 790              		.loc 1 162 140 view .LVU155
 791 002a 1844     		add	r0, r0, r3
 792              		.loc 1 162 10 view .LVU156
ARM GAS  C:\Users\86183\AppData\Local\Temp\ccKZACWs.s 			page 18


 793 002c 7047     		bx	lr
 794              	.LVL42:
 795              	.L83:
 163:Core/Src/zigbee.c **** 	}
 164:Core/Src/zigbee.c **** 	else
 165:Core/Src/zigbee.c **** 	{
 166:Core/Src/zigbee.c **** 		return (uint32_t)INVALID_ARG;
 796              		.loc 1 166 10 view .LVU157
 797 002e 4FF0FF30 		mov	r0, #-1
 798              	.LVL43:
 167:Core/Src/zigbee.c **** 	}
 168:Core/Src/zigbee.c **** }
 799              		.loc 1 168 1 view .LVU158
 800 0032 7047     		bx	lr
 801              	.L85:
 802              		.align	2
 803              	.L84:
 804 0034 00000000 		.word	.LANCHOR2
 805              		.cfi_endproc
 806              	.LFE81:
 808              		.section	.text.getDistanceOfMyBeacon,"ax",%progbits
 809              		.align	1
 810              		.global	getDistanceOfMyBeacon
 811              		.syntax unified
 812              		.thumb
 813              		.thumb_func
 814              		.fpu softvfp
 816              	getDistanceOfMyBeacon:
 817              	.LVL44:
 818              	.LFB82:
 169:Core/Src/zigbee.c **** 
 170:Core/Src/zigbee.c **** uint16_t getDistanceOfMyBeacon(int BeaconNo)
 171:Core/Src/zigbee.c **** {
 819              		.loc 1 171 1 is_stmt 1 view -0
 820              		.cfi_startproc
 821              		@ args = 0, pretend = 0, frame = 0
 822              		@ frame_needed = 0, uses_anonymous_args = 0
 823              		@ link register save eliminated.
 172:Core/Src/zigbee.c **** 	if (BeaconNo != 0 && BeaconNo != 1 && BeaconNo != 2)
 824              		.loc 1 172 2 view .LVU160
 825              		.loc 1 172 5 is_stmt 0 view .LVU161
 826 0000 0228     		cmp	r0, #2
 827 0002 0AD8     		bhi	.L88
 173:Core/Src/zigbee.c **** 		return (uint16_t)INVALID_ARG;
 174:Core/Src/zigbee.c **** 	else
 175:Core/Src/zigbee.c **** 		return (uint16_t)((zigbeeMessage[17 + 2 * BeaconNo] << 8) + zigbeeMessage[18 + 2 * BeaconNo]);
 828              		.loc 1 175 3 is_stmt 1 view .LVU162
 829              		.loc 1 175 43 is_stmt 0 view .LVU163
 830 0004 4300     		lsls	r3, r0, #1
 831              		.loc 1 175 39 view .LVU164
 832 0006 1133     		adds	r3, r3, #17
 833              		.loc 1 175 35 view .LVU165
 834 0008 054A     		ldr	r2, .L89
 835 000a D35C     		ldrb	r3, [r2, r3]	@ zero_extendqisi2
 836              		.loc 1 175 80 view .LVU166
 837 000c 0930     		adds	r0, r0, #9
 838              	.LVL45:
ARM GAS  C:\Users\86183\AppData\Local\Temp\ccKZACWs.s 			page 19


 839              		.loc 1 175 76 view .LVU167
 840 000e 12F81000 		ldrb	r0, [r2, r0, lsl #1]	@ zero_extendqisi2
 841              	.LVL46:
 842              		.loc 1 175 10 view .LVU168
 843 0012 00EB0320 		add	r0, r0, r3, lsl #8
 844 0016 80B2     		uxth	r0, r0
 845 0018 7047     		bx	lr
 846              	.LVL47:
 847              	.L88:
 173:Core/Src/zigbee.c **** 		return (uint16_t)INVALID_ARG;
 848              		.loc 1 173 10 view .LVU169
 849 001a 4FF6FF70 		movw	r0, #65535
 850              	.LVL48:
 176:Core/Src/zigbee.c **** }
 851              		.loc 1 176 1 view .LVU170
 852 001e 7047     		bx	lr
 853              	.L90:
 854              		.align	2
 855              	.L89:
 856 0020 00000000 		.word	.LANCHOR2
 857              		.cfi_endproc
 858              	.LFE82:
 860              		.section	.text.getDistanceOfRivalBeacon,"ax",%progbits
 861              		.align	1
 862              		.global	getDistanceOfRivalBeacon
 863              		.syntax unified
 864              		.thumb
 865              		.thumb_func
 866              		.fpu softvfp
 868              	getDistanceOfRivalBeacon:
 869              	.LVL49:
 870              	.LFB83:
 177:Core/Src/zigbee.c **** 
 178:Core/Src/zigbee.c **** uint16_t getDistanceOfRivalBeacon(int BeaconNo)
 179:Core/Src/zigbee.c **** {
 871              		.loc 1 179 1 is_stmt 1 view -0
 872              		.cfi_startproc
 873              		@ args = 0, pretend = 0, frame = 0
 874              		@ frame_needed = 0, uses_anonymous_args = 0
 875              		@ link register save eliminated.
 180:Core/Src/zigbee.c **** 	if (BeaconNo != 0 && BeaconNo != 1 && BeaconNo != 2)
 876              		.loc 1 180 2 view .LVU172
 877              		.loc 1 180 5 is_stmt 0 view .LVU173
 878 0000 0228     		cmp	r0, #2
 879 0002 0AD8     		bhi	.L93
 181:Core/Src/zigbee.c **** 		return (uint16_t)INVALID_ARG;
 182:Core/Src/zigbee.c **** 	else
 183:Core/Src/zigbee.c **** 		return (uint16_t)((zigbeeMessage[23 + 2 * BeaconNo] << 8) + zigbeeMessage[24 + 2 * BeaconNo]);
 880              		.loc 1 183 3 is_stmt 1 view .LVU174
 881              		.loc 1 183 43 is_stmt 0 view .LVU175
 882 0004 4300     		lsls	r3, r0, #1
 883              		.loc 1 183 39 view .LVU176
 884 0006 1733     		adds	r3, r3, #23
 885              		.loc 1 183 35 view .LVU177
 886 0008 054A     		ldr	r2, .L94
 887 000a D35C     		ldrb	r3, [r2, r3]	@ zero_extendqisi2
 888              		.loc 1 183 80 view .LVU178
ARM GAS  C:\Users\86183\AppData\Local\Temp\ccKZACWs.s 			page 20


 889 000c 0C30     		adds	r0, r0, #12
 890              	.LVL50:
 891              		.loc 1 183 76 view .LVU179
 892 000e 12F81000 		ldrb	r0, [r2, r0, lsl #1]	@ zero_extendqisi2
 893              	.LVL51:
 894              		.loc 1 183 10 view .LVU180
 895 0012 00EB0320 		add	r0, r0, r3, lsl #8
 896 0016 80B2     		uxth	r0, r0
 897 0018 7047     		bx	lr
 898              	.LVL52:
 899              	.L93:
 181:Core/Src/zigbee.c **** 		return (uint16_t)INVALID_ARG;
 900              		.loc 1 181 10 view .LVU181
 901 001a 4FF6FF70 		movw	r0, #65535
 902              	.LVL53:
 184:Core/Src/zigbee.c **** }
 903              		.loc 1 184 1 view .LVU182
 904 001e 7047     		bx	lr
 905              	.L95:
 906              		.align	2
 907              	.L94:
 908 0020 00000000 		.word	.LANCHOR2
 909              		.cfi_endproc
 910              	.LFE83:
 912              		.section	.text.getParkDotMineType,"ax",%progbits
 913              		.align	1
 914              		.global	getParkDotMineType
 915              		.syntax unified
 916              		.thumb
 917              		.thumb_func
 918              		.fpu softvfp
 920              	getParkDotMineType:
 921              	.LVL54:
 922              	.LFB84:
 185:Core/Src/zigbee.c **** 
 186:Core/Src/zigbee.c **** uint16_t getParkDotMineType(int ParkDotNo)
 187:Core/Src/zigbee.c **** {
 923              		.loc 1 187 1 is_stmt 1 view -0
 924              		.cfi_startproc
 925              		@ args = 0, pretend = 0, frame = 0
 926              		@ frame_needed = 0, uses_anonymous_args = 0
 927              		@ link register save eliminated.
 188:Core/Src/zigbee.c **** 	if (ParkDotNo < 0 || ParkDotNo > 7)
 928              		.loc 1 188 2 view .LVU184
 929              		.loc 1 188 5 is_stmt 0 view .LVU185
 930 0000 0728     		cmp	r0, #7
 931 0002 2DD8     		bhi	.L107
 189:Core/Src/zigbee.c **** 		return (uint16_t)INVALID_ARG;
 190:Core/Src/zigbee.c **** 	else
 191:Core/Src/zigbee.c **** 		switch (ParkDotNo)
 932              		.loc 1 191 3 is_stmt 1 view .LVU186
 933 0004 0728     		cmp	r0, #7
 934 0006 2ED8     		bhi	.L108
 935 0008 DFE800F0 		tbb	[pc, r0]
 936              	.L99:
 937 000c 04       		.byte	(.L106-.L99)/2
 938 000d 08       		.byte	(.L105-.L99)/2
ARM GAS  C:\Users\86183\AppData\Local\Temp\ccKZACWs.s 			page 21


 939 000e 0D       		.byte	(.L104-.L99)/2
 940 000f 12       		.byte	(.L103-.L99)/2
 941 0010 17       		.byte	(.L102-.L99)/2
 942 0011 1B       		.byte	(.L101-.L99)/2
 943 0012 20       		.byte	(.L100-.L99)/2
 944 0013 25       		.byte	(.L98-.L99)/2
 945              		.p2align 1
 946              	.L106:
 192:Core/Src/zigbee.c **** 		{
 193:Core/Src/zigbee.c **** 		case 0:
 194:Core/Src/zigbee.c **** 			return (uint16_t)((zigbeeMessage[29] & 0xC0) >> 6);
 947              		.loc 1 194 4 view .LVU187
 948              		.loc 1 194 36 is_stmt 0 view .LVU188
 949 0014 154B     		ldr	r3, .L109
 950 0016 587F     		ldrb	r0, [r3, #29]	@ zero_extendqisi2
 951              	.LVL55:
 952              		.loc 1 194 11 view .LVU189
 953 0018 8009     		lsrs	r0, r0, #6
 954 001a 7047     		bx	lr
 955              	.LVL56:
 956              	.L105:
 195:Core/Src/zigbee.c **** 			break;
 957              		.loc 1 195 4 is_stmt 1 view .LVU190
 196:Core/Src/zigbee.c **** 		case 1:
 197:Core/Src/zigbee.c **** 			return (uint16_t)((zigbeeMessage[29] & 0x30) >> 4);
 958              		.loc 1 197 4 view .LVU191
 959              		.loc 1 197 36 is_stmt 0 view .LVU192
 960 001c 134B     		ldr	r3, .L109
 961 001e 587F     		ldrb	r0, [r3, #29]	@ zero_extendqisi2
 962              	.LVL57:
 963              		.loc 1 197 11 view .LVU193
 964 0020 C0F30110 		ubfx	r0, r0, #4, #2
 965 0024 7047     		bx	lr
 966              	.LVL58:
 967              	.L104:
 198:Core/Src/zigbee.c **** 			break;
 968              		.loc 1 198 4 is_stmt 1 view .LVU194
 199:Core/Src/zigbee.c **** 		case 2:
 200:Core/Src/zigbee.c **** 			return (uint16_t)((zigbeeMessage[29] & 0x0C) >> 2);
 969              		.loc 1 200 4 view .LVU195
 970              		.loc 1 200 36 is_stmt 0 view .LVU196
 971 0026 114B     		ldr	r3, .L109
 972 0028 587F     		ldrb	r0, [r3, #29]	@ zero_extendqisi2
 973              	.LVL59:
 974              		.loc 1 200 11 view .LVU197
 975 002a C0F38100 		ubfx	r0, r0, #2, #2
 976 002e 7047     		bx	lr
 977              	.LVL60:
 978              	.L103:
 201:Core/Src/zigbee.c **** 			break;
 979              		.loc 1 201 4 is_stmt 1 view .LVU198
 202:Core/Src/zigbee.c **** 		case 3:
 203:Core/Src/zigbee.c **** 			return (uint16_t)((zigbeeMessage[29] & 0x03));
 980              		.loc 1 203 4 view .LVU199
 981              		.loc 1 203 36 is_stmt 0 view .LVU200
 982 0030 0E4B     		ldr	r3, .L109
 983 0032 587F     		ldrb	r0, [r3, #29]	@ zero_extendqisi2
ARM GAS  C:\Users\86183\AppData\Local\Temp\ccKZACWs.s 			page 22


 984              	.LVL61:
 985              		.loc 1 203 11 view .LVU201
 986 0034 00F00300 		and	r0, r0, #3
 987 0038 7047     		bx	lr
 988              	.LVL62:
 989              	.L102:
 204:Core/Src/zigbee.c **** 			break;
 990              		.loc 1 204 4 is_stmt 1 view .LVU202
 205:Core/Src/zigbee.c **** 		case 4:
 206:Core/Src/zigbee.c **** 			return (uint16_t)((zigbeeMessage[30] & 0xC0) >> 6);
 991              		.loc 1 206 4 view .LVU203
 992              		.loc 1 206 36 is_stmt 0 view .LVU204
 993 003a 0C4B     		ldr	r3, .L109
 994 003c 987F     		ldrb	r0, [r3, #30]	@ zero_extendqisi2
 995              	.LVL63:
 996              		.loc 1 206 11 view .LVU205
 997 003e 8009     		lsrs	r0, r0, #6
 998 0040 7047     		bx	lr
 999              	.LVL64:
 1000              	.L101:
 207:Core/Src/zigbee.c **** 			break;
 1001              		.loc 1 207 4 is_stmt 1 view .LVU206
 208:Core/Src/zigbee.c **** 		case 5:
 209:Core/Src/zigbee.c **** 			return (uint16_t)((zigbeeMessage[30] & 0x30) >> 4);
 1002              		.loc 1 209 4 view .LVU207
 1003              		.loc 1 209 36 is_stmt 0 view .LVU208
 1004 0042 0A4B     		ldr	r3, .L109
 1005 0044 987F     		ldrb	r0, [r3, #30]	@ zero_extendqisi2
 1006              	.LVL65:
 1007              		.loc 1 209 11 view .LVU209
 1008 0046 C0F30110 		ubfx	r0, r0, #4, #2
 1009 004a 7047     		bx	lr
 1010              	.LVL66:
 1011              	.L100:
 210:Core/Src/zigbee.c **** 			break;
 1012              		.loc 1 210 4 is_stmt 1 view .LVU210
 211:Core/Src/zigbee.c **** 		case 6:
 212:Core/Src/zigbee.c **** 			return (uint16_t)((zigbeeMessage[30] & 0x0C) >> 2);
 1013              		.loc 1 212 4 view .LVU211
 1014              		.loc 1 212 36 is_stmt 0 view .LVU212
 1015 004c 074B     		ldr	r3, .L109
 1016 004e 987F     		ldrb	r0, [r3, #30]	@ zero_extendqisi2
 1017              	.LVL67:
 1018              		.loc 1 212 11 view .LVU213
 1019 0050 C0F38100 		ubfx	r0, r0, #2, #2
 1020 0054 7047     		bx	lr
 1021              	.LVL68:
 1022              	.L98:
 213:Core/Src/zigbee.c **** 			break;
 1023              		.loc 1 213 4 is_stmt 1 view .LVU214
 214:Core/Src/zigbee.c **** 		case 7:
 215:Core/Src/zigbee.c **** 			return (uint16_t)((zigbeeMessage[30] & 0x03));
 1024              		.loc 1 215 4 view .LVU215
 1025              		.loc 1 215 36 is_stmt 0 view .LVU216
 1026 0056 054B     		ldr	r3, .L109
 1027 0058 987F     		ldrb	r0, [r3, #30]	@ zero_extendqisi2
 1028              	.LVL69:
ARM GAS  C:\Users\86183\AppData\Local\Temp\ccKZACWs.s 			page 23


 1029              		.loc 1 215 11 view .LVU217
 1030 005a 00F00300 		and	r0, r0, #3
 1031 005e 7047     		bx	lr
 1032              	.LVL70:
 1033              	.L107:
 189:Core/Src/zigbee.c **** 	else
 1034              		.loc 1 189 10 view .LVU218
 1035 0060 4FF6FF70 		movw	r0, #65535
 1036              	.LVL71:
 189:Core/Src/zigbee.c **** 	else
 1037              		.loc 1 189 10 view .LVU219
 1038 0064 7047     		bx	lr
 1039              	.LVL72:
 1040              	.L108:
 191:Core/Src/zigbee.c **** 		{
 1041              		.loc 1 191 3 view .LVU220
 1042 0066 0020     		movs	r0, #0
 1043              	.LVL73:
 216:Core/Src/zigbee.c **** 			break;
 217:Core/Src/zigbee.c **** 		}
 218:Core/Src/zigbee.c **** 	return 0;
 219:Core/Src/zigbee.c **** }
 1044              		.loc 1 219 1 view .LVU221
 1045 0068 7047     		bx	lr
 1046              	.L110:
 1047 006a 00BF     		.align	2
 1048              	.L109:
 1049 006c 00000000 		.word	.LANCHOR2
 1050              		.cfi_endproc
 1051              	.LFE84:
 1053              		.section	.text.getCarZone,"ax",%progbits
 1054              		.align	1
 1055              		.global	getCarZone
 1056              		.syntax unified
 1057              		.thumb
 1058              		.thumb_func
 1059              		.fpu softvfp
 1061              	getCarZone:
 1062              	.LFB85:
 220:Core/Src/zigbee.c **** 
 221:Core/Src/zigbee.c **** uint16_t getCarZone(void)
 222:Core/Src/zigbee.c **** {
 1063              		.loc 1 222 1 is_stmt 1 view -0
 1064              		.cfi_startproc
 1065              		@ args = 0, pretend = 0, frame = 0
 1066              		@ frame_needed = 0, uses_anonymous_args = 0
 1067              		@ link register save eliminated.
 223:Core/Src/zigbee.c **** 	return (uint16_t)((zigbeeMessage[31] & 0x80) >> 7);
 1068              		.loc 1 223 2 view .LVU223
 1069              		.loc 1 223 34 is_stmt 0 view .LVU224
 1070 0000 014B     		ldr	r3, .L112
 1071 0002 D87F     		ldrb	r0, [r3, #31]	@ zero_extendqisi2
 224:Core/Src/zigbee.c **** }
 1072              		.loc 1 224 1 view .LVU225
 1073 0004 C009     		lsrs	r0, r0, #7
 1074 0006 7047     		bx	lr
 1075              	.L113:
ARM GAS  C:\Users\86183\AppData\Local\Temp\ccKZACWs.s 			page 24


 1076              		.align	2
 1077              	.L112:
 1078 0008 00000000 		.word	.LANCHOR2
 1079              		.cfi_endproc
 1080              	.LFE85:
 1082              		.section	.text.getIsCarPosValid,"ax",%progbits
 1083              		.align	1
 1084              		.global	getIsCarPosValid
 1085              		.syntax unified
 1086              		.thumb
 1087              		.thumb_func
 1088              		.fpu softvfp
 1090              	getIsCarPosValid:
 1091              	.LFB86:
 225:Core/Src/zigbee.c **** 
 226:Core/Src/zigbee.c **** uint16_t getIsCarPosValid(void)
 227:Core/Src/zigbee.c **** {
 1092              		.loc 1 227 1 is_stmt 1 view -0
 1093              		.cfi_startproc
 1094              		@ args = 0, pretend = 0, frame = 0
 1095              		@ frame_needed = 0, uses_anonymous_args = 0
 1096              		@ link register save eliminated.
 228:Core/Src/zigbee.c **** 	return (uint16_t)((zigbeeMessage[31] & 0x40) >> 6);
 1097              		.loc 1 228 2 view .LVU227
 1098              		.loc 1 228 34 is_stmt 0 view .LVU228
 1099 0000 024B     		ldr	r3, .L115
 1100 0002 D87F     		ldrb	r0, [r3, #31]	@ zero_extendqisi2
 229:Core/Src/zigbee.c **** }
 1101              		.loc 1 229 1 view .LVU229
 1102 0004 C0F38010 		ubfx	r0, r0, #6, #1
 1103 0008 7047     		bx	lr
 1104              	.L116:
 1105 000a 00BF     		.align	2
 1106              	.L115:
 1107 000c 00000000 		.word	.LANCHOR2
 1108              		.cfi_endproc
 1109              	.LFE86:
 1111              		.section	.text.getIsDistanceOfMyBeaconValid,"ax",%progbits
 1112              		.align	1
 1113              		.global	getIsDistanceOfMyBeaconValid
 1114              		.syntax unified
 1115              		.thumb
 1116              		.thumb_func
 1117              		.fpu softvfp
 1119              	getIsDistanceOfMyBeaconValid:
 1120              	.LVL74:
 1121              	.LFB87:
 230:Core/Src/zigbee.c **** 
 231:Core/Src/zigbee.c **** uint16_t getIsDistanceOfMyBeaconValid(int BeaconNo)
 232:Core/Src/zigbee.c **** {
 1122              		.loc 1 232 1 is_stmt 1 view -0
 1123              		.cfi_startproc
 1124              		@ args = 0, pretend = 0, frame = 0
 1125              		@ frame_needed = 0, uses_anonymous_args = 0
 1126              		@ link register save eliminated.
 233:Core/Src/zigbee.c **** 	if (BeaconNo == 0)
 1127              		.loc 1 233 2 view .LVU231
ARM GAS  C:\Users\86183\AppData\Local\Temp\ccKZACWs.s 			page 25


 1128              		.loc 1 233 5 is_stmt 0 view .LVU232
 1129 0000 30B1     		cbz	r0, .L122
 234:Core/Src/zigbee.c **** 	{
 235:Core/Src/zigbee.c **** 		return (uint16_t)((zigbeeMessage[31] & 0x20) >> 5);
 236:Core/Src/zigbee.c **** 	}
 237:Core/Src/zigbee.c **** 	else if (BeaconNo == 1)
 1130              		.loc 1 237 7 is_stmt 1 view .LVU233
 1131              		.loc 1 237 10 is_stmt 0 view .LVU234
 1132 0002 0128     		cmp	r0, #1
 1133 0004 09D0     		beq	.L123
 238:Core/Src/zigbee.c **** 	{
 239:Core/Src/zigbee.c **** 		return (uint16_t)((zigbeeMessage[31] & 0x10) >> 4);
 240:Core/Src/zigbee.c **** 	}
 241:Core/Src/zigbee.c **** 	else if (BeaconNo == 2)
 1134              		.loc 1 241 7 is_stmt 1 view .LVU235
 1135              		.loc 1 241 10 is_stmt 0 view .LVU236
 1136 0006 0228     		cmp	r0, #2
 1137 0008 0CD0     		beq	.L124
 242:Core/Src/zigbee.c **** 	{
 243:Core/Src/zigbee.c **** 		return (uint16_t)((zigbeeMessage[31] & 0x08) >> 3);
 244:Core/Src/zigbee.c **** 	}
 245:Core/Src/zigbee.c **** 	else
 246:Core/Src/zigbee.c **** 	{
 247:Core/Src/zigbee.c **** 		return (uint16_t)INVALID_ARG;
 1138              		.loc 1 247 10 view .LVU237
 1139 000a 4FF6FF70 		movw	r0, #65535
 1140              	.LVL75:
 248:Core/Src/zigbee.c **** 	}
 249:Core/Src/zigbee.c **** }
 1141              		.loc 1 249 1 view .LVU238
 1142 000e 7047     		bx	lr
 1143              	.LVL76:
 1144              	.L122:
 235:Core/Src/zigbee.c **** 	}
 1145              		.loc 1 235 3 is_stmt 1 view .LVU239
 235:Core/Src/zigbee.c **** 	}
 1146              		.loc 1 235 35 is_stmt 0 view .LVU240
 1147 0010 074B     		ldr	r3, .L125
 1148 0012 D87F     		ldrb	r0, [r3, #31]	@ zero_extendqisi2
 1149              	.LVL77:
 235:Core/Src/zigbee.c **** 	}
 1150              		.loc 1 235 10 view .LVU241
 1151 0014 C0F34010 		ubfx	r0, r0, #5, #1
 1152 0018 7047     		bx	lr
 1153              	.LVL78:
 1154              	.L123:
 239:Core/Src/zigbee.c **** 	}
 1155              		.loc 1 239 3 is_stmt 1 view .LVU242
 239:Core/Src/zigbee.c **** 	}
 1156              		.loc 1 239 35 is_stmt 0 view .LVU243
 1157 001a 054B     		ldr	r3, .L125
 1158 001c D87F     		ldrb	r0, [r3, #31]	@ zero_extendqisi2
 1159              	.LVL79:
 239:Core/Src/zigbee.c **** 	}
 1160              		.loc 1 239 10 view .LVU244
 1161 001e C0F30010 		ubfx	r0, r0, #4, #1
 1162 0022 7047     		bx	lr
ARM GAS  C:\Users\86183\AppData\Local\Temp\ccKZACWs.s 			page 26


 1163              	.LVL80:
 1164              	.L124:
 243:Core/Src/zigbee.c **** 	}
 1165              		.loc 1 243 3 is_stmt 1 view .LVU245
 243:Core/Src/zigbee.c **** 	}
 1166              		.loc 1 243 35 is_stmt 0 view .LVU246
 1167 0024 024B     		ldr	r3, .L125
 1168 0026 D87F     		ldrb	r0, [r3, #31]	@ zero_extendqisi2
 1169              	.LVL81:
 243:Core/Src/zigbee.c **** 	}
 1170              		.loc 1 243 10 view .LVU247
 1171 0028 C0F3C000 		ubfx	r0, r0, #3, #1
 1172 002c 7047     		bx	lr
 1173              	.L126:
 1174 002e 00BF     		.align	2
 1175              	.L125:
 1176 0030 00000000 		.word	.LANCHOR2
 1177              		.cfi_endproc
 1178              	.LFE87:
 1180              		.section	.text.getIsDistanceOfRivalBeaconValid,"ax",%progbits
 1181              		.align	1
 1182              		.global	getIsDistanceOfRivalBeaconValid
 1183              		.syntax unified
 1184              		.thumb
 1185              		.thumb_func
 1186              		.fpu softvfp
 1188              	getIsDistanceOfRivalBeaconValid:
 1189              	.LVL82:
 1190              	.LFB88:
 250:Core/Src/zigbee.c **** 
 251:Core/Src/zigbee.c **** uint16_t getIsDistanceOfRivalBeaconValid(int BeaconNo)
 252:Core/Src/zigbee.c **** {
 1191              		.loc 1 252 1 is_stmt 1 view -0
 1192              		.cfi_startproc
 1193              		@ args = 0, pretend = 0, frame = 0
 1194              		@ frame_needed = 0, uses_anonymous_args = 0
 1195              		@ link register save eliminated.
 253:Core/Src/zigbee.c **** 	if (BeaconNo == 0)
 1196              		.loc 1 253 2 view .LVU249
 1197              		.loc 1 253 5 is_stmt 0 view .LVU250
 1198 0000 30B1     		cbz	r0, .L132
 254:Core/Src/zigbee.c **** 	{
 255:Core/Src/zigbee.c **** 		return (uint16_t)((zigbeeMessage[31] & 0x04) >> 2);
 256:Core/Src/zigbee.c **** 	}
 257:Core/Src/zigbee.c **** 	else if (BeaconNo == 1)
 1199              		.loc 1 257 7 is_stmt 1 view .LVU251
 1200              		.loc 1 257 10 is_stmt 0 view .LVU252
 1201 0002 0128     		cmp	r0, #1
 1202 0004 09D0     		beq	.L133
 258:Core/Src/zigbee.c **** 	{
 259:Core/Src/zigbee.c **** 		return (uint16_t)((zigbeeMessage[31] & 0x02) >> 1);
 260:Core/Src/zigbee.c **** 	}
 261:Core/Src/zigbee.c **** 	else if (BeaconNo == 2)
 1203              		.loc 1 261 7 is_stmt 1 view .LVU253
 1204              		.loc 1 261 10 is_stmt 0 view .LVU254
 1205 0006 0228     		cmp	r0, #2
 1206 0008 0CD0     		beq	.L134
ARM GAS  C:\Users\86183\AppData\Local\Temp\ccKZACWs.s 			page 27


 262:Core/Src/zigbee.c **** 	{
 263:Core/Src/zigbee.c **** 		return (uint16_t)((zigbeeMessage[31] & 0x01));
 264:Core/Src/zigbee.c **** 	}
 265:Core/Src/zigbee.c **** 	else
 266:Core/Src/zigbee.c **** 	{
 267:Core/Src/zigbee.c **** 		return (uint16_t)INVALID_ARG;
 1207              		.loc 1 267 10 view .LVU255
 1208 000a 4FF6FF70 		movw	r0, #65535
 1209              	.LVL83:
 268:Core/Src/zigbee.c **** 	}
 269:Core/Src/zigbee.c **** }
 1210              		.loc 1 269 1 view .LVU256
 1211 000e 7047     		bx	lr
 1212              	.LVL84:
 1213              	.L132:
 255:Core/Src/zigbee.c **** 	}
 1214              		.loc 1 255 3 is_stmt 1 view .LVU257
 255:Core/Src/zigbee.c **** 	}
 1215              		.loc 1 255 35 is_stmt 0 view .LVU258
 1216 0010 074B     		ldr	r3, .L135
 1217 0012 D87F     		ldrb	r0, [r3, #31]	@ zero_extendqisi2
 1218              	.LVL85:
 255:Core/Src/zigbee.c **** 	}
 1219              		.loc 1 255 10 view .LVU259
 1220 0014 C0F38000 		ubfx	r0, r0, #2, #1
 1221 0018 7047     		bx	lr
 1222              	.LVL86:
 1223              	.L133:
 259:Core/Src/zigbee.c **** 	}
 1224              		.loc 1 259 3 is_stmt 1 view .LVU260
 259:Core/Src/zigbee.c **** 	}
 1225              		.loc 1 259 35 is_stmt 0 view .LVU261
 1226 001a 054B     		ldr	r3, .L135
 1227 001c D87F     		ldrb	r0, [r3, #31]	@ zero_extendqisi2
 1228              	.LVL87:
 259:Core/Src/zigbee.c **** 	}
 1229              		.loc 1 259 10 view .LVU262
 1230 001e C0F34000 		ubfx	r0, r0, #1, #1
 1231 0022 7047     		bx	lr
 1232              	.LVL88:
 1233              	.L134:
 263:Core/Src/zigbee.c **** 	}
 1234              		.loc 1 263 3 is_stmt 1 view .LVU263
 263:Core/Src/zigbee.c **** 	}
 1235              		.loc 1 263 35 is_stmt 0 view .LVU264
 1236 0024 024B     		ldr	r3, .L135
 1237 0026 D87F     		ldrb	r0, [r3, #31]	@ zero_extendqisi2
 1238              	.LVL89:
 263:Core/Src/zigbee.c **** 	}
 1239              		.loc 1 263 10 view .LVU265
 1240 0028 00F00100 		and	r0, r0, #1
 1241 002c 7047     		bx	lr
 1242              	.L136:
 1243 002e 00BF     		.align	2
 1244              	.L135:
 1245 0030 00000000 		.word	.LANCHOR2
 1246              		.cfi_endproc
ARM GAS  C:\Users\86183\AppData\Local\Temp\ccKZACWs.s 			page 28


 1247              	.LFE88:
 1249              		.section	.text.getCarScore,"ax",%progbits
 1250              		.align	1
 1251              		.global	getCarScore
 1252              		.syntax unified
 1253              		.thumb
 1254              		.thumb_func
 1255              		.fpu softvfp
 1257              	getCarScore:
 1258              	.LFB89:
 270:Core/Src/zigbee.c **** 
 271:Core/Src/zigbee.c **** int16_t getCarScore(void)
 272:Core/Src/zigbee.c **** {
 1259              		.loc 1 272 1 is_stmt 1 view -0
 1260              		.cfi_startproc
 1261              		@ args = 0, pretend = 0, frame = 0
 1262              		@ frame_needed = 0, uses_anonymous_args = 0
 1263              		@ link register save eliminated.
 273:Core/Src/zigbee.c **** 	return (int16_t)((int8_t)(zigbeeMessage[32] << 8) + zigbeeMessage[33]);
 1264              		.loc 1 273 2 view .LVU267
 274:Core/Src/zigbee.c **** }
 1265              		.loc 1 274 1 is_stmt 0 view .LVU268
 1266 0000 014B     		ldr	r3, .L138
 1267 0002 93F82100 		ldrb	r0, [r3, #33]	@ zero_extendqisi2
 1268 0006 7047     		bx	lr
 1269              	.L139:
 1270              		.align	2
 1271              	.L138:
 1272 0008 00000000 		.word	.LANCHOR2
 1273              		.cfi_endproc
 1274              	.LFE89:
 1276              		.section	.text.getMyBeaconPosX,"ax",%progbits
 1277              		.align	1
 1278              		.global	getMyBeaconPosX
 1279              		.syntax unified
 1280              		.thumb
 1281              		.thumb_func
 1282              		.fpu softvfp
 1284              	getMyBeaconPosX:
 1285              	.LVL90:
 1286              	.LFB90:
 275:Core/Src/zigbee.c **** 
 276:Core/Src/zigbee.c **** uint16_t getMyBeaconPosX(int BeaconNo)
 277:Core/Src/zigbee.c **** {
 1287              		.loc 1 277 1 is_stmt 1 view -0
 1288              		.cfi_startproc
 1289              		@ args = 0, pretend = 0, frame = 0
 1290              		@ frame_needed = 0, uses_anonymous_args = 0
 1291              		@ link register save eliminated.
 278:Core/Src/zigbee.c **** 	if (BeaconNo != 0 && BeaconNo != 1 && BeaconNo != 2)
 1292              		.loc 1 278 2 view .LVU270
 1293              		.loc 1 278 5 is_stmt 0 view .LVU271
 1294 0000 0228     		cmp	r0, #2
 1295 0002 04D8     		bhi	.L142
 279:Core/Src/zigbee.c **** 	{
 280:Core/Src/zigbee.c **** 		return (uint16_t)INVALID_ARG;
 281:Core/Src/zigbee.c **** 	}
ARM GAS  C:\Users\86183\AppData\Local\Temp\ccKZACWs.s 			page 29


 282:Core/Src/zigbee.c **** 	else
 283:Core/Src/zigbee.c **** 	{
 284:Core/Src/zigbee.c **** 		return (uint16_t)(zigbeeMessage[34 + 2 * BeaconNo]);
 1296              		.loc 1 284 3 is_stmt 1 view .LVU272
 1297              		.loc 1 284 38 is_stmt 0 view .LVU273
 1298 0004 1130     		adds	r0, r0, #17
 1299              	.LVL91:
 1300              		.loc 1 284 10 view .LVU274
 1301 0006 034B     		ldr	r3, .L143
 1302 0008 13F81000 		ldrb	r0, [r3, r0, lsl #1]	@ zero_extendqisi2
 1303              	.LVL92:
 1304              		.loc 1 284 10 view .LVU275
 1305 000c 7047     		bx	lr
 1306              	.LVL93:
 1307              	.L142:
 280:Core/Src/zigbee.c **** 	}
 1308              		.loc 1 280 10 view .LVU276
 1309 000e 4FF6FF70 		movw	r0, #65535
 1310              	.LVL94:
 285:Core/Src/zigbee.c **** 	}
 286:Core/Src/zigbee.c **** }
 1311              		.loc 1 286 1 view .LVU277
 1312 0012 7047     		bx	lr
 1313              	.L144:
 1314              		.align	2
 1315              	.L143:
 1316 0014 00000000 		.word	.LANCHOR2
 1317              		.cfi_endproc
 1318              	.LFE90:
 1320              		.section	.text.getMyBeaconPosY,"ax",%progbits
 1321              		.align	1
 1322              		.global	getMyBeaconPosY
 1323              		.syntax unified
 1324              		.thumb
 1325              		.thumb_func
 1326              		.fpu softvfp
 1328              	getMyBeaconPosY:
 1329              	.LVL95:
 1330              	.LFB91:
 287:Core/Src/zigbee.c **** 
 288:Core/Src/zigbee.c **** uint16_t getMyBeaconPosY(int BeaconNo)
 289:Core/Src/zigbee.c **** {
 1331              		.loc 1 289 1 is_stmt 1 view -0
 1332              		.cfi_startproc
 1333              		@ args = 0, pretend = 0, frame = 0
 1334              		@ frame_needed = 0, uses_anonymous_args = 0
 1335              		@ link register save eliminated.
 290:Core/Src/zigbee.c **** 	if (BeaconNo != 0 && BeaconNo != 1 && BeaconNo != 2)
 1336              		.loc 1 290 2 view .LVU279
 1337              		.loc 1 290 5 is_stmt 0 view .LVU280
 1338 0000 0228     		cmp	r0, #2
 1339 0002 04D8     		bhi	.L147
 291:Core/Src/zigbee.c **** 	{
 292:Core/Src/zigbee.c **** 		return (uint16_t)INVALID_ARG;
 293:Core/Src/zigbee.c **** 	}
 294:Core/Src/zigbee.c **** 	else
 295:Core/Src/zigbee.c **** 	{
ARM GAS  C:\Users\86183\AppData\Local\Temp\ccKZACWs.s 			page 30


 296:Core/Src/zigbee.c **** 		return (uint16_t)(zigbeeMessage[35 + 2 * BeaconNo]);
 1340              		.loc 1 296 3 is_stmt 1 view .LVU281
 1341              		.loc 1 296 42 is_stmt 0 view .LVU282
 1342 0004 4000     		lsls	r0, r0, #1
 1343              	.LVL96:
 1344              		.loc 1 296 38 view .LVU283
 1345 0006 2330     		adds	r0, r0, #35
 1346              		.loc 1 296 10 view .LVU284
 1347 0008 024B     		ldr	r3, .L148
 1348 000a 185C     		ldrb	r0, [r3, r0]	@ zero_extendqisi2
 1349 000c 7047     		bx	lr
 1350              	.LVL97:
 1351              	.L147:
 292:Core/Src/zigbee.c **** 	}
 1352              		.loc 1 292 10 view .LVU285
 1353 000e 4FF6FF70 		movw	r0, #65535
 1354              	.LVL98:
 297:Core/Src/zigbee.c **** 	}
 298:Core/Src/zigbee.c **** }
 1355              		.loc 1 298 1 view .LVU286
 1356 0012 7047     		bx	lr
 1357              	.L149:
 1358              		.align	2
 1359              	.L148:
 1360 0014 00000000 		.word	.LANCHOR2
 1361              		.cfi_endproc
 1362              	.LFE91:
 1364              		.section	.text.getRivalBeaconPosX,"ax",%progbits
 1365              		.align	1
 1366              		.global	getRivalBeaconPosX
 1367              		.syntax unified
 1368              		.thumb
 1369              		.thumb_func
 1370              		.fpu softvfp
 1372              	getRivalBeaconPosX:
 1373              	.LVL99:
 1374              	.LFB92:
 299:Core/Src/zigbee.c **** 
 300:Core/Src/zigbee.c **** uint16_t getRivalBeaconPosX(int BeaconNo)
 301:Core/Src/zigbee.c **** {
 1375              		.loc 1 301 1 is_stmt 1 view -0
 1376              		.cfi_startproc
 1377              		@ args = 0, pretend = 0, frame = 0
 1378              		@ frame_needed = 0, uses_anonymous_args = 0
 1379              		@ link register save eliminated.
 302:Core/Src/zigbee.c **** 	if (BeaconNo != 0 && BeaconNo != 1 && BeaconNo != 2)
 1380              		.loc 1 302 2 view .LVU288
 1381              		.loc 1 302 5 is_stmt 0 view .LVU289
 1382 0000 0228     		cmp	r0, #2
 1383 0002 04D8     		bhi	.L152
 303:Core/Src/zigbee.c **** 	{
 304:Core/Src/zigbee.c **** 		return (uint16_t)INVALID_ARG;
 305:Core/Src/zigbee.c **** 	}
 306:Core/Src/zigbee.c **** 	else
 307:Core/Src/zigbee.c **** 	{
 308:Core/Src/zigbee.c **** 		return (uint16_t)(zigbeeMessage[40 + 2 * BeaconNo]);
 1384              		.loc 1 308 3 is_stmt 1 view .LVU290
ARM GAS  C:\Users\86183\AppData\Local\Temp\ccKZACWs.s 			page 31


 1385              		.loc 1 308 38 is_stmt 0 view .LVU291
 1386 0004 1430     		adds	r0, r0, #20
 1387              	.LVL100:
 1388              		.loc 1 308 10 view .LVU292
 1389 0006 034B     		ldr	r3, .L153
 1390 0008 13F81000 		ldrb	r0, [r3, r0, lsl #1]	@ zero_extendqisi2
 1391              	.LVL101:
 1392              		.loc 1 308 10 view .LVU293
 1393 000c 7047     		bx	lr
 1394              	.LVL102:
 1395              	.L152:
 304:Core/Src/zigbee.c **** 	}
 1396              		.loc 1 304 10 view .LVU294
 1397 000e 4FF6FF70 		movw	r0, #65535
 1398              	.LVL103:
 309:Core/Src/zigbee.c **** 	}
 310:Core/Src/zigbee.c **** }
 1399              		.loc 1 310 1 view .LVU295
 1400 0012 7047     		bx	lr
 1401              	.L154:
 1402              		.align	2
 1403              	.L153:
 1404 0014 00000000 		.word	.LANCHOR2
 1405              		.cfi_endproc
 1406              	.LFE92:
 1408              		.section	.text.getRivalBeaconPosY,"ax",%progbits
 1409              		.align	1
 1410              		.global	getRivalBeaconPosY
 1411              		.syntax unified
 1412              		.thumb
 1413              		.thumb_func
 1414              		.fpu softvfp
 1416              	getRivalBeaconPosY:
 1417              	.LVL104:
 1418              	.LFB93:
 311:Core/Src/zigbee.c **** 
 312:Core/Src/zigbee.c **** uint16_t getRivalBeaconPosY(int BeaconNo)
 313:Core/Src/zigbee.c **** {
 1419              		.loc 1 313 1 is_stmt 1 view -0
 1420              		.cfi_startproc
 1421              		@ args = 0, pretend = 0, frame = 0
 1422              		@ frame_needed = 0, uses_anonymous_args = 0
 1423              		@ link register save eliminated.
 314:Core/Src/zigbee.c **** 	if (BeaconNo != 0 && BeaconNo != 1 && BeaconNo != 2)
 1424              		.loc 1 314 2 view .LVU297
 1425              		.loc 1 314 5 is_stmt 0 view .LVU298
 1426 0000 0228     		cmp	r0, #2
 1427 0002 04D8     		bhi	.L157
 315:Core/Src/zigbee.c **** 	{
 316:Core/Src/zigbee.c **** 		return (uint16_t)INVALID_ARG;
 317:Core/Src/zigbee.c **** 	}
 318:Core/Src/zigbee.c **** 	else
 319:Core/Src/zigbee.c **** 	{
 320:Core/Src/zigbee.c **** 		return (uint16_t)(zigbeeMessage[41 + 2 * BeaconNo]);
 1428              		.loc 1 320 3 is_stmt 1 view .LVU299
 1429              		.loc 1 320 42 is_stmt 0 view .LVU300
 1430 0004 4000     		lsls	r0, r0, #1
ARM GAS  C:\Users\86183\AppData\Local\Temp\ccKZACWs.s 			page 32


 1431              	.LVL105:
 1432              		.loc 1 320 38 view .LVU301
 1433 0006 2930     		adds	r0, r0, #41
 1434              		.loc 1 320 10 view .LVU302
 1435 0008 024B     		ldr	r3, .L158
 1436 000a 185C     		ldrb	r0, [r3, r0]	@ zero_extendqisi2
 1437 000c 7047     		bx	lr
 1438              	.LVL106:
 1439              	.L157:
 316:Core/Src/zigbee.c **** 	}
 1440              		.loc 1 316 10 view .LVU303
 1441 000e 4FF6FF70 		movw	r0, #65535
 1442              	.LVL107:
 321:Core/Src/zigbee.c **** 	}
 322:Core/Src/zigbee.c **** }
 1443              		.loc 1 322 1 view .LVU304
 1444 0012 7047     		bx	lr
 1445              	.L159:
 1446              		.align	2
 1447              	.L158:
 1448 0014 00000000 		.word	.LANCHOR2
 1449              		.cfi_endproc
 1450              	.LFE93:
 1452              		.global	zigbee_halfrecv_len
 1453              		.global	zigbee_huart
 1454              		.global	zigbee_halfrecv_buff
 1455              		.global	zigbeeMessageSend
 1456              		.global	zigbeeReceive
 1457              		.global	zigbeeMessage
 1458              		.section	.bss.zigbeeMessage,"aw",%nobits
 1459              		.align	2
 1460              		.set	.LANCHOR2,. + 0
 1463              	zigbeeMessage:
 1464 0000 00000000 		.space	48
 1464      00000000 
 1464      00000000 
 1464      00000000 
 1464      00000000 
 1465              		.section	.bss.zigbeeReceive,"aw",%nobits
 1466              		.align	2
 1467              		.set	.LANCHOR1,. + 0
 1470              	zigbeeReceive:
 1471 0000 00000000 		.space	255
 1471      00000000 
 1471      00000000 
 1471      00000000 
 1471      00000000 
 1472              		.section	.bss.zigbee_halfrecv_buff,"aw",%nobits
 1473              		.align	2
 1474              		.set	.LANCHOR4,. + 0
 1477              	zigbee_halfrecv_buff:
 1478 0000 00000000 		.space	48
 1478      00000000 
 1478      00000000 
 1478      00000000 
 1478      00000000 
 1479              		.section	.bss.zigbee_halfrecv_len,"aw",%nobits
ARM GAS  C:\Users\86183\AppData\Local\Temp\ccKZACWs.s 			page 33


 1480              		.set	.LANCHOR3,. + 0
 1483              	zigbee_halfrecv_len:
 1484 0000 00       		.space	1
 1485              		.section	.bss.zigbee_huart,"aw",%nobits
 1486              		.align	2
 1487              		.set	.LANCHOR0,. + 0
 1490              	zigbee_huart:
 1491 0000 00000000 		.space	4
 1492              		.section	.data.zigbeeMessageSend,"aw"
 1493              		.align	2
 1494              		.set	.LANCHOR5,. + 0
 1497              	zigbeeMessageSend:
 1498 0000 01020304 		.ascii	"\001\002\003\004"
 1499              		.text
 1500              	.Letext0:
 1501              		.file 2 "d:\\gnu arm embedded toolchain10\\10 2021.07\\arm-none-eabi\\include\\machine\\_default_t
 1502              		.file 3 "d:\\gnu arm embedded toolchain10\\10 2021.07\\arm-none-eabi\\include\\sys\\_stdint.h"
 1503              		.file 4 "Drivers/CMSIS/Device/ST/STM32F1xx/Include/stm32f103xe.h"
 1504              		.file 5 "Drivers/STM32F1xx_HAL_Driver/Inc/stm32f1xx_hal_def.h"
 1505              		.file 6 "Drivers/STM32F1xx_HAL_Driver/Inc/stm32f1xx_hal_dma.h"
 1506              		.file 7 "Drivers/STM32F1xx_HAL_Driver/Inc/stm32f1xx_hal_uart.h"
 1507              		.file 8 "Core/Inc/zigbee.h"
 1508              		.file 9 "<built-in>"
ARM GAS  C:\Users\86183\AppData\Local\Temp\ccKZACWs.s 			page 34

